

Microchip Technology PIC18 LITE Macro Assembler V1.38 build -256452561 
                                                                                               Mon Dec 12 13:07:05 2016

Microchip Technology Omniscient Code Generator v1.38 (Free mode) build 201607010351
     1                           	processor	18F8722
     2                           	fnconf	rparam,??,?,0
     3                           	opt	pw 120
     4                           	opt	lm
     5                           	psect	idataCOMRAM,global,class=CODE,delta=1
     6                           	psect	smallconst,global,reloc=2,class=SMALLCONST,delta=1
     7                           	psect	nvCOMRAM,global,class=COMRAM,space=1,delta=1
     8                           	psect	cinit,global,reloc=2,class=CODE,delta=1
     9                           	psect	bssCOMRAM,global,class=COMRAM,space=1,delta=1
    10                           	psect	dataCOMRAM,global,class=COMRAM,space=1,delta=1
    11                           	psect	bssBANK0,global,class=BANK0,space=1,delta=1
    12                           	psect	cstackBANK0,global,class=BANK0,space=1,delta=1
    13                           	psect	cstackCOMRAM,global,class=COMRAM,space=1,delta=1
    14                           	psect	text0,global,reloc=2,class=CODE,delta=1
    15                           	psect	text1,global,reloc=2,class=CODE,delta=1
    16                           	psect	text2,global,reloc=2,class=CODE,delta=1
    17                           	psect	text3,global,reloc=2,class=CODE,delta=1
    18                           	psect	text4,global,reloc=2,class=CODE,delta=1
    19                           	psect	text5,global,reloc=2,class=CODE,delta=1
    20                           	psect	text6,global,reloc=2,class=CODE,delta=1
    21                           	psect	text7,global,reloc=2,class=CODE,delta=1
    22                           	psect	text8,global,reloc=2,class=CODE,delta=1
    23                           	psect	text9,global,reloc=2,class=CODE,delta=1
    24                           	psect	text10,global,reloc=2,class=CODE,delta=1
    25                           	psect	text11,global,reloc=2,class=CODE,delta=1
    26                           	psect	text12,global,reloc=2,class=CODE,delta=1
    27                           	psect	text13,global,reloc=2,class=CODE,delta=1
    28                           	psect	text14,global,reloc=2,class=CODE,delta=1
    29                           	psect	text15,global,reloc=2,class=CODE,delta=1
    30                           	psect	text16,global,reloc=2,class=CODE,delta=1
    31                           	psect	text17,global,reloc=2,class=CODE,delta=1
    32                           	psect	text18,global,reloc=2,class=CODE,delta=1
    33                           	psect	text19,global,reloc=2,class=CODE,delta=1
    34                           	psect	text20,global,reloc=2,class=CODE,delta=1
    35                           	psect	text21,global,reloc=2,class=CODE,delta=1
    36                           	psect	text22,global,reloc=2,class=CODE,delta=1
    37                           	psect	text23,global,reloc=2,class=CODE,delta=1
    38                           	psect	text24,global,reloc=2,class=CODE,delta=1
    39                           	psect	text25,global,reloc=2,class=CODE,delta=1
    40                           	psect	text26,global,reloc=2,class=CODE,delta=1
    41                           	psect	text27,global,reloc=2,class=CODE,delta=1
    42                           	psect	text28,global,reloc=2,class=CODE,delta=1
    43                           	psect	text29,global,reloc=2,class=CODE,delta=1
    44                           	psect	text30,global,reloc=2,class=CODE,delta=1
    45                           	psect	text31,global,reloc=2,class=CODE,delta=1
    46                           	psect	text32,global,reloc=2,class=CODE,delta=1
    47                           	psect	text33,global,reloc=2,class=CODE,delta=1
    48                           	psect	text34,global,reloc=2,class=CODE,delta=1
    49                           	psect	text35,global,reloc=2,class=CODE,delta=1
    50                           	psect	text36,global,reloc=2,class=CODE,delta=1
    51                           	psect	text37,global,reloc=2,class=CODE,delta=1
    52                           	psect	text38,global,reloc=2,class=CODE,delta=1
    53                           	psect	text39,global,reloc=2,class=CODE,delta=1
    54                           	psect	text40,global,reloc=2,class=CODE,delta=1
    55                           	psect	intcodelo,global,reloc=2,class=CODE,delta=1
    56                           	psect	text42,global,reloc=2,class=CODE,delta=1
    57                           	psect	text43,global,reloc=2,class=CODE,delta=1
    58                           	psect	intcode,global,reloc=2,class=CODE,delta=1
    59                           	psect	intcode_body,global,reloc=2,class=CODE,delta=1
    60                           	psect	text45,global,reloc=2,class=CODE,delta=1
    61                           	psect	text46,global,reloc=2,class=CODE,delta=1
    62                           	psect	intsave_regs,global,class=BIGRAM,space=1,delta=1
    63                           	psect	rparam,global,class=COMRAM,space=1,delta=1
    64                           	psect	temp,global,ovrld,common,class=COMRAM,space=1,delta=1
    65  0000                     
    66                           	psect	idataCOMRAM
    67  0073EC                     __pidataCOMRAM:
    68                           	opt stack 0
    69                           
    70                           ;initializer for _dp_mask
    71  0073EC  FF                 	db	255
    72                           
    73                           ;initializer for _multiplex_index
    74  0073ED  01                 	db	1
    75                           
    76                           	psect	smallconst
    77  001000                     __psmallconst:
    78                           	opt stack 0
    79  001000  00                 	db	0
    80  001001                     _DispChars:
    81                           	opt stack 0
    82  001001  14                 	db	20
    83  001002  07                 	db	7
    84  001003  8E                 	db	142
    85  001004  4F                 	db	79
    86  001005  45                 	db	69
    87  001006  0E                 	db	14
    88  001007  1E                 	db	30
    89  001008  24                 	db	36
    90  001009  15                 	db	21
    91  00100A  17                 	db	23
    92  00100B  9F                 	db	159
    93  00100C  DF                 	db	223
    94  00100D  C5                 	db	197
    95  00100E  8F                 	db	143
    96  00100F  D6                 	db	214
    97  001010  57                 	db	87
    98  001011  47                 	db	71
    99  001012  1C                 	db	28
   100  001013  5F                 	db	95
   101  001014  26                 	db	38
   102  001015  0F                 	db	15
   103  001016  85                 	db	133
   104  001017  C7                 	db	199
   105  001018  25                 	db	37
   106  001019  3C                 	db	60
   107  00101A                     __end_of_DispChars:
   108                           	opt stack 0
   109  00101A                     _DaysInMonth:
   110                           	opt stack 0
   111  00101A  00                 	db	0
   112  00101B  1F                 	db	31
   113  00101C  1C                 	db	28
   114  00101D  1F                 	db	31
   115  00101E  1E                 	db	30
   116  00101F  1F                 	db	31
   117  001020  1E                 	db	30
   118  001021  1F                 	db	31
   119  001022  1F                 	db	31
   120  001023  1E                 	db	30
   121  001024  1F                 	db	31
   122  001025  1E                 	db	30
   123  001026  1F                 	db	31
   124  001027                     __end_of_DaysInMonth:
   125                           	opt stack 0
   126  001027                     _DaysInMonthLeap:
   127                           	opt stack 0
   128  001027  00                 	db	0
   129  001028  1F                 	db	31
   130  001029  1D                 	db	29
   131  00102A  1F                 	db	31
   132  00102B  1E                 	db	30
   133  00102C  1F                 	db	31
   134  00102D  1E                 	db	30
   135  00102E  1F                 	db	31
   136  00102F  1F                 	db	31
   137  001030  1E                 	db	30
   138  001031  1F                 	db	31
   139  001032  1E                 	db	30
   140  001033  1F                 	db	31
   141  001034                     __end_of_DaysInMonthLeap:
   142                           	opt stack 0
   143  001034                     _DispNums:
   144                           	opt stack 0
   145  001034  84                 	db	132
   146  001035  F5                 	db	245
   147  001036  4C                 	db	76
   148  001037  64                 	db	100
   149  001038  35                 	db	53
   150  001039  26                 	db	38
   151  00103A  06                 	db	6
   152  00103B  F4                 	db	244
   153  00103C  04                 	db	4
   154  00103D  34                 	db	52
   155  00103E                     __end_of_DispNums:
   156                           	opt stack 0
   157  00103E  00                 	db	0	; dummy byte at the end
   158  0000                     
   159                           	psect	nvCOMRAM
   160  00004C                     __pnvCOMRAM:
   161                           	opt stack 0
   162  00004C                     _disp_LEDS:
   163                           	opt stack 0
   164  00004C                     	ds	1
   165  0000                     _ADCON1	set	4033
   166  0000                     _INTCON2bits	set	4081
   167  0000                     _INTCONbits	set	4082
   168  0000                     _IPR1bits	set	3999
   169  0000                     _LATAbits	set	3977
   170  0000                     _LATF	set	3982
   171  0000                     _LATHbits	set	3984
   172  0000                     _LATJbits	set	3985
   173  0000                     _PIE1bits	set	3997
   174  0000                     _PIR1bits	set	3998
   175  0000                     _PORTBbits	set	3969
   176  0000                     _PORTC	set	3970
   177  0000                     _PORTH	set	3975
   178  0000                     _PORTJbits	set	3976
   179  0000                     _RCONbits	set	4048
   180  0000                     _T0CON	set	4053
   181  0000                     _T0CONbits	set	4053
   182  0000                     _T1CON	set	4045
   183  0000                     _T1CONbits	set	4045
   184  0000                     _TMR0H	set	4055
   185  0000                     _TMR0L	set	4054
   186  0000                     _TMR1H	set	4047
   187  0000                     _TMR1L	set	4046
   188  0000                     _TRISA	set	3986
   189  0000                     _TRISB	set	3987
   190  0000                     _TRISC	set	3988
   191  0000                     _TRISF	set	3991
   192  0000                     _TRISH	set	3993
   193  0000                     _TRISJ	set	3994
   194                           
   195                           ; #config settings
   196  0000                     
   197                           	psect	cinit
   198  007256                     __pcinit:
   199                           	opt stack 0
   200  007256                     start_initialization:
   201                           	opt stack 0
   202  007256                     __initialization:
   203                           	opt stack 0
   204                           
   205                           ; Initialize objects allocated to COMRAM (2 bytes)
   206                           ; load TBLPTR registers with __pidataCOMRAM
   207  007256  0EEC               	movlw	low __pidataCOMRAM
   208  007258  6EF6               	movwf	tblptrl,c
   209  00725A  0E73               	movlw	high __pidataCOMRAM
   210  00725C  6EF7               	movwf	tblptrh,c
   211  00725E  0E00               	movlw	low (__pidataCOMRAM shr (0+16))
   212  007260  6EF8               	movwf	tblptru,c
   213  007262  0009               	tblrd		*+	;fetch initializer
   214  007264  CFF5 F04A          	movff	tablat,__pdataCOMRAM
   215  007268  0009               	tblrd		*+	;fetch initializer
   216  00726A  CFF5 F04B          	movff	tablat,__pdataCOMRAM+1
   217                           
   218                           ; Clear objects allocated to BANK0 (5 bytes)
   219  00726E  0100               	movlb	0
   220  007270  6B73               	clrf	(__pbssBANK0+4)& (0+255),b
   221  007272  6B72               	clrf	(__pbssBANK0+3)& (0+255),b
   222  007274  6B71               	clrf	(__pbssBANK0+2)& (0+255),b
   223  007276  6B70               	clrf	(__pbssBANK0+1)& (0+255),b
   224  007278  6B6F               	clrf	__pbssBANK0& (0+255),b
   225                           
   226                           ; Clear objects allocated to COMRAM (34 bytes)
   227  00727A  EE00  F028         	lfsr	0,__pbssCOMRAM
   228  00727E  0E22               	movlw	34
   229  007280                     clear_0:
   230  007280  6AEE               	clrf	postinc0,c
   231  007282  06E8               	decf	wreg,f,c
   232  007284  E1FD               	bnz	clear_0
   233  007286                     end_of_initialization:
   234                           	opt stack 0
   235  007286                     __end_of__initialization:
   236                           	opt stack 0
   237  007286  904D               	bcf	int$flags,0,c	;clear compiler interrupt flag (level 1)
   238  007288  924D               	bcf	int$flags,1,c	;clear compiler interrupt flag (level 2)
   239  00728A  0100               	movlb	0
   240  00728C  EFF6  F02F         	goto	_main	;jump to C main() function
   241                           tblptru	equ	0xFF8
   242                           tblptrh	equ	0xFF7
   243                           tblptrl	equ	0xFF6
   244                           tablat	equ	0xFF5
   245                           postinc0	equ	0xFEE
   246                           wreg	equ	0xFE8
   247                           
   248                           	psect	bssCOMRAM
   249  000028                     __pbssCOMRAM:
   250                           	opt stack 0
   251  000028                     _ms_count0:
   252                           	opt stack 0
   253  000028                     	ds	2
   254  00002A                     _ms_count1:
   255                           	opt stack 0
   256  00002A                     	ds	2
   257  00002C                     _ms_count2:
   258                           	opt stack 0
   259  00002C                     	ds	2
   260  00002E                     _ms_count3:
   261                           	opt stack 0
   262  00002E                     	ds	2
   263  000030                     _Alarm1On:
   264                           	opt stack 0
   265  000030                     	ds	1
   266  000031                     _Alarm2On:
   267                           	opt stack 0
   268  000031                     	ds	1
   269  000032                     _day_rollover:
   270                           	opt stack 0
   271  000032                     	ds	1
   272  000033                     _disp_U1:
   273                           	opt stack 0
   274  000033                     	ds	1
   275  000034                     _disp_U2:
   276                           	opt stack 0
   277  000034                     	ds	1
   278  000035                     _mins_rollover:
   279                           	opt stack 0
   280  000035                     	ds	1
   281  000036                     _Alarm2Date:
   282                           	opt stack 0
   283  000036                     	ds	5
   284  00003B                     _MainDate:
   285                           	opt stack 0
   286  00003B                     	ds	5
   287  000040                     _Alarm1Time:
   288                           	opt stack 0
   289  000040                     	ds	3
   290  000043                     _Alarm2Time:
   291                           	opt stack 0
   292  000043                     	ds	3
   293  000046                     _MainTime:
   294                           	opt stack 0
   295  000046                     	ds	3
   296  000049                     _disp_index:
   297                           	opt stack 0
   298  000049                     	ds	1
   299                           tblptru	equ	0xFF8
   300                           tblptrh	equ	0xFF7
   301                           tblptrl	equ	0xFF6
   302                           tablat	equ	0xFF5
   303                           postinc0	equ	0xFEE
   304                           wreg	equ	0xFE8
   305                           
   306                           	psect	dataCOMRAM
   307  00004A                     __pdataCOMRAM:
   308                           	opt stack 0
   309  00004A                     _dp_mask:
   310                           	opt stack 0
   311  00004A                     	ds	1
   312  00004B                     _multiplex_index:
   313                           	opt stack 0
   314  00004B                     	ds	1
   315                           tblptru	equ	0xFF8
   316                           tblptrh	equ	0xFF7
   317                           tblptrl	equ	0xFF6
   318                           tablat	equ	0xFF5
   319                           postinc0	equ	0xFEE
   320                           wreg	equ	0xFE8
   321                           
   322                           	psect	bssBANK0
   323  00006F                     __pbssBANK0:
   324                           	opt stack 0
   325  00006F                     _Alarm1Date:
   326                           	opt stack 0
   327  00006F                     	ds	5
   328                           tblptru	equ	0xFF8
   329                           tblptrh	equ	0xFF7
   330                           tblptrl	equ	0xFF6
   331                           tablat	equ	0xFF5
   332                           postinc0	equ	0xFEE
   333                           wreg	equ	0xFE8
   334                           
   335                           	psect	cstackBANK0
   336  000060                     __pcstackBANK0:
   337                           	opt stack 0
   338  000060                     ??_Delay10KTCYx:
   339  000060                     ?___awdiv:
   340                           	opt stack 0
   341  000060                     ?___awmod:
   342                           	opt stack 0
   343  000060                     ?___lwmod:
   344                           	opt stack 0
   345  000060                     Switches@temp:
   346                           	opt stack 0
   347  000060                     CalcTime@mins_temp:
   348                           	opt stack 0
   349  000060                     Delay10TCYx@unit:
   350                           	opt stack 0
   351  000060                     WriteTimer0@timer0:
   352                           	opt stack 0
   353  000060                     WriteTimer1@timer1:
   354                           	opt stack 0
   355  000060                     ___awdiv@dividend:
   356                           	opt stack 0
   357  000060                     ___awmod@dividend:
   358                           	opt stack 0
   359  000060                     ___lwmod@dividend:
   360                           	opt stack 0
   361  000060                     CompareTimes@mainTime:
   362                           	opt stack 0
   363                           
   364                           ; 3 bytes @ 0x0
   365  000060                     	ds	1
   366  000061                     Switches@temp2:
   367                           	opt stack 0
   368  000061                     Delay10KTCYx@unit:
   369                           	opt stack 0
   370                           
   371                           ; 1 bytes @ 0x1
   372  000061                     	ds	1
   373  000062                     Switches@temp1:
   374                           	opt stack 0
   375  000062                     SetSecs@ts:
   376                           	opt stack 0
   377  000062                     SetMins@tm:
   378                           	opt stack 0
   379  000062                     SetHrs@th:
   380                           	opt stack 0
   381  000062                     SetMonth@dm:
   382                           	opt stack 0
   383  000062                     SetYear@dy:
   384                           	opt stack 0
   385  000062                     WriteTimer0@timer:
   386                           	opt stack 0
   387  000062                     WriteTimer1@timer:
   388                           	opt stack 0
   389  000062                     ___awdiv@divisor:
   390                           	opt stack 0
   391  000062                     ___awmod@divisor:
   392                           	opt stack 0
   393  000062                     ___lwmod@divisor:
   394                           	opt stack 0
   395                           
   396                           ; 2 bytes @ 0x2
   397  000062                     	ds	1
   398  000063                     CompareTimes@mainDate:
   399                           	opt stack 0
   400                           
   401                           ; 2 bytes @ 0x3
   402  000063                     	ds	1
   403  000064                     ___awdiv@counter:
   404                           	opt stack 0
   405  000064                     ___awmod@counter:
   406                           	opt stack 0
   407  000064                     ___lwmod@counter:
   408                           	opt stack 0
   409                           
   410                           ; 1 bytes @ 0x4
   411  000064                     	ds	1
   412  000065                     ___awdiv@sign:
   413                           	opt stack 0
   414  000065                     ___awmod@sign:
   415                           	opt stack 0
   416  000065                     CalcLeapYear@year:
   417                           	opt stack 0
   418  000065                     CompareTimes@alarmTime:
   419                           	opt stack 0
   420                           
   421                           ; 2 bytes @ 0x5
   422  000065                     	ds	1
   423  000066                     ___awdiv@quotient:
   424                           	opt stack 0
   425                           
   426                           ; 2 bytes @ 0x6
   427  000066                     	ds	1
   428  000067                     ??_CalcLeapYear:
   429  000067                     CompareTimes@alarmDate:
   430                           	opt stack 0
   431                           
   432                           ; 2 bytes @ 0x7
   433  000067                     	ds	1
   434  000068                     Num2Disp@time:
   435                           	opt stack 0
   436                           
   437                           ; 2 bytes @ 0x8
   438  000068                     	ds	1
   439  000069                     CompareTimes@args:
   440                           	opt stack 0
   441  000069                     SetDay@dd:
   442                           	opt stack 0
   443                           
   444                           ; 2 bytes @ 0x9
   445  000069                     	ds	1
   446  00006A                     ??_Num2Disp:
   447                           
   448                           ; 1 bytes @ 0xA
   449  00006A                     	ds	1
   450  00006B                     ??_SetDay:
   451  00006B                     Num2Disp@tens:
   452                           	opt stack 0
   453                           
   454                           ; 1 bytes @ 0xB
   455  00006B                     	ds	1
   456  00006C                     Num2Disp@units:
   457                           	opt stack 0
   458                           
   459                           ; 1 bytes @ 0xC
   460  00006C                     	ds	1
   461  00006D                     ??_SetMenu:
   462  00006D                     CurrentDisplay@i:
   463                           	opt stack 0
   464                           
   465                           ; 2 bytes @ 0xD
   466  00006D                     	ds	2
   467  00006F                     tblptru	equ	0xFF8
   468                           tblptrh	equ	0xFF7
   469                           tblptrl	equ	0xFF6
   470                           tablat	equ	0xFF5
   471                           postinc0	equ	0xFEE
   472                           wreg	equ	0xFE8
   473                           
   474                           ; 1 bytes @ 0xF
   475                           
   476                           	psect	cstackCOMRAM
   477  000001                     __pcstackCOMRAM:
   478                           	opt stack 0
   479  000001                     i2WriteTimer1@timer1:
   480                           	opt stack 0
   481                           
   482                           ; 2 bytes @ 0x0
   483  000001                     	ds	2
   484  000003                     i2WriteTimer1@timer:
   485                           	opt stack 0
   486                           
   487                           ; 2 bytes @ 0x2
   488  000003                     	ds	2
   489  000005                     ??_hp_secs_count_isr:
   490                           
   491                           ; 1 bytes @ 0x4
   492  000005                     	ds	14
   493  000013                     i1WriteTimer0@timer0:
   494                           	opt stack 0
   495                           
   496                           ; 2 bytes @ 0x12
   497  000013                     	ds	2
   498  000015                     i1WriteTimer0@timer:
   499                           	opt stack 0
   500                           
   501                           ; 2 bytes @ 0x14
   502  000015                     	ds	2
   503  000017                     ??_lp_isr:
   504                           
   505                           ; 1 bytes @ 0x16
   506  000017                     	ds	17
   507                           tblptru	equ	0xFF8
   508                           tblptrh	equ	0xFF7
   509                           tblptrl	equ	0xFF6
   510                           tablat	equ	0xFF5
   511                           postinc0	equ	0xFEE
   512                           wreg	equ	0xFE8
   513                           
   514 ;;
   515 ;;Main: autosize = 0, tempsize = 0, incstack = 0, save=0
   516 ;;
   517 ;; *************** function _main *****************
   518 ;; Defined at:
   519 ;;		line 243 in file "mini-project-clock.c"
   520 ;; Parameters:    Size  Location     Type
   521 ;;		None
   522 ;; Auto vars:     Size  Location     Type
   523 ;;		None
   524 ;; Return value:  Size  Location     Type
   525 ;;                  1    wreg      void 
   526 ;; Registers used:
   527 ;;		wreg, fsr1l, fsr1h, fsr2l, fsr2h, status,2, status,0, tblptrl, tblptrh, tblptru, prodl, prodh, cstack
   528 ;; Tracked objects:
   529 ;;		On entry : 0/0
   530 ;;		On exit  : 0/0
   531 ;;		Unchanged: 0/0
   532 ;; Data sizes:     COMRAM   BANK0   BANK1   BANK2   BANK3   BANK4   BANK5   BANK6   BANK7   BANK8   BANK9  BANK10  BANK1
      +1  BANK12  BANK13  BANK14  BANK15
   533 ;;      Params:         0       0       0       0       0       0       0       0       0       0       0       0       
      +0       0       0       0       0
   534 ;;      Locals:         0       0       0       0       0       0       0       0       0       0       0       0       
      +0       0       0       0       0
   535 ;;      Temps:          0       0       0       0       0       0       0       0       0       0       0       0       
      +0       0       0       0       0
   536 ;;      Totals:         0       0       0       0       0       0       0       0       0       0       0       0       
      +0       0       0       0       0
   537 ;;Total ram usage:        0 bytes
   538 ;; Hardware stack levels required when called:    9
   539 ;; This function calls:
   540 ;;		_BootTest
   541 ;;		_CalcDate
   542 ;;		_CalcTime
   543 ;;		_CompareTimes
   544 ;;		_ConfigureIO
   545 ;;		_CurrentDisplay
   546 ;;		_Delay10KTCYx
   547 ;;		_PB1pressed
   548 ;;		_PB2pressed
   549 ;;		_SetMenu
   550 ;;		_SoundAlarm1
   551 ;;		_SoundAlarm2
   552 ;;		_StartTimer0
   553 ;;		_StartTimer1
   554 ;;		_Switches
   555 ;;		_WriteTimer0
   556 ;;		_WriteTimer1
   557 ;;		_enable_interrupts_all
   558 ;; This function is called by:
   559 ;;		Startup code after reset
   560 ;; This function uses a non-reentrant model
   561 ;;
   562                           
   563                           	psect	text0
   564  005FEC                     __ptext0:
   565                           	opt stack 0
   566  005FEC                     _main:
   567                           	opt stack 22
   568                           
   569                           ;mini-project-clock.c: 246: MainTime.hrs = 0;
   570                           
   571                           ;incstack = 0
   572  005FEC  0E00               	movlw	0
   573  005FEE  6E46               	movwf	_MainTime,c	;volatile
   574                           
   575                           ;mini-project-clock.c: 247: MainTime.mins = 0;
   576  005FF0  0E00               	movlw	0
   577  005FF2  6E47               	movwf	_MainTime+1,c	;volatile
   578                           
   579                           ;mini-project-clock.c: 248: MainTime.secs = 0;
   580  005FF4  0E00               	movlw	0
   581  005FF6  6E48               	movwf	_MainTime+2,c	;volatile
   582                           
   583                           ;mini-project-clock.c: 250: MainDate.day = 1;
   584  005FF8  0E01               	movlw	1
   585  005FFA  6E3B               	movwf	_MainDate,c	;volatile
   586                           
   587                           ;mini-project-clock.c: 251: MainDate.month = 1;
   588  005FFC  0E01               	movlw	1
   589  005FFE  6E3C               	movwf	_MainDate+1,c	;volatile
   590                           
   591                           ;mini-project-clock.c: 252: MainDate.year_short = 16;
   592  006000  0E10               	movlw	16
   593  006002  6E3D               	movwf	_MainDate+2,c	;volatile
   594                           
   595                           ;mini-project-clock.c: 253: MainDate.year_long = 2016;
   596  006004  0E07               	movlw	7
   597  006006  6E3F               	movwf	_MainDate+4,c	;volatile
   598  006008  0EE0               	movlw	224
   599  00600A  6E3E               	movwf	_MainDate+3,c	;volatile
   600                           
   601                           ;mini-project-clock.c: 255: Alarm1Time.hrs = 0;
   602  00600C  0E00               	movlw	0
   603  00600E  6E40               	movwf	_Alarm1Time,c	;volatile
   604                           
   605                           ;mini-project-clock.c: 256: Alarm1Time.mins = 0;
   606  006010  0E00               	movlw	0
   607  006012  6E41               	movwf	_Alarm1Time+1,c	;volatile
   608                           
   609                           ;mini-project-clock.c: 257: Alarm1Time.secs = 0;
   610  006014  0E00               	movlw	0
   611  006016  6E42               	movwf	_Alarm1Time+2,c	;volatile
   612                           
   613                           ;mini-project-clock.c: 259: Alarm1Date.day = 0;
   614  006018  0E00               	movlw	0
   615  00601A  0100               	movlb	0	; () banked
   616  00601C  6F6F               	movwf	_Alarm1Date& (0+255),b	;volatile
   617                           
   618                           ;mini-project-clock.c: 260: Alarm1Date.month = 0;
   619  00601E  0E00               	movlw	0
   620  006020  0100               	movlb	0	; () banked
   621  006022  6F70               	movwf	(_Alarm1Date+1)& (0+255),b	;volatile
   622                           
   623                           ;mini-project-clock.c: 261: Alarm1Date.year_long = 0;
   624  006024  0E00               	movlw	0
   625  006026  0100               	movlb	0	; () banked
   626  006028  6F73               	movwf	(_Alarm1Date+4)& (0+255),b	;volatile
   627  00602A  0E00               	movlw	0
   628  00602C  6F72               	movwf	(_Alarm1Date+3)& (0+255),b	;volatile
   629                           
   630                           ;mini-project-clock.c: 262: Alarm1Date.year_short = 0;
   631  00602E  0E00               	movlw	0
   632  006030  0100               	movlb	0	; () banked
   633  006032  6F71               	movwf	(_Alarm1Date+2)& (0+255),b	;volatile
   634                           
   635                           ;mini-project-clock.c: 264: Alarm2Time.hrs = 0;
   636  006034  0E00               	movlw	0
   637  006036  6E43               	movwf	_Alarm2Time,c	;volatile
   638                           
   639                           ;mini-project-clock.c: 265: Alarm2Time.mins = 0;
   640  006038  0E00               	movlw	0
   641  00603A  6E44               	movwf	_Alarm2Time+1,c	;volatile
   642                           
   643                           ;mini-project-clock.c: 266: Alarm2Time.secs = 0;
   644  00603C  0E00               	movlw	0
   645  00603E  6E45               	movwf	_Alarm2Time+2,c	;volatile
   646                           
   647                           ;mini-project-clock.c: 268: Alarm2Date.day = 1;
   648  006040  0E01               	movlw	1
   649  006042  6E36               	movwf	_Alarm2Date,c	;volatile
   650                           
   651                           ;mini-project-clock.c: 269: Alarm2Date.month = 1;
   652  006044  0E01               	movlw	1
   653  006046  6E37               	movwf	_Alarm2Date+1,c	;volatile
   654                           
   655                           ;mini-project-clock.c: 270: Alarm2Date.year_long = 2016;
   656  006048  0E07               	movlw	7
   657  00604A  6E3A               	movwf	_Alarm2Date+4,c	;volatile
   658  00604C  0EE0               	movlw	224
   659  00604E  6E39               	movwf	_Alarm2Date+3,c	;volatile
   660                           
   661                           ;mini-project-clock.c: 271: Alarm2Date.year_short = 16;
   662  006050  0E10               	movlw	16
   663  006052  6E38               	movwf	_Alarm2Date+2,c	;volatile
   664                           
   665                           ; BSR set to: 0
   666                           ;mini-project-clock.c: 273: ConfigureIO();
   667  006054  EC96  F039         	call	_ConfigureIO	;wreg free
   668                           
   669                           ;mini-project-clock.c: 275: StartTimer0();
   670  006058  ECAE  F039         	call	_StartTimer0	;wreg free
   671                           
   672                           ;mini-project-clock.c: 276: WriteTimer0(63036);
   673  00605C  0EF6               	movlw	246
   674  00605E  0100               	movlb	0	; () banked
   675  006060  6F61               	movwf	(WriteTimer0@timer0+1)& (0+255),b
   676  006062  0E3C               	movlw	60
   677  006064  6F60               	movwf	WriteTimer0@timer0& (0+255),b
   678  006066  ECD7  F039         	call	_WriteTimer0	;wreg free
   679                           
   680                           ;mini-project-clock.c: 278: enable_interrupts_all();
   681  00606A  ECF2  F039         	call	_enable_interrupts_all	;wreg free
   682                           
   683                           ;mini-project-clock.c: 280: BootTest();
   684  00606E  ECEB  F038         	call	_BootTest	;wreg free
   685                           
   686                           ;mini-project-clock.c: 282: StartTimer1();
   687  006072  ECA3  F039         	call	_StartTimer1	;wreg free
   688                           
   689                           ;mini-project-clock.c: 283: WriteTimer1(32768);
   690  006076  0E80               	movlw	128
   691  006078  0100               	movlb	0	; () banked
   692  00607A  6F61               	movwf	(WriteTimer1@timer1+1)& (0+255),b
   693  00607C  0E00               	movlw	0
   694  00607E  6F60               	movwf	WriteTimer1@timer1& (0+255),b
   695  006080  ECCE  F039         	call	_WriteTimer1	;wreg free
   696  006084                     l16490:
   697                           
   698                           ;mini-project-clock.c: 288: if (mins_rollover >= 1) {
   699  006084  5035               	movf	_mins_rollover,w,c	;volatile
   700  006086  A4D8               	btfss	status,2,c
   701                           
   702                           ;mini-project-clock.c: 289: CalcTime();
   703  006088  EC0D  F039         	call	_CalcTime	;wreg free
   704                           
   705                           ;mini-project-clock.c: 290: }
   706                           ;mini-project-clock.c: 291: if (day_rollover == 1) {
   707  00608C  0432               	decf	_day_rollover,w,c	;volatile
   708  00608E  B4D8               	btfsc	status,2,c
   709                           
   710                           ;mini-project-clock.c: 292: CalcDate();
   711  006090  ECA5  F035         	call	_CalcDate	;wreg free
   712                           
   713                           ;mini-project-clock.c: 293: }
   714                           ;mini-project-clock.c: 295: if (ms_count0 >= 3000) {
   715  006094  0EB8               	movlw	184
   716  006096  5C28               	subwf	_ms_count0,w,c	;volatile
   717  006098  0E0B               	movlw	11
   718  00609A  5829               	subwfb	_ms_count0+1,w,c	;volatile
   719  00609C  A0D8               	btfss	status,0,c
   720  00609E  D00B               	goto	l16508
   721                           
   722                           ;mini-project-clock.c: 296: ms_count0 = 0;
   723  0060A0  0E00               	movlw	0
   724  0060A2  6E29               	movwf	_ms_count0+1,c	;volatile
   725  0060A4  0E00               	movlw	0
   726  0060A6  6E28               	movwf	_ms_count0,c	;volatile
   727                           
   728                           ;mini-project-clock.c: 297: if (disp_index < 5) {
   729  0060A8  0E05               	movlw	5
   730  0060AA  6049               	cpfslt	_disp_index,c
   731  0060AC  D002               	goto	l16506
   732                           
   733                           ;mini-project-clock.c: 298: disp_index++;
   734  0060AE  2A49               	incf	_disp_index,f,c
   735                           
   736                           ;mini-project-clock.c: 299: } else {
   737  0060B0  D002               	goto	l16508
   738  0060B2                     l16506:
   739                           
   740                           ;mini-project-clock.c: 300: disp_index = 0;
   741  0060B2  0E00               	movlw	0
   742  0060B4  6E49               	movwf	_disp_index,c
   743  0060B6                     l16508:
   744                           
   745                           ;mini-project-clock.c: 301: }
   746                           ;mini-project-clock.c: 302: }
   747                           ;mini-project-clock.c: 304: if (PB1pressed() == 1) {
   748  0060B6  EC74  F039         	call	_PB1pressed	;wreg free
   749  0060BA  06E8               	decf	wreg,f,c
   750  0060BC  A4D8               	btfss	status,2,c
   751  0060BE  D013               	goto	l16522
   752                           
   753                           ;mini-project-clock.c: 305: Delay10KTCYx(25);
   754  0060C0  0E19               	movlw	25
   755  0060C2  EC88  F039         	call	_Delay10KTCYx
   756                           
   757                           ;mini-project-clock.c: 306: if (PB1pressed() == 1) {
   758  0060C6  EC74  F039         	call	_PB1pressed	;wreg free
   759  0060CA  06E8               	decf	wreg,f,c
   760  0060CC  A4D8               	btfss	status,2,c
   761  0060CE  D00B               	goto	l16522
   762                           
   763                           ;mini-project-clock.c: 307: ms_count0 = 0;
   764  0060D0  0E00               	movlw	0
   765  0060D2  6E29               	movwf	_ms_count0+1,c	;volatile
   766  0060D4  0E00               	movlw	0
   767  0060D6  6E28               	movwf	_ms_count0,c	;volatile
   768                           
   769                           ;mini-project-clock.c: 308: if (disp_index < 5) {
   770  0060D8  0E05               	movlw	5
   771  0060DA  6049               	cpfslt	_disp_index,c
   772  0060DC  D002               	goto	l16520
   773                           
   774                           ;mini-project-clock.c: 309: disp_index++;
   775  0060DE  2A49               	incf	_disp_index,f,c
   776                           
   777                           ;mini-project-clock.c: 310: } else {
   778  0060E0  D002               	goto	l16522
   779  0060E2                     l16520:
   780                           
   781                           ;mini-project-clock.c: 311: disp_index = 0;
   782  0060E2  0E00               	movlw	0
   783  0060E4  6E49               	movwf	_disp_index,c
   784  0060E6                     l16522:
   785                           
   786                           ;mini-project-clock.c: 312: }
   787                           ;mini-project-clock.c: 313: }
   788                           ;mini-project-clock.c: 314: }
   789                           ;mini-project-clock.c: 316: if (PB2pressed() == 1) {
   790  0060E6  EC60  F039         	call	_PB2pressed	;wreg free
   791  0060EA  06E8               	decf	wreg,f,c
   792  0060EC  A4D8               	btfss	status,2,c
   793  0060EE  D013               	goto	l16534
   794                           
   795                           ;mini-project-clock.c: 317: Delay10KTCYx(25);
   796  0060F0  0E19               	movlw	25
   797  0060F2  EC88  F039         	call	_Delay10KTCYx
   798                           
   799                           ;mini-project-clock.c: 318: if (PB2pressed() == 1) {
   800  0060F6  EC60  F039         	call	_PB2pressed	;wreg free
   801  0060FA  06E8               	decf	wreg,f,c
   802  0060FC  A4D8               	btfss	status,2,c
   803  0060FE  D00B               	goto	l16534
   804                           
   805                           ;mini-project-clock.c: 319: ms_count0 = 0;
   806  006100  0E00               	movlw	0
   807  006102  6E29               	movwf	_ms_count0+1,c	;volatile
   808  006104  0E00               	movlw	0
   809  006106  6E28               	movwf	_ms_count0,c	;volatile
   810                           
   811                           ;mini-project-clock.c: 320: if (disp_index > 0) {
   812  006108  5049               	movf	_disp_index,w,c
   813  00610A  B4D8               	btfsc	status,2,c
   814  00610C  D002               	goto	l16532
   815                           
   816                           ;mini-project-clock.c: 321: disp_index--;
   817  00610E  0649               	decf	_disp_index,f,c
   818                           
   819                           ;mini-project-clock.c: 322: } else {
   820  006110  D002               	goto	l16534
   821  006112                     l16532:
   822                           
   823                           ;mini-project-clock.c: 323: disp_index = 5;
   824  006112  0E05               	movlw	5
   825  006114  6E49               	movwf	_disp_index,c
   826  006116                     l16534:
   827                           
   828                           ;mini-project-clock.c: 324: }
   829                           ;mini-project-clock.c: 325: }
   830                           ;mini-project-clock.c: 326: }
   831                           ;mini-project-clock.c: 328: CurrentDisplay(&disp_index);
   832  006116  0E49               	movlw	low _disp_index
   833  006118  0100               	movlb	0	; () banked
   834  00611A  6F6D               	movwf	CurrentDisplay@i& (0+255),b
   835  00611C  0E00               	movlw	high _disp_index
   836  00611E  0100               	movlb	0	; () banked
   837  006120  6F6E               	movwf	(CurrentDisplay@i+1)& (0+255),b
   838  006122  ECD5  F032         	call	_CurrentDisplay	;wreg free
   839                           
   840                           ;mini-project-clock.c: 330: if (Switches() != 0x00) {
   841  006126  EC48  F039         	call	_Switches	;wreg free
   842  00612A  0900               	iorlw	0
   843  00612C  A4D8               	btfss	status,2,c
   844                           
   845                           ;mini-project-clock.c: 331: SetMenu();
   846  00612E  ECB4  F02D         	call	_SetMenu	;wreg free
   847                           
   848                           ;mini-project-clock.c: 332: }
   849                           ;mini-project-clock.c: 334: if (ms_count2 >= 50) {
   850  006132  502D               	movf	_ms_count2+1,w,c	;volatile
   851  006134  E104               	bnz	u37810
   852  006136  0E32               	movlw	50
   853  006138  5C2C               	subwf	_ms_count2,w,c	;volatile
   854  00613A  A0D8               	btfss	status,0,c
   855  00613C  D7A3               	goto	l16490
   856  00613E                     u37810:
   857                           
   858                           ;mini-project-clock.c: 335: if((CompareTimes(MainTime, &MainDate, &Alarm1Time, &Alarm1Da
      +                          te, 1) && Alarm1On) == 1) {
   859  00613E  C046  F060         	movff	_MainTime,CompareTimes@mainTime	;volatile
   860  006142  C047  F061         	movff	_MainTime+1,CompareTimes@mainTime+1	;volatile
   861  006146  C048  F062         	movff	_MainTime+2,CompareTimes@mainTime+2	;volatile
   862  00614A  0E3B               	movlw	low _MainDate
   863  00614C  0100               	movlb	0	; () banked
   864  00614E  6F63               	movwf	CompareTimes@mainDate& (0+255),b
   865  006150  0E00               	movlw	high _MainDate
   866  006152  0100               	movlb	0	; () banked
   867  006154  6F64               	movwf	(CompareTimes@mainDate+1)& (0+255),b
   868  006156  0E40               	movlw	low _Alarm1Time
   869  006158  0100               	movlb	0	; () banked
   870  00615A  6F65               	movwf	CompareTimes@alarmTime& (0+255),b
   871  00615C  0E00               	movlw	high _Alarm1Time
   872  00615E  0100               	movlb	0	; () banked
   873  006160  6F66               	movwf	(CompareTimes@alarmTime+1)& (0+255),b
   874  006162  0E6F               	movlw	low _Alarm1Date
   875  006164  0100               	movlb	0	; () banked
   876  006166  6F67               	movwf	CompareTimes@alarmDate& (0+255),b
   877  006168  0E00               	movlw	high _Alarm1Date
   878  00616A  0100               	movlb	0	; () banked
   879  00616C  6F68               	movwf	(CompareTimes@alarmDate+1)& (0+255),b
   880  00616E  0E01               	movlw	1
   881  006170  0100               	movlb	0	; () banked
   882  006172  6F69               	movwf	CompareTimes@args& (0+255),b
   883  006174  EC51  F032         	call	_CompareTimes	;wreg free
   884  006178  0900               	iorlw	0
   885  00617A  B4D8               	btfsc	status,2,c
   886  00617C  D004               	goto	l16548
   887  00617E  5030               	movf	_Alarm1On,w,c
   888  006180  A4D8               	btfss	status,2,c
   889                           
   890                           ;mini-project-clock.c: 336: SoundAlarm1();
   891  006182  EC20  F008         	call	_SoundAlarm1	;wreg free
   892  006186                     l16548:
   893                           
   894                           ;mini-project-clock.c: 338: }
   895                           ;mini-project-clock.c: 339: if((CompareTimes(MainTime, &MainDate, &Alarm2Time, &Alarm2Da
      +                          te, 2) && Alarm2On) == 1) {
   896  006186  C046  F060         	movff	_MainTime,CompareTimes@mainTime	;volatile
   897  00618A  C047  F061         	movff	_MainTime+1,CompareTimes@mainTime+1	;volatile
   898  00618E  C048  F062         	movff	_MainTime+2,CompareTimes@mainTime+2	;volatile
   899  006192  0E3B               	movlw	low _MainDate
   900  006194  0100               	movlb	0	; () banked
   901  006196  6F63               	movwf	CompareTimes@mainDate& (0+255),b
   902  006198  0E00               	movlw	high _MainDate
   903  00619A  0100               	movlb	0	; () banked
   904  00619C  6F64               	movwf	(CompareTimes@mainDate+1)& (0+255),b
   905  00619E  0E43               	movlw	low _Alarm2Time
   906  0061A0  0100               	movlb	0	; () banked
   907  0061A2  6F65               	movwf	CompareTimes@alarmTime& (0+255),b
   908  0061A4  0E00               	movlw	high _Alarm2Time
   909  0061A6  0100               	movlb	0	; () banked
   910  0061A8  6F66               	movwf	(CompareTimes@alarmTime+1)& (0+255),b
   911  0061AA  0E36               	movlw	low _Alarm2Date
   912  0061AC  0100               	movlb	0	; () banked
   913  0061AE  6F67               	movwf	CompareTimes@alarmDate& (0+255),b
   914  0061B0  0E00               	movlw	high _Alarm2Date
   915  0061B2  0100               	movlb	0	; () banked
   916  0061B4  6F68               	movwf	(CompareTimes@alarmDate+1)& (0+255),b
   917  0061B6  0E02               	movlw	2
   918  0061B8  0100               	movlb	0	; () banked
   919  0061BA  6F69               	movwf	CompareTimes@args& (0+255),b
   920  0061BC  EC51  F032         	call	_CompareTimes	;wreg free
   921  0061C0  0900               	iorlw	0
   922  0061C2  B4D8               	btfsc	status,2,c
   923  0061C4  D004               	goto	l16554
   924  0061C6  5031               	movf	_Alarm2On,w,c
   925  0061C8  A4D8               	btfss	status,2,c
   926                           
   927                           ;mini-project-clock.c: 340: SoundAlarm2();
   928  0061CA  EC32  F01C         	call	_SoundAlarm2	;wreg free
   929  0061CE                     l16554:
   930                           
   931                           ;mini-project-clock.c: 341: }
   932                           ;mini-project-clock.c: 342: ms_count2 = 0;
   933  0061CE  0E00               	movlw	0
   934  0061D0  6E2D               	movwf	_ms_count2+1,c	;volatile
   935  0061D2  0E00               	movlw	0
   936  0061D4  6E2C               	movwf	_ms_count2,c	;volatile
   937  0061D6  D756               	goto	l16490
   938  0061D8                     __end_of_main:
   939                           	opt stack 0
   940                           tblptru	equ	0xFF8
   941                           tblptrh	equ	0xFF7
   942                           tblptrl	equ	0xFF6
   943                           tablat	equ	0xFF5
   944                           postinc0	equ	0xFEE
   945                           wreg	equ	0xFE8
   946                           status	equ	0xFD8
   947                           
   948 ;; *************** function _enable_interrupts_all *****************
   949 ;; Defined at:
   950 ;;		line 408 in file "mini-project-clock.c"
   951 ;; Parameters:    Size  Location     Type
   952 ;;		None
   953 ;; Auto vars:     Size  Location     Type
   954 ;;		None
   955 ;; Return value:  Size  Location     Type
   956 ;;                  1    wreg      void 
   957 ;; Registers used:
   958 ;;		None
   959 ;; Tracked objects:
   960 ;;		On entry : 0/0
   961 ;;		On exit  : 0/0
   962 ;;		Unchanged: 0/0
   963 ;; Data sizes:     COMRAM   BANK0   BANK1   BANK2   BANK3   BANK4   BANK5   BANK6   BANK7   BANK8   BANK9  BANK10  BANK1
      +1  BANK12  BANK13  BANK14  BANK15
   964 ;;      Params:         0       0       0       0       0       0       0       0       0       0       0       0       
      +0       0       0       0       0
   965 ;;      Locals:         0       0       0       0       0       0       0       0       0       0       0       0       
      +0       0       0       0       0
   966 ;;      Temps:          0       0       0       0       0       0       0       0       0       0       0       0       
      +0       0       0       0       0
   967 ;;      Totals:         0       0       0       0       0       0       0       0       0       0       0       0       
      +0       0       0       0       0
   968 ;;Total ram usage:        0 bytes
   969 ;; Hardware stack levels used:    1
   970 ;; Hardware stack levels required when called:    4
   971 ;; This function calls:
   972 ;;		Nothing
   973 ;; This function is called by:
   974 ;;		_main
   975 ;; This function uses a non-reentrant model
   976 ;;
   977                           
   978                           	psect	text1
   979  0073E4                     __ptext1:
   980                           	opt stack 0
   981  0073E4                     _enable_interrupts_all:
   982                           	opt stack 26
   983                           
   984                           ;mini-project-clock.c: 409: RCONbits.IPEN = 1;
   985                           
   986                           ;incstack = 0
   987  0073E4  8ED0               	bsf	4048,7,c	;volatile
   988                           
   989                           ;mini-project-clock.c: 410: INTCONbits.PEIE = 1;
   990  0073E6  8CF2               	bsf	intcon,6,c	;volatile
   991                           
   992                           ;mini-project-clock.c: 411: INTCONbits.GIE = 1;
   993  0073E8  8EF2               	bsf	intcon,7,c	;volatile
   994  0073EA  0012               	return		;funcret
   995  0073EC                     __end_of_enable_interrupts_all:
   996                           	opt stack 0
   997                           tblptru	equ	0xFF8
   998                           tblptrh	equ	0xFF7
   999                           tblptrl	equ	0xFF6
  1000                           tablat	equ	0xFF5
  1001                           intcon	equ	0xFF2
  1002                           postinc0	equ	0xFEE
  1003                           wreg	equ	0xFE8
  1004                           status	equ	0xFD8
  1005                           
  1006 ;; *************** function _WriteTimer1 *****************
  1007 ;; Defined at:
  1008 ;;		line 14 in file "C:\Program Files (x86)\Microchip\xc8\v1.38\sources\pic18\plib\Timers\t1write.c"
  1009 ;; Parameters:    Size  Location     Type
  1010 ;;  timer1          2    0[BANK0 ] unsigned int 
  1011 ;; Auto vars:     Size  Location     Type
  1012 ;;  timer           2    2[BANK0 ] struct Timers
  1013 ;; Return value:  Size  Location     Type
  1014 ;;                  1    wreg      void 
  1015 ;; Registers used:
  1016 ;;		None
  1017 ;; Tracked objects:
  1018 ;;		On entry : 0/0
  1019 ;;		On exit  : 0/0
  1020 ;;		Unchanged: 0/0
  1021 ;; Data sizes:     COMRAM   BANK0   BANK1   BANK2   BANK3   BANK4   BANK5   BANK6   BANK7   BANK8   BANK9  BANK10  BANK1
      +1  BANK12  BANK13  BANK14  BANK15
  1022 ;;      Params:         0       2       0       0       0       0       0       0       0       0       0       0       
      +0       0       0       0       0
  1023 ;;      Locals:         0       2       0       0       0       0       0       0       0       0       0       0       
      +0       0       0       0       0
  1024 ;;      Temps:          0       0       0       0       0       0       0       0       0       0       0       0       
      +0       0       0       0       0
  1025 ;;      Totals:         0       4       0       0       0       0       0       0       0       0       0       0       
      +0       0       0       0       0
  1026 ;;Total ram usage:        4 bytes
  1027 ;; Hardware stack levels used:    1
  1028 ;; Hardware stack levels required when called:    4
  1029 ;; This function calls:
  1030 ;;		Nothing
  1031 ;; This function is called by:
  1032 ;;		_main
  1033 ;; This function uses a non-reentrant model
  1034 ;;
  1035                           
  1036                           	psect	text2
  1037  00739C                     __ptext2:
  1038                           	opt stack 0
  1039  00739C                     _WriteTimer1:
  1040                           	opt stack 26
  1041                           
  1042                           ;incstack = 0
  1043  00739C  C060  F062         	movff	WriteTimer1@timer1,WriteTimer1@timer
  1044  0073A0  C061  F063         	movff	WriteTimer1@timer1+1,WriteTimer1@timer+1
  1045  0073A4  C063  FFCF         	movff	WriteTimer1@timer+1,4047	;volatile
  1046  0073A8  C062  FFCE         	movff	WriteTimer1@timer,4046	;volatile
  1047  0073AC  0012               	return		;funcret
  1048  0073AE                     __end_of_WriteTimer1:
  1049                           	opt stack 0
  1050                           tblptru	equ	0xFF8
  1051                           tblptrh	equ	0xFF7
  1052                           tblptrl	equ	0xFF6
  1053                           tablat	equ	0xFF5
  1054                           intcon	equ	0xFF2
  1055                           postinc0	equ	0xFEE
  1056                           wreg	equ	0xFE8
  1057                           status	equ	0xFD8
  1058                           
  1059 ;; *************** function _WriteTimer0 *****************
  1060 ;; Defined at:
  1061 ;;		line 16 in file "C:\Program Files (x86)\Microchip\xc8\v1.38\sources\pic18\plib\Timers\t0write.c"
  1062 ;; Parameters:    Size  Location     Type
  1063 ;;  timer0          2    0[BANK0 ] unsigned int 
  1064 ;; Auto vars:     Size  Location     Type
  1065 ;;  timer           2    2[BANK0 ] struct Timers
  1066 ;; Return value:  Size  Location     Type
  1067 ;;                  1    wreg      void 
  1068 ;; Registers used:
  1069 ;;		None
  1070 ;; Tracked objects:
  1071 ;;		On entry : 0/0
  1072 ;;		On exit  : 0/0
  1073 ;;		Unchanged: 0/0
  1074 ;; Data sizes:     COMRAM   BANK0   BANK1   BANK2   BANK3   BANK4   BANK5   BANK6   BANK7   BANK8   BANK9  BANK10  BANK1
      +1  BANK12  BANK13  BANK14  BANK15
  1075 ;;      Params:         0       2       0       0       0       0       0       0       0       0       0       0       
      +0       0       0       0       0
  1076 ;;      Locals:         0       2       0       0       0       0       0       0       0       0       0       0       
      +0       0       0       0       0
  1077 ;;      Temps:          0       0       0       0       0       0       0       0       0       0       0       0       
      +0       0       0       0       0
  1078 ;;      Totals:         0       4       0       0       0       0       0       0       0       0       0       0       
      +0       0       0       0       0
  1079 ;;Total ram usage:        4 bytes
  1080 ;; Hardware stack levels used:    1
  1081 ;; Hardware stack levels required when called:    4
  1082 ;; This function calls:
  1083 ;;		Nothing
  1084 ;; This function is called by:
  1085 ;;		_main
  1086 ;; This function uses a non-reentrant model
  1087 ;;
  1088                           
  1089                           	psect	text3
  1090  0073AE                     __ptext3:
  1091                           	opt stack 0
  1092  0073AE                     _WriteTimer0:
  1093                           	opt stack 26
  1094                           
  1095                           ;incstack = 0
  1096  0073AE  C060  F062         	movff	WriteTimer0@timer0,WriteTimer0@timer
  1097  0073B2  C061  F063         	movff	WriteTimer0@timer0+1,WriteTimer0@timer+1
  1098  0073B6  C063  FFD7         	movff	WriteTimer0@timer+1,4055	;volatile
  1099  0073BA  C062  FFD6         	movff	WriteTimer0@timer,4054	;volatile
  1100  0073BE  0012               	return		;funcret
  1101  0073C0                     __end_of_WriteTimer0:
  1102                           	opt stack 0
  1103                           tblptru	equ	0xFF8
  1104                           tblptrh	equ	0xFF7
  1105                           tblptrl	equ	0xFF6
  1106                           tablat	equ	0xFF5
  1107                           intcon	equ	0xFF2
  1108                           postinc0	equ	0xFEE
  1109                           wreg	equ	0xFE8
  1110                           status	equ	0xFD8
  1111                           
  1112 ;; *************** function _StartTimer1 *****************
  1113 ;; Defined at:
  1114 ;;		line 429 in file "mini-project-clock.c"
  1115 ;; Parameters:    Size  Location     Type
  1116 ;;		None
  1117 ;; Auto vars:     Size  Location     Type
  1118 ;;		None
  1119 ;; Return value:  Size  Location     Type
  1120 ;;                  1    wreg      void 
  1121 ;; Registers used:
  1122 ;;		wreg, status,2
  1123 ;; Tracked objects:
  1124 ;;		On entry : 0/0
  1125 ;;		On exit  : 0/0
  1126 ;;		Unchanged: 0/0
  1127 ;; Data sizes:     COMRAM   BANK0   BANK1   BANK2   BANK3   BANK4   BANK5   BANK6   BANK7   BANK8   BANK9  BANK10  BANK1
      +1  BANK12  BANK13  BANK14  BANK15
  1128 ;;      Params:         0       0       0       0       0       0       0       0       0       0       0       0       
      +0       0       0       0       0
  1129 ;;      Locals:         0       0       0       0       0       0       0       0       0       0       0       0       
      +0       0       0       0       0
  1130 ;;      Temps:          0       0       0       0       0       0       0       0       0       0       0       0       
      +0       0       0       0       0
  1131 ;;      Totals:         0       0       0       0       0       0       0       0       0       0       0       0       
      +0       0       0       0       0
  1132 ;;Total ram usage:        0 bytes
  1133 ;; Hardware stack levels used:    1
  1134 ;; Hardware stack levels required when called:    4
  1135 ;; This function calls:
  1136 ;;		Nothing
  1137 ;; This function is called by:
  1138 ;;		_main
  1139 ;; This function uses a non-reentrant model
  1140 ;;
  1141                           
  1142                           	psect	text4
  1143  007346                     __ptext4:
  1144                           	opt stack 0
  1145  007346                     _StartTimer1:
  1146                           	opt stack 26
  1147                           
  1148                           ;mini-project-clock.c: 430: T1CON = 0x8A;
  1149                           
  1150                           ;incstack = 0
  1151  007346  0E8A               	movlw	138
  1152  007348  6ECD               	movwf	4045,c	;volatile
  1153                           
  1154                           ;mini-project-clock.c: 431: TMR1H = 0;
  1155  00734A  0E00               	movlw	0
  1156  00734C  6ECF               	movwf	4047,c	;volatile
  1157                           
  1158                           ;mini-project-clock.c: 432: TMR1L = 0;
  1159  00734E  0E00               	movlw	0
  1160  007350  6ECE               	movwf	4046,c	;volatile
  1161                           
  1162                           ;mini-project-clock.c: 433: PIR1bits.TMR1IF = 0;
  1163  007352  909E               	bcf	3998,0,c	;volatile
  1164                           
  1165                           ;mini-project-clock.c: 434: PIE1bits.TMR1IE = 1;
  1166  007354  809D               	bsf	3997,0,c	;volatile
  1167                           
  1168                           ;mini-project-clock.c: 435: IPR1bits.TMR1IP = 1;
  1169  007356  809F               	bsf	3999,0,c	;volatile
  1170                           
  1171                           ;mini-project-clock.c: 436: T1CONbits.TMR1ON = 1;
  1172  007358  80CD               	bsf	4045,0,c	;volatile
  1173  00735A  0012               	return		;funcret
  1174  00735C                     __end_of_StartTimer1:
  1175                           	opt stack 0
  1176                           tblptru	equ	0xFF8
  1177                           tblptrh	equ	0xFF7
  1178                           tblptrl	equ	0xFF6
  1179                           tablat	equ	0xFF5
  1180                           intcon	equ	0xFF2
  1181                           postinc0	equ	0xFEE
  1182                           wreg	equ	0xFE8
  1183                           status	equ	0xFD8
  1184                           
  1185 ;; *************** function _StartTimer0 *****************
  1186 ;; Defined at:
  1187 ;;		line 419 in file "mini-project-clock.c"
  1188 ;; Parameters:    Size  Location     Type
  1189 ;;		None
  1190 ;; Auto vars:     Size  Location     Type
  1191 ;;		None
  1192 ;; Return value:  Size  Location     Type
  1193 ;;                  1    wreg      void 
  1194 ;; Registers used:
  1195 ;;		wreg, status,2
  1196 ;; Tracked objects:
  1197 ;;		On entry : 0/0
  1198 ;;		On exit  : 0/0
  1199 ;;		Unchanged: 0/0
  1200 ;; Data sizes:     COMRAM   BANK0   BANK1   BANK2   BANK3   BANK4   BANK5   BANK6   BANK7   BANK8   BANK9  BANK10  BANK1
      +1  BANK12  BANK13  BANK14  BANK15
  1201 ;;      Params:         0       0       0       0       0       0       0       0       0       0       0       0       
      +0       0       0       0       0
  1202 ;;      Locals:         0       0       0       0       0       0       0       0       0       0       0       0       
      +0       0       0       0       0
  1203 ;;      Temps:          0       0       0       0       0       0       0       0       0       0       0       0       
      +0       0       0       0       0
  1204 ;;      Totals:         0       0       0       0       0       0       0       0       0       0       0       0       
      +0       0       0       0       0
  1205 ;;Total ram usage:        0 bytes
  1206 ;; Hardware stack levels used:    1
  1207 ;; Hardware stack levels required when called:    4
  1208 ;; This function calls:
  1209 ;;		Nothing
  1210 ;; This function is called by:
  1211 ;;		_main
  1212 ;; This function uses a non-reentrant model
  1213 ;;
  1214                           
  1215                           	psect	text5
  1216  00735C                     __ptext5:
  1217                           	opt stack 0
  1218  00735C                     _StartTimer0:
  1219                           	opt stack 26
  1220                           
  1221                           ;mini-project-clock.c: 420: T0CON = 0x08;
  1222                           
  1223                           ;incstack = 0
  1224  00735C  0E08               	movlw	8
  1225  00735E  6ED5               	movwf	4053,c	;volatile
  1226                           
  1227                           ;mini-project-clock.c: 421: TMR0H = 0;
  1228  007360  0E00               	movlw	0
  1229  007362  6ED7               	movwf	4055,c	;volatile
  1230                           
  1231                           ;mini-project-clock.c: 422: TMR0L = 0;
  1232  007364  0E00               	movlw	0
  1233  007366  6ED6               	movwf	4054,c	;volatile
  1234                           
  1235                           ;mini-project-clock.c: 423: INTCONbits.TMR0IF = 0;
  1236  007368  94F2               	bcf	intcon,2,c	;volatile
  1237                           
  1238                           ;mini-project-clock.c: 424: INTCONbits.TMR0IE = 1;
  1239  00736A  8AF2               	bsf	intcon,5,c	;volatile
  1240                           
  1241                           ;mini-project-clock.c: 425: INTCON2bits.TMR0IP = 0;
  1242  00736C  94F1               	bcf	intcon2,2,c	;volatile
  1243                           
  1244                           ;mini-project-clock.c: 426: T0CONbits.TMR0ON = 1;
  1245  00736E  8ED5               	bsf	4053,7,c	;volatile
  1246  007370  0012               	return		;funcret
  1247  007372                     __end_of_StartTimer0:
  1248                           	opt stack 0
  1249                           tblptru	equ	0xFF8
  1250                           tblptrh	equ	0xFF7
  1251                           tblptrl	equ	0xFF6
  1252                           tablat	equ	0xFF5
  1253                           intcon	equ	0xFF2
  1254                           intcon2	equ	0xFF1
  1255                           postinc0	equ	0xFEE
  1256                           wreg	equ	0xFE8
  1257                           status	equ	0xFD8
  1258                           
  1259 ;; *************** function _SoundAlarm2 *****************
  1260 ;; Defined at:
  1261 ;;		line 1286 in file "mini-project-clock.c"
  1262 ;; Parameters:    Size  Location     Type
  1263 ;;		None
  1264 ;; Auto vars:     Size  Location     Type
  1265 ;;		None
  1266 ;; Return value:  Size  Location     Type
  1267 ;;                  1    wreg      void 
  1268 ;; Registers used:
  1269 ;;		wreg, status,2, status,0, tblptrl, tblptrh, tblptru, cstack
  1270 ;; Tracked objects:
  1271 ;;		On entry : 0/0
  1272 ;;		On exit  : 0/0
  1273 ;;		Unchanged: 0/0
  1274 ;; Data sizes:     COMRAM   BANK0   BANK1   BANK2   BANK3   BANK4   BANK5   BANK6   BANK7   BANK8   BANK9  BANK10  BANK1
      +1  BANK12  BANK13  BANK14  BANK15
  1275 ;;      Params:         0       0       0       0       0       0       0       0       0       0       0       0       
      +0       0       0       0       0
  1276 ;;      Locals:         0       0       0       0       0       0       0       0       0       0       0       0       
      +0       0       0       0       0
  1277 ;;      Temps:          0       0       0       0       0       0       0       0       0       0       0       0       
      +0       0       0       0       0
  1278 ;;      Totals:         0       0       0       0       0       0       0       0       0       0       0       0       
      +0       0       0       0       0
  1279 ;;Total ram usage:        0 bytes
  1280 ;; Hardware stack levels used:    1
  1281 ;; Hardware stack levels required when called:    5
  1282 ;; This function calls:
  1283 ;;		_Delay10KTCYx
  1284 ;;		_Delay10TCYx
  1285 ;;		_PB1pressed
  1286 ;;		_PB2pressed
  1287 ;; This function is called by:
  1288 ;;		_main
  1289 ;; This function uses a non-reentrant model
  1290 ;;
  1291                           
  1292                           	psect	text6
  1293  003864                     __ptext6:
  1294                           	opt stack 0
  1295  003864                     _SoundAlarm2:
  1296                           	opt stack 25
  1297                           
  1298                           ;mini-project-clock.c: 1287: disp_U2 = DispChars.A;
  1299                           
  1300                           ;incstack = 0
  1301  003864  0E01               	movlw	low _DispChars
  1302  003866  6EF6               	movwf	tblptrl,c
  1303  003868                     	if	1	;There is more than 1 active tblptr byte
  1304  003868  0E10               	movlw	high _DispChars
  1305  00386A  6EF7               	movwf	tblptrh,c
  1306  00386C                     	endif
  1307  00386C                     	if	1	;There are 3 active tblptr bytes
  1308  00386C  0E00               	movlw	low (_DispChars shr (0+16))
  1309  00386E  6EF8               	movwf	tblptru,c
  1310  003870                     	endif
  1311  003870  0008               	tblrd		*
  1312  003872  CFF5 F034          	movff	tablat,_disp_U2	;volatile
  1313                           
  1314                           ;mini-project-clock.c: 1288: disp_U1 = DispNums[2];
  1315  003876  0E36               	movlw	low (_DispNums+2)
  1316  003878  6EF6               	movwf	tblptrl,c
  1317  00387A  0E10               	movlw	high (_DispNums+2)
  1318  00387C  6EF7               	movwf	tblptrh,c
  1319  00387E                     	if	0	;tblptru may be non-zero
  1320  00387E                     	endif
  1321  00387E                     	if	1	;Program memory is > 0xFFFF, there are 3 active tblptr bytes
  1322  00387E  0E00               	movlw	low (__mediumconst shr (0+16))
  1323  003880  6EF8               	movwf	tblptru,c
  1324  003882                     	endif
  1325  003882  0008               	tblrd		*
  1326  003884  CFF5 F033          	movff	tablat,_disp_U1	;volatile
  1327                           
  1328                           ;mini-project-clock.c: 1289: disp_LEDS = 0xFF;
  1329  003888  684C               	setf	_disp_LEDS,c	;volatile
  1330                           
  1331                           ;mini-project-clock.c: 1290: while (!PB2pressed() && !PB1pressed()) {
  1332  00388A  EF68  F02C         	goto	l16466
  1333  00388E                     l14974:
  1334                           
  1335                           ;mini-project-clock.c: 1291: ms_count3 = 0;
  1336  00388E  0E00               	movlw	0
  1337  003890  6E2F               	movwf	_ms_count3+1,c	;volatile
  1338  003892  0E00               	movlw	0
  1339  003894  6E2E               	movwf	_ms_count3,c	;volatile
  1340                           
  1341                           ;mini-project-clock.c: 1292: while(ms_count3 <= ((800 / 2) / 2) && !PB1pressed() && !PB2
      +                          pressed()) { LATJbits.LATJ6 = 1; Delay10TCYx(84); Delay10TCYx(84); LATJbits.LATJ6 = 0; D
      +                          elay10TCYx(84); Delay10TCYx(84); } ms_count3 = 0; while(ms_count3 <= (((800 / 2) / 2) / 
      +                          2) && !PB1press
  1342  003896  D00E               	goto	l14980
  1343  003898                     l1512:
  1344  003898  8C91               	bsf	3985,6,c	;volatile
  1345  00389A  0E54               	movlw	84
  1346  00389C  ECC4  F039         	call	_Delay10TCYx
  1347  0038A0  0E54               	movlw	84
  1348  0038A2  ECC4  F039         	call	_Delay10TCYx
  1349  0038A6  9C91               	bcf	3985,6,c	;volatile
  1350  0038A8  0E54               	movlw	84
  1351  0038AA  ECC4  F039         	call	_Delay10TCYx
  1352  0038AE  0E54               	movlw	84
  1353  0038B0  ECC4  F039         	call	_Delay10TCYx
  1354  0038B4                     l14980:
  1355  0038B4  502F               	movf	_ms_count3+1,w,c	;volatile
  1356  0038B6  E10E               	bnz	l14986
  1357  0038B8  0EC9               	movlw	201
  1358  0038BA  5C2E               	subwf	_ms_count3,w,c	;volatile
  1359  0038BC  B0D8               	btfsc	status,0,c
  1360  0038BE  D00A               	goto	l14986
  1361  0038C0  EC74  F039         	call	_PB1pressed	;wreg free
  1362  0038C4  0900               	iorlw	0
  1363  0038C6  A4D8               	btfss	status,2,c
  1364  0038C8  D005               	goto	l14986
  1365  0038CA  EC60  F039         	call	_PB2pressed	;wreg free
  1366  0038CE  0900               	iorlw	0
  1367  0038D0  B4D8               	btfsc	status,2,c
  1368  0038D2  D7E2               	goto	l1512
  1369  0038D4                     l14986:
  1370  0038D4  0E00               	movlw	0
  1371  0038D6  6E2F               	movwf	_ms_count3+1,c	;volatile
  1372  0038D8  0E00               	movlw	0
  1373  0038DA  6E2E               	movwf	_ms_count3,c	;volatile
  1374  0038DC                     l14988:
  1375  0038DC  502F               	movf	_ms_count3+1,w,c	;volatile
  1376  0038DE  E10E               	bnz	l14994
  1377  0038E0  0E65               	movlw	101
  1378  0038E2  5C2E               	subwf	_ms_count3,w,c	;volatile
  1379  0038E4  B0D8               	btfsc	status,0,c
  1380  0038E6  D00A               	goto	l14994
  1381  0038E8  EC74  F039         	call	_PB1pressed	;wreg free
  1382  0038EC  0900               	iorlw	0
  1383  0038EE  A4D8               	btfss	status,2,c
  1384  0038F0  D005               	goto	l14994
  1385  0038F2  EC60  F039         	call	_PB2pressed	;wreg free
  1386  0038F6  0900               	iorlw	0
  1387  0038F8  B4D8               	btfsc	status,2,c
  1388  0038FA  D7F0               	goto	l14988
  1389  0038FC                     l14994:
  1390  0038FC  0E00               	movlw	0
  1391  0038FE  6E2F               	movwf	_ms_count3+1,c	;volatile
  1392  003900  0E00               	movlw	0
  1393  003902  6E2E               	movwf	_ms_count3,c	;volatile
  1394  003904  EC74  F039         	call	_PB1pressed	;wreg free
  1395  003908  0900               	iorlw	0
  1396  00390A  A4D8               	btfss	status,2,c
  1397  00390C  EF73  F02C         	goto	l16470
  1398  003910  EC60  F039         	call	_PB2pressed	;wreg free
  1399  003914  0900               	iorlw	0
  1400  003916  A4D8               	btfss	status,2,c
  1401  003918  EF73  F02C         	goto	l16470
  1402  00391C  D00E               	goto	l15004
  1403  00391E                     l1526:
  1404  00391E  8C91               	bsf	3985,6,c	;volatile
  1405  003920  0E54               	movlw	84
  1406  003922  ECC4  F039         	call	_Delay10TCYx
  1407  003926  0E54               	movlw	84
  1408  003928  ECC4  F039         	call	_Delay10TCYx
  1409  00392C  9C91               	bcf	3985,6,c	;volatile
  1410  00392E  0E54               	movlw	84
  1411  003930  ECC4  F039         	call	_Delay10TCYx
  1412  003934  0E54               	movlw	84
  1413  003936  ECC4  F039         	call	_Delay10TCYx
  1414  00393A                     l15004:
  1415  00393A  502F               	movf	_ms_count3+1,w,c	;volatile
  1416  00393C  E10E               	bnz	l15010
  1417  00393E  0EC9               	movlw	201
  1418  003940  5C2E               	subwf	_ms_count3,w,c	;volatile
  1419  003942  B0D8               	btfsc	status,0,c
  1420  003944  D00A               	goto	l15010
  1421  003946  EC74  F039         	call	_PB1pressed	;wreg free
  1422  00394A  0900               	iorlw	0
  1423  00394C  A4D8               	btfss	status,2,c
  1424  00394E  D005               	goto	l15010
  1425  003950  EC60  F039         	call	_PB2pressed	;wreg free
  1426  003954  0900               	iorlw	0
  1427  003956  B4D8               	btfsc	status,2,c
  1428  003958  D7E2               	goto	l1526
  1429  00395A                     l15010:
  1430  00395A  0E00               	movlw	0
  1431  00395C  6E2F               	movwf	_ms_count3+1,c	;volatile
  1432  00395E  0E00               	movlw	0
  1433  003960  6E2E               	movwf	_ms_count3,c	;volatile
  1434  003962                     l15012:
  1435  003962  502F               	movf	_ms_count3+1,w,c	;volatile
  1436  003964  E10E               	bnz	l15018
  1437  003966  0E65               	movlw	101
  1438  003968  5C2E               	subwf	_ms_count3,w,c	;volatile
  1439  00396A  B0D8               	btfsc	status,0,c
  1440  00396C  D00A               	goto	l15018
  1441  00396E  EC74  F039         	call	_PB1pressed	;wreg free
  1442  003972  0900               	iorlw	0
  1443  003974  A4D8               	btfss	status,2,c
  1444  003976  D005               	goto	l15018
  1445  003978  EC60  F039         	call	_PB2pressed	;wreg free
  1446  00397C  0900               	iorlw	0
  1447  00397E  B4D8               	btfsc	status,2,c
  1448  003980  D7F0               	goto	l15012
  1449  003982                     l15018:
  1450  003982  0E00               	movlw	0
  1451  003984  6E2F               	movwf	_ms_count3+1,c	;volatile
  1452  003986  0E00               	movlw	0
  1453  003988  6E2E               	movwf	_ms_count3,c	;volatile
  1454  00398A  EC74  F039         	call	_PB1pressed	;wreg free
  1455  00398E  0900               	iorlw	0
  1456  003990  A4D8               	btfss	status,2,c
  1457  003992  EF73  F02C         	goto	l16470
  1458  003996  EC60  F039         	call	_PB2pressed	;wreg free
  1459  00399A  0900               	iorlw	0
  1460  00399C  A4D8               	btfss	status,2,c
  1461  00399E  EF73  F02C         	goto	l16470
  1462  0039A2  D00E               	goto	l15028
  1463  0039A4                     l1539:
  1464  0039A4  8C91               	bsf	3985,6,c	;volatile
  1465  0039A6  0E50               	movlw	80
  1466  0039A8  ECC4  F039         	call	_Delay10TCYx
  1467  0039AC  0E50               	movlw	80
  1468  0039AE  ECC4  F039         	call	_Delay10TCYx
  1469  0039B2  9C91               	bcf	3985,6,c	;volatile
  1470  0039B4  0E50               	movlw	80
  1471  0039B6  ECC4  F039         	call	_Delay10TCYx
  1472  0039BA  0E50               	movlw	80
  1473  0039BC  ECC4  F039         	call	_Delay10TCYx
  1474  0039C0                     l15028:
  1475  0039C0  502F               	movf	_ms_count3+1,w,c	;volatile
  1476  0039C2  E10E               	bnz	l15034
  1477  0039C4  0EC9               	movlw	201
  1478  0039C6  5C2E               	subwf	_ms_count3,w,c	;volatile
  1479  0039C8  B0D8               	btfsc	status,0,c
  1480  0039CA  D00A               	goto	l15034
  1481  0039CC  EC74  F039         	call	_PB1pressed	;wreg free
  1482  0039D0  0900               	iorlw	0
  1483  0039D2  A4D8               	btfss	status,2,c
  1484  0039D4  D005               	goto	l15034
  1485  0039D6  EC60  F039         	call	_PB2pressed	;wreg free
  1486  0039DA  0900               	iorlw	0
  1487  0039DC  B4D8               	btfsc	status,2,c
  1488  0039DE  D7E2               	goto	l1539
  1489  0039E0                     l15034:
  1490  0039E0  0E00               	movlw	0
  1491  0039E2  6E2F               	movwf	_ms_count3+1,c	;volatile
  1492  0039E4  0E00               	movlw	0
  1493  0039E6  6E2E               	movwf	_ms_count3,c	;volatile
  1494  0039E8                     l15036:
  1495  0039E8  502F               	movf	_ms_count3+1,w,c	;volatile
  1496  0039EA  E10E               	bnz	l15042
  1497  0039EC  0E65               	movlw	101
  1498  0039EE  5C2E               	subwf	_ms_count3,w,c	;volatile
  1499  0039F0  B0D8               	btfsc	status,0,c
  1500  0039F2  D00A               	goto	l15042
  1501  0039F4  EC74  F039         	call	_PB1pressed	;wreg free
  1502  0039F8  0900               	iorlw	0
  1503  0039FA  A4D8               	btfss	status,2,c
  1504  0039FC  D005               	goto	l15042
  1505  0039FE  EC60  F039         	call	_PB2pressed	;wreg free
  1506  003A02  0900               	iorlw	0
  1507  003A04  B4D8               	btfsc	status,2,c
  1508  003A06  D7F0               	goto	l15036
  1509  003A08                     l15042:
  1510  003A08  0E00               	movlw	0
  1511  003A0A  6E2F               	movwf	_ms_count3+1,c	;volatile
  1512  003A0C  0E00               	movlw	0
  1513  003A0E  6E2E               	movwf	_ms_count3,c	;volatile
  1514  003A10  EC74  F039         	call	_PB1pressed	;wreg free
  1515  003A14  0900               	iorlw	0
  1516  003A16  A4D8               	btfss	status,2,c
  1517  003A18  EF73  F02C         	goto	l16470
  1518  003A1C  EC60  F039         	call	_PB2pressed	;wreg free
  1519  003A20  0900               	iorlw	0
  1520  003A22  A4D8               	btfss	status,2,c
  1521  003A24  EF73  F02C         	goto	l16470
  1522  003A28  D00E               	goto	l15052
  1523  003A2A                     l1552:
  1524  003A2A  8C91               	bsf	3985,6,c	;volatile
  1525  003A2C  0E47               	movlw	71
  1526  003A2E  ECC4  F039         	call	_Delay10TCYx
  1527  003A32  0E47               	movlw	71
  1528  003A34  ECC4  F039         	call	_Delay10TCYx
  1529  003A38  9C91               	bcf	3985,6,c	;volatile
  1530  003A3A  0E47               	movlw	71
  1531  003A3C  ECC4  F039         	call	_Delay10TCYx
  1532  003A40  0E47               	movlw	71
  1533  003A42  ECC4  F039         	call	_Delay10TCYx
  1534  003A46                     l15052:
  1535  003A46  502F               	movf	_ms_count3+1,w,c	;volatile
  1536  003A48  E10E               	bnz	l15058
  1537  003A4A  0EC9               	movlw	201
  1538  003A4C  5C2E               	subwf	_ms_count3,w,c	;volatile
  1539  003A4E  B0D8               	btfsc	status,0,c
  1540  003A50  D00A               	goto	l15058
  1541  003A52  EC74  F039         	call	_PB1pressed	;wreg free
  1542  003A56  0900               	iorlw	0
  1543  003A58  A4D8               	btfss	status,2,c
  1544  003A5A  D005               	goto	l15058
  1545  003A5C  EC60  F039         	call	_PB2pressed	;wreg free
  1546  003A60  0900               	iorlw	0
  1547  003A62  B4D8               	btfsc	status,2,c
  1548  003A64  D7E2               	goto	l1552
  1549  003A66                     l15058:
  1550  003A66  0E00               	movlw	0
  1551  003A68  6E2F               	movwf	_ms_count3+1,c	;volatile
  1552  003A6A  0E00               	movlw	0
  1553  003A6C  6E2E               	movwf	_ms_count3,c	;volatile
  1554  003A6E                     l15060:
  1555  003A6E  502F               	movf	_ms_count3+1,w,c	;volatile
  1556  003A70  E10E               	bnz	l15066
  1557  003A72  0E65               	movlw	101
  1558  003A74  5C2E               	subwf	_ms_count3,w,c	;volatile
  1559  003A76  B0D8               	btfsc	status,0,c
  1560  003A78  D00A               	goto	l15066
  1561  003A7A  EC74  F039         	call	_PB1pressed	;wreg free
  1562  003A7E  0900               	iorlw	0
  1563  003A80  A4D8               	btfss	status,2,c
  1564  003A82  D005               	goto	l15066
  1565  003A84  EC60  F039         	call	_PB2pressed	;wreg free
  1566  003A88  0900               	iorlw	0
  1567  003A8A  B4D8               	btfsc	status,2,c
  1568  003A8C  D7F0               	goto	l15060
  1569  003A8E                     l15066:
  1570  003A8E  0E00               	movlw	0
  1571  003A90  6E2F               	movwf	_ms_count3+1,c	;volatile
  1572  003A92  0E00               	movlw	0
  1573  003A94  6E2E               	movwf	_ms_count3,c	;volatile
  1574  003A96  EC74  F039         	call	_PB1pressed	;wreg free
  1575  003A9A  0900               	iorlw	0
  1576  003A9C  A4D8               	btfss	status,2,c
  1577  003A9E  EF73  F02C         	goto	l16470
  1578  003AA2  EC60  F039         	call	_PB2pressed	;wreg free
  1579  003AA6  0900               	iorlw	0
  1580  003AA8  A4D8               	btfss	status,2,c
  1581  003AAA  EF73  F02C         	goto	l16470
  1582  003AAE  D00E               	goto	l15076
  1583  003AB0                     l1565:
  1584  003AB0  8C91               	bsf	3985,6,c	;volatile
  1585  003AB2  0E47               	movlw	71
  1586  003AB4  ECC4  F039         	call	_Delay10TCYx
  1587  003AB8  0E47               	movlw	71
  1588  003ABA  ECC4  F039         	call	_Delay10TCYx
  1589  003ABE  9C91               	bcf	3985,6,c	;volatile
  1590  003AC0  0E47               	movlw	71
  1591  003AC2  ECC4  F039         	call	_Delay10TCYx
  1592  003AC6  0E47               	movlw	71
  1593  003AC8  ECC4  F039         	call	_Delay10TCYx
  1594  003ACC                     l15076:
  1595  003ACC  502F               	movf	_ms_count3+1,w,c	;volatile
  1596  003ACE  E10E               	bnz	l15082
  1597  003AD0  0EC9               	movlw	201
  1598  003AD2  5C2E               	subwf	_ms_count3,w,c	;volatile
  1599  003AD4  B0D8               	btfsc	status,0,c
  1600  003AD6  D00A               	goto	l15082
  1601  003AD8  EC74  F039         	call	_PB1pressed	;wreg free
  1602  003ADC  0900               	iorlw	0
  1603  003ADE  A4D8               	btfss	status,2,c
  1604  003AE0  D005               	goto	l15082
  1605  003AE2  EC60  F039         	call	_PB2pressed	;wreg free
  1606  003AE6  0900               	iorlw	0
  1607  003AE8  B4D8               	btfsc	status,2,c
  1608  003AEA  D7E2               	goto	l1565
  1609  003AEC                     l15082:
  1610  003AEC  0E00               	movlw	0
  1611  003AEE  6E2F               	movwf	_ms_count3+1,c	;volatile
  1612  003AF0  0E00               	movlw	0
  1613  003AF2  6E2E               	movwf	_ms_count3,c	;volatile
  1614  003AF4                     l15084:
  1615  003AF4  502F               	movf	_ms_count3+1,w,c	;volatile
  1616  003AF6  E10E               	bnz	l15090
  1617  003AF8  0E65               	movlw	101
  1618  003AFA  5C2E               	subwf	_ms_count3,w,c	;volatile
  1619  003AFC  B0D8               	btfsc	status,0,c
  1620  003AFE  D00A               	goto	l15090
  1621  003B00  EC74  F039         	call	_PB1pressed	;wreg free
  1622  003B04  0900               	iorlw	0
  1623  003B06  A4D8               	btfss	status,2,c
  1624  003B08  D005               	goto	l15090
  1625  003B0A  EC60  F039         	call	_PB2pressed	;wreg free
  1626  003B0E  0900               	iorlw	0
  1627  003B10  B4D8               	btfsc	status,2,c
  1628  003B12  D7F0               	goto	l15084
  1629  003B14                     l15090:
  1630  003B14  0E00               	movlw	0
  1631  003B16  6E2F               	movwf	_ms_count3+1,c	;volatile
  1632  003B18  0E00               	movlw	0
  1633  003B1A  6E2E               	movwf	_ms_count3,c	;volatile
  1634  003B1C  EC74  F039         	call	_PB1pressed	;wreg free
  1635  003B20  0900               	iorlw	0
  1636  003B22  A4D8               	btfss	status,2,c
  1637  003B24  EF73  F02C         	goto	l16470
  1638  003B28  EC60  F039         	call	_PB2pressed	;wreg free
  1639  003B2C  0900               	iorlw	0
  1640  003B2E  A4D8               	btfss	status,2,c
  1641  003B30  EF73  F02C         	goto	l16470
  1642  003B34  D00E               	goto	l15100
  1643  003B36                     l1578:
  1644  003B36  8C91               	bsf	3985,6,c	;volatile
  1645  003B38  0E50               	movlw	80
  1646  003B3A  ECC4  F039         	call	_Delay10TCYx
  1647  003B3E  0E50               	movlw	80
  1648  003B40  ECC4  F039         	call	_Delay10TCYx
  1649  003B44  9C91               	bcf	3985,6,c	;volatile
  1650  003B46  0E50               	movlw	80
  1651  003B48  ECC4  F039         	call	_Delay10TCYx
  1652  003B4C  0E50               	movlw	80
  1653  003B4E  ECC4  F039         	call	_Delay10TCYx
  1654  003B52                     l15100:
  1655  003B52  502F               	movf	_ms_count3+1,w,c	;volatile
  1656  003B54  E10E               	bnz	l15106
  1657  003B56  0EC9               	movlw	201
  1658  003B58  5C2E               	subwf	_ms_count3,w,c	;volatile
  1659  003B5A  B0D8               	btfsc	status,0,c
  1660  003B5C  D00A               	goto	l15106
  1661  003B5E  EC74  F039         	call	_PB1pressed	;wreg free
  1662  003B62  0900               	iorlw	0
  1663  003B64  A4D8               	btfss	status,2,c
  1664  003B66  D005               	goto	l15106
  1665  003B68  EC60  F039         	call	_PB2pressed	;wreg free
  1666  003B6C  0900               	iorlw	0
  1667  003B6E  B4D8               	btfsc	status,2,c
  1668  003B70  D7E2               	goto	l1578
  1669  003B72                     l15106:
  1670  003B72  0E00               	movlw	0
  1671  003B74  6E2F               	movwf	_ms_count3+1,c	;volatile
  1672  003B76  0E00               	movlw	0
  1673  003B78  6E2E               	movwf	_ms_count3,c	;volatile
  1674  003B7A                     l15108:
  1675  003B7A  502F               	movf	_ms_count3+1,w,c	;volatile
  1676  003B7C  E10E               	bnz	l15114
  1677  003B7E  0E65               	movlw	101
  1678  003B80  5C2E               	subwf	_ms_count3,w,c	;volatile
  1679  003B82  B0D8               	btfsc	status,0,c
  1680  003B84  D00A               	goto	l15114
  1681  003B86  EC74  F039         	call	_PB1pressed	;wreg free
  1682  003B8A  0900               	iorlw	0
  1683  003B8C  A4D8               	btfss	status,2,c
  1684  003B8E  D005               	goto	l15114
  1685  003B90  EC60  F039         	call	_PB2pressed	;wreg free
  1686  003B94  0900               	iorlw	0
  1687  003B96  B4D8               	btfsc	status,2,c
  1688  003B98  D7F0               	goto	l15108
  1689  003B9A                     l15114:
  1690  003B9A  0E00               	movlw	0
  1691  003B9C  6E2F               	movwf	_ms_count3+1,c	;volatile
  1692  003B9E  0E00               	movlw	0
  1693  003BA0  6E2E               	movwf	_ms_count3,c	;volatile
  1694  003BA2  EC74  F039         	call	_PB1pressed	;wreg free
  1695  003BA6  0900               	iorlw	0
  1696  003BA8  A4D8               	btfss	status,2,c
  1697  003BAA  EF73  F02C         	goto	l16470
  1698  003BAE  EC60  F039         	call	_PB2pressed	;wreg free
  1699  003BB2  0900               	iorlw	0
  1700  003BB4  A4D8               	btfss	status,2,c
  1701  003BB6  EF73  F02C         	goto	l16470
  1702  003BBA  D00E               	goto	l15124
  1703  003BBC                     l1591:
  1704  003BBC  8C91               	bsf	3985,6,c	;volatile
  1705  003BBE  0E54               	movlw	84
  1706  003BC0  ECC4  F039         	call	_Delay10TCYx
  1707  003BC4  0E54               	movlw	84
  1708  003BC6  ECC4  F039         	call	_Delay10TCYx
  1709  003BCA  9C91               	bcf	3985,6,c	;volatile
  1710  003BCC  0E54               	movlw	84
  1711  003BCE  ECC4  F039         	call	_Delay10TCYx
  1712  003BD2  0E54               	movlw	84
  1713  003BD4  ECC4  F039         	call	_Delay10TCYx
  1714  003BD8                     l15124:
  1715  003BD8  502F               	movf	_ms_count3+1,w,c	;volatile
  1716  003BDA  E10E               	bnz	l15130
  1717  003BDC  0EC9               	movlw	201
  1718  003BDE  5C2E               	subwf	_ms_count3,w,c	;volatile
  1719  003BE0  B0D8               	btfsc	status,0,c
  1720  003BE2  D00A               	goto	l15130
  1721  003BE4  EC74  F039         	call	_PB1pressed	;wreg free
  1722  003BE8  0900               	iorlw	0
  1723  003BEA  A4D8               	btfss	status,2,c
  1724  003BEC  D005               	goto	l15130
  1725  003BEE  EC60  F039         	call	_PB2pressed	;wreg free
  1726  003BF2  0900               	iorlw	0
  1727  003BF4  B4D8               	btfsc	status,2,c
  1728  003BF6  D7E2               	goto	l1591
  1729  003BF8                     l15130:
  1730  003BF8  0E00               	movlw	0
  1731  003BFA  6E2F               	movwf	_ms_count3+1,c	;volatile
  1732  003BFC  0E00               	movlw	0
  1733  003BFE  6E2E               	movwf	_ms_count3,c	;volatile
  1734  003C00                     l15132:
  1735  003C00  502F               	movf	_ms_count3+1,w,c	;volatile
  1736  003C02  E10E               	bnz	l15138
  1737  003C04  0E65               	movlw	101
  1738  003C06  5C2E               	subwf	_ms_count3,w,c	;volatile
  1739  003C08  B0D8               	btfsc	status,0,c
  1740  003C0A  D00A               	goto	l15138
  1741  003C0C  EC74  F039         	call	_PB1pressed	;wreg free
  1742  003C10  0900               	iorlw	0
  1743  003C12  A4D8               	btfss	status,2,c
  1744  003C14  D005               	goto	l15138
  1745  003C16  EC60  F039         	call	_PB2pressed	;wreg free
  1746  003C1A  0900               	iorlw	0
  1747  003C1C  B4D8               	btfsc	status,2,c
  1748  003C1E  D7F0               	goto	l15132
  1749  003C20                     l15138:
  1750  003C20  0E00               	movlw	0
  1751  003C22  6E2F               	movwf	_ms_count3+1,c	;volatile
  1752  003C24  0E00               	movlw	0
  1753  003C26  6E2E               	movwf	_ms_count3,c	;volatile
  1754  003C28  EC74  F039         	call	_PB1pressed	;wreg free
  1755  003C2C  0900               	iorlw	0
  1756  003C2E  A4D8               	btfss	status,2,c
  1757  003C30  EF73  F02C         	goto	l16470
  1758  003C34  EC60  F039         	call	_PB2pressed	;wreg free
  1759  003C38  0900               	iorlw	0
  1760  003C3A  A4D8               	btfss	status,2,c
  1761  003C3C  EF73  F02C         	goto	l16470
  1762  003C40  D00E               	goto	l15148
  1763  003C42                     l1604:
  1764  003C42  8C91               	bsf	3985,6,c	;volatile
  1765  003C44  0E5F               	movlw	95
  1766  003C46  ECC4  F039         	call	_Delay10TCYx
  1767  003C4A  0E5F               	movlw	95
  1768  003C4C  ECC4  F039         	call	_Delay10TCYx
  1769  003C50  9C91               	bcf	3985,6,c	;volatile
  1770  003C52  0E5F               	movlw	95
  1771  003C54  ECC4  F039         	call	_Delay10TCYx
  1772  003C58  0E5F               	movlw	95
  1773  003C5A  ECC4  F039         	call	_Delay10TCYx
  1774  003C5E                     l15148:
  1775  003C5E  502F               	movf	_ms_count3+1,w,c	;volatile
  1776  003C60  E10E               	bnz	l15154
  1777  003C62  0EC9               	movlw	201
  1778  003C64  5C2E               	subwf	_ms_count3,w,c	;volatile
  1779  003C66  B0D8               	btfsc	status,0,c
  1780  003C68  D00A               	goto	l15154
  1781  003C6A  EC74  F039         	call	_PB1pressed	;wreg free
  1782  003C6E  0900               	iorlw	0
  1783  003C70  A4D8               	btfss	status,2,c
  1784  003C72  D005               	goto	l15154
  1785  003C74  EC60  F039         	call	_PB2pressed	;wreg free
  1786  003C78  0900               	iorlw	0
  1787  003C7A  B4D8               	btfsc	status,2,c
  1788  003C7C  D7E2               	goto	l1604
  1789  003C7E                     l15154:
  1790  003C7E  0E00               	movlw	0
  1791  003C80  6E2F               	movwf	_ms_count3+1,c	;volatile
  1792  003C82  0E00               	movlw	0
  1793  003C84  6E2E               	movwf	_ms_count3,c	;volatile
  1794  003C86                     l15156:
  1795  003C86  502F               	movf	_ms_count3+1,w,c	;volatile
  1796  003C88  E10E               	bnz	l15162
  1797  003C8A  0E65               	movlw	101
  1798  003C8C  5C2E               	subwf	_ms_count3,w,c	;volatile
  1799  003C8E  B0D8               	btfsc	status,0,c
  1800  003C90  D00A               	goto	l15162
  1801  003C92  EC74  F039         	call	_PB1pressed	;wreg free
  1802  003C96  0900               	iorlw	0
  1803  003C98  A4D8               	btfss	status,2,c
  1804  003C9A  D005               	goto	l15162
  1805  003C9C  EC60  F039         	call	_PB2pressed	;wreg free
  1806  003CA0  0900               	iorlw	0
  1807  003CA2  B4D8               	btfsc	status,2,c
  1808  003CA4  D7F0               	goto	l15156
  1809  003CA6                     l15162:
  1810  003CA6  0E00               	movlw	0
  1811  003CA8  6E2F               	movwf	_ms_count3+1,c	;volatile
  1812  003CAA  0E00               	movlw	0
  1813  003CAC  6E2E               	movwf	_ms_count3,c	;volatile
  1814  003CAE  EC74  F039         	call	_PB1pressed	;wreg free
  1815  003CB2  0900               	iorlw	0
  1816  003CB4  A4D8               	btfss	status,2,c
  1817  003CB6  EF73  F02C         	goto	l16470
  1818  003CBA  EC60  F039         	call	_PB2pressed	;wreg free
  1819  003CBE  0900               	iorlw	0
  1820  003CC0  A4D8               	btfss	status,2,c
  1821  003CC2  EF73  F02C         	goto	l16470
  1822  003CC6  D00E               	goto	l15172
  1823  003CC8                     l1617:
  1824  003CC8  8C91               	bsf	3985,6,c	;volatile
  1825  003CCA  0E6A               	movlw	106
  1826  003CCC  ECC4  F039         	call	_Delay10TCYx
  1827  003CD0  0E6A               	movlw	106
  1828  003CD2  ECC4  F039         	call	_Delay10TCYx
  1829  003CD6  9C91               	bcf	3985,6,c	;volatile
  1830  003CD8  0E6A               	movlw	106
  1831  003CDA  ECC4  F039         	call	_Delay10TCYx
  1832  003CDE  0E6A               	movlw	106
  1833  003CE0  ECC4  F039         	call	_Delay10TCYx
  1834  003CE4                     l15172:
  1835  003CE4  502F               	movf	_ms_count3+1,w,c	;volatile
  1836  003CE6  E10E               	bnz	l15178
  1837  003CE8  0EC9               	movlw	201
  1838  003CEA  5C2E               	subwf	_ms_count3,w,c	;volatile
  1839  003CEC  B0D8               	btfsc	status,0,c
  1840  003CEE  D00A               	goto	l15178
  1841  003CF0  EC74  F039         	call	_PB1pressed	;wreg free
  1842  003CF4  0900               	iorlw	0
  1843  003CF6  A4D8               	btfss	status,2,c
  1844  003CF8  D005               	goto	l15178
  1845  003CFA  EC60  F039         	call	_PB2pressed	;wreg free
  1846  003CFE  0900               	iorlw	0
  1847  003D00  B4D8               	btfsc	status,2,c
  1848  003D02  D7E2               	goto	l1617
  1849  003D04                     l15178:
  1850  003D04  0E00               	movlw	0
  1851  003D06  6E2F               	movwf	_ms_count3+1,c	;volatile
  1852  003D08  0E00               	movlw	0
  1853  003D0A  6E2E               	movwf	_ms_count3,c	;volatile
  1854  003D0C                     l15180:
  1855  003D0C  502F               	movf	_ms_count3+1,w,c	;volatile
  1856  003D0E  E10E               	bnz	l15186
  1857  003D10  0E65               	movlw	101
  1858  003D12  5C2E               	subwf	_ms_count3,w,c	;volatile
  1859  003D14  B0D8               	btfsc	status,0,c
  1860  003D16  D00A               	goto	l15186
  1861  003D18  EC74  F039         	call	_PB1pressed	;wreg free
  1862  003D1C  0900               	iorlw	0
  1863  003D1E  A4D8               	btfss	status,2,c
  1864  003D20  D005               	goto	l15186
  1865  003D22  EC60  F039         	call	_PB2pressed	;wreg free
  1866  003D26  0900               	iorlw	0
  1867  003D28  B4D8               	btfsc	status,2,c
  1868  003D2A  D7F0               	goto	l15180
  1869  003D2C                     l15186:
  1870  003D2C  0E00               	movlw	0
  1871  003D2E  6E2F               	movwf	_ms_count3+1,c	;volatile
  1872  003D30  0E00               	movlw	0
  1873  003D32  6E2E               	movwf	_ms_count3,c	;volatile
  1874  003D34  EC74  F039         	call	_PB1pressed	;wreg free
  1875  003D38  0900               	iorlw	0
  1876  003D3A  A4D8               	btfss	status,2,c
  1877  003D3C  EF73  F02C         	goto	l16470
  1878  003D40  EC60  F039         	call	_PB2pressed	;wreg free
  1879  003D44  0900               	iorlw	0
  1880  003D46  A4D8               	btfss	status,2,c
  1881  003D48  EF73  F02C         	goto	l16470
  1882  003D4C  D00E               	goto	l15196
  1883  003D4E                     l1630:
  1884  003D4E  8C91               	bsf	3985,6,c	;volatile
  1885  003D50  0E6A               	movlw	106
  1886  003D52  ECC4  F039         	call	_Delay10TCYx
  1887  003D56  0E6A               	movlw	106
  1888  003D58  ECC4  F039         	call	_Delay10TCYx
  1889  003D5C  9C91               	bcf	3985,6,c	;volatile
  1890  003D5E  0E6A               	movlw	106
  1891  003D60  ECC4  F039         	call	_Delay10TCYx
  1892  003D64  0E6A               	movlw	106
  1893  003D66  ECC4  F039         	call	_Delay10TCYx
  1894  003D6A                     l15196:
  1895  003D6A  502F               	movf	_ms_count3+1,w,c	;volatile
  1896  003D6C  E10E               	bnz	l15202
  1897  003D6E  0EC9               	movlw	201
  1898  003D70  5C2E               	subwf	_ms_count3,w,c	;volatile
  1899  003D72  B0D8               	btfsc	status,0,c
  1900  003D74  D00A               	goto	l15202
  1901  003D76  EC74  F039         	call	_PB1pressed	;wreg free
  1902  003D7A  0900               	iorlw	0
  1903  003D7C  A4D8               	btfss	status,2,c
  1904  003D7E  D005               	goto	l15202
  1905  003D80  EC60  F039         	call	_PB2pressed	;wreg free
  1906  003D84  0900               	iorlw	0
  1907  003D86  B4D8               	btfsc	status,2,c
  1908  003D88  D7E2               	goto	l1630
  1909  003D8A                     l15202:
  1910  003D8A  0E00               	movlw	0
  1911  003D8C  6E2F               	movwf	_ms_count3+1,c	;volatile
  1912  003D8E  0E00               	movlw	0
  1913  003D90  6E2E               	movwf	_ms_count3,c	;volatile
  1914  003D92                     l15204:
  1915  003D92  502F               	movf	_ms_count3+1,w,c	;volatile
  1916  003D94  E10E               	bnz	l15210
  1917  003D96  0E65               	movlw	101
  1918  003D98  5C2E               	subwf	_ms_count3,w,c	;volatile
  1919  003D9A  B0D8               	btfsc	status,0,c
  1920  003D9C  D00A               	goto	l15210
  1921  003D9E  EC74  F039         	call	_PB1pressed	;wreg free
  1922  003DA2  0900               	iorlw	0
  1923  003DA4  A4D8               	btfss	status,2,c
  1924  003DA6  D005               	goto	l15210
  1925  003DA8  EC60  F039         	call	_PB2pressed	;wreg free
  1926  003DAC  0900               	iorlw	0
  1927  003DAE  B4D8               	btfsc	status,2,c
  1928  003DB0  D7F0               	goto	l15204
  1929  003DB2                     l15210:
  1930  003DB2  0E00               	movlw	0
  1931  003DB4  6E2F               	movwf	_ms_count3+1,c	;volatile
  1932  003DB6  0E00               	movlw	0
  1933  003DB8  6E2E               	movwf	_ms_count3,c	;volatile
  1934  003DBA  EC74  F039         	call	_PB1pressed	;wreg free
  1935  003DBE  0900               	iorlw	0
  1936  003DC0  A4D8               	btfss	status,2,c
  1937  003DC2  EF73  F02C         	goto	l16470
  1938  003DC6  EC60  F039         	call	_PB2pressed	;wreg free
  1939  003DCA  0900               	iorlw	0
  1940  003DCC  A4D8               	btfss	status,2,c
  1941  003DCE  EF73  F02C         	goto	l16470
  1942  003DD2  D00E               	goto	l15220
  1943  003DD4                     l1643:
  1944  003DD4  8C91               	bsf	3985,6,c	;volatile
  1945  003DD6  0E5F               	movlw	95
  1946  003DD8  ECC4  F039         	call	_Delay10TCYx
  1947  003DDC  0E5F               	movlw	95
  1948  003DDE  ECC4  F039         	call	_Delay10TCYx
  1949  003DE2  9C91               	bcf	3985,6,c	;volatile
  1950  003DE4  0E5F               	movlw	95
  1951  003DE6  ECC4  F039         	call	_Delay10TCYx
  1952  003DEA  0E5F               	movlw	95
  1953  003DEC  ECC4  F039         	call	_Delay10TCYx
  1954  003DF0                     l15220:
  1955  003DF0  502F               	movf	_ms_count3+1,w,c	;volatile
  1956  003DF2  E10E               	bnz	l15226
  1957  003DF4  0EC9               	movlw	201
  1958  003DF6  5C2E               	subwf	_ms_count3,w,c	;volatile
  1959  003DF8  B0D8               	btfsc	status,0,c
  1960  003DFA  D00A               	goto	l15226
  1961  003DFC  EC74  F039         	call	_PB1pressed	;wreg free
  1962  003E00  0900               	iorlw	0
  1963  003E02  A4D8               	btfss	status,2,c
  1964  003E04  D005               	goto	l15226
  1965  003E06  EC60  F039         	call	_PB2pressed	;wreg free
  1966  003E0A  0900               	iorlw	0
  1967  003E0C  B4D8               	btfsc	status,2,c
  1968  003E0E  D7E2               	goto	l1643
  1969  003E10                     l15226:
  1970  003E10  0E00               	movlw	0
  1971  003E12  6E2F               	movwf	_ms_count3+1,c	;volatile
  1972  003E14  0E00               	movlw	0
  1973  003E16  6E2E               	movwf	_ms_count3,c	;volatile
  1974  003E18                     l15228:
  1975  003E18  502F               	movf	_ms_count3+1,w,c	;volatile
  1976  003E1A  E10E               	bnz	l15234
  1977  003E1C  0E65               	movlw	101
  1978  003E1E  5C2E               	subwf	_ms_count3,w,c	;volatile
  1979  003E20  B0D8               	btfsc	status,0,c
  1980  003E22  D00A               	goto	l15234
  1981  003E24  EC74  F039         	call	_PB1pressed	;wreg free
  1982  003E28  0900               	iorlw	0
  1983  003E2A  A4D8               	btfss	status,2,c
  1984  003E2C  D005               	goto	l15234
  1985  003E2E  EC60  F039         	call	_PB2pressed	;wreg free
  1986  003E32  0900               	iorlw	0
  1987  003E34  B4D8               	btfsc	status,2,c
  1988  003E36  D7F0               	goto	l15228
  1989  003E38                     l15234:
  1990  003E38  0E00               	movlw	0
  1991  003E3A  6E2F               	movwf	_ms_count3+1,c	;volatile
  1992  003E3C  0E00               	movlw	0
  1993  003E3E  6E2E               	movwf	_ms_count3,c	;volatile
  1994  003E40  EC74  F039         	call	_PB1pressed	;wreg free
  1995  003E44  0900               	iorlw	0
  1996  003E46  A4D8               	btfss	status,2,c
  1997  003E48  EF73  F02C         	goto	l16470
  1998  003E4C  EC60  F039         	call	_PB2pressed	;wreg free
  1999  003E50  0900               	iorlw	0
  2000  003E52  A4D8               	btfss	status,2,c
  2001  003E54  EF73  F02C         	goto	l16470
  2002  003E58  D00E               	goto	l15244
  2003  003E5A                     l1656:
  2004  003E5A  8C91               	bsf	3985,6,c	;volatile
  2005  003E5C  0E54               	movlw	84
  2006  003E5E  ECC4  F039         	call	_Delay10TCYx
  2007  003E62  0E54               	movlw	84
  2008  003E64  ECC4  F039         	call	_Delay10TCYx
  2009  003E68  9C91               	bcf	3985,6,c	;volatile
  2010  003E6A  0E54               	movlw	84
  2011  003E6C  ECC4  F039         	call	_Delay10TCYx
  2012  003E70  0E54               	movlw	84
  2013  003E72  ECC4  F039         	call	_Delay10TCYx
  2014  003E76                     l15244:
  2015  003E76  502F               	movf	_ms_count3+1,w,c	;volatile
  2016  003E78  E10E               	bnz	l15250
  2017  003E7A  0EC9               	movlw	201
  2018  003E7C  5C2E               	subwf	_ms_count3,w,c	;volatile
  2019  003E7E  B0D8               	btfsc	status,0,c
  2020  003E80  D00A               	goto	l15250
  2021  003E82  EC74  F039         	call	_PB1pressed	;wreg free
  2022  003E86  0900               	iorlw	0
  2023  003E88  A4D8               	btfss	status,2,c
  2024  003E8A  D005               	goto	l15250
  2025  003E8C  EC60  F039         	call	_PB2pressed	;wreg free
  2026  003E90  0900               	iorlw	0
  2027  003E92  B4D8               	btfsc	status,2,c
  2028  003E94  D7E2               	goto	l1656
  2029  003E96                     l15250:
  2030  003E96  0E00               	movlw	0
  2031  003E98  6E2F               	movwf	_ms_count3+1,c	;volatile
  2032  003E9A  0E00               	movlw	0
  2033  003E9C  6E2E               	movwf	_ms_count3,c	;volatile
  2034  003E9E                     l15252:
  2035  003E9E  502F               	movf	_ms_count3+1,w,c	;volatile
  2036  003EA0  E10E               	bnz	l15258
  2037  003EA2  0E65               	movlw	101
  2038  003EA4  5C2E               	subwf	_ms_count3,w,c	;volatile
  2039  003EA6  B0D8               	btfsc	status,0,c
  2040  003EA8  D00A               	goto	l15258
  2041  003EAA  EC74  F039         	call	_PB1pressed	;wreg free
  2042  003EAE  0900               	iorlw	0
  2043  003EB0  A4D8               	btfss	status,2,c
  2044  003EB2  D005               	goto	l15258
  2045  003EB4  EC60  F039         	call	_PB2pressed	;wreg free
  2046  003EB8  0900               	iorlw	0
  2047  003EBA  B4D8               	btfsc	status,2,c
  2048  003EBC  D7F0               	goto	l15252
  2049  003EBE                     l15258:
  2050  003EBE  0E00               	movlw	0
  2051  003EC0  6E2F               	movwf	_ms_count3+1,c	;volatile
  2052  003EC2  0E00               	movlw	0
  2053  003EC4  6E2E               	movwf	_ms_count3,c	;volatile
  2054  003EC6  EC74  F039         	call	_PB1pressed	;wreg free
  2055  003ECA  0900               	iorlw	0
  2056  003ECC  A4D8               	btfss	status,2,c
  2057  003ECE  EF73  F02C         	goto	l16470
  2058  003ED2  EC60  F039         	call	_PB2pressed	;wreg free
  2059  003ED6  0900               	iorlw	0
  2060  003ED8  A4D8               	btfss	status,2,c
  2061  003EDA  EF73  F02C         	goto	l16470
  2062  003EDE  D00E               	goto	l15268
  2063  003EE0                     l1669:
  2064  003EE0  8C91               	bsf	3985,6,c	;volatile
  2065  003EE2  0E54               	movlw	84
  2066  003EE4  ECC4  F039         	call	_Delay10TCYx
  2067  003EE8  0E54               	movlw	84
  2068  003EEA  ECC4  F039         	call	_Delay10TCYx
  2069  003EEE  9C91               	bcf	3985,6,c	;volatile
  2070  003EF0  0E54               	movlw	84
  2071  003EF2  ECC4  F039         	call	_Delay10TCYx
  2072  003EF6  0E54               	movlw	84
  2073  003EF8  ECC4  F039         	call	_Delay10TCYx
  2074  003EFC                     l15268:
  2075  003EFC  502F               	movf	_ms_count3+1,w,c	;volatile
  2076  003EFE  E10E               	bnz	l15274
  2077  003F00  0EC9               	movlw	201
  2078  003F02  5C2E               	subwf	_ms_count3,w,c	;volatile
  2079  003F04  B0D8               	btfsc	status,0,c
  2080  003F06  D00A               	goto	l15274
  2081  003F08  EC74  F039         	call	_PB1pressed	;wreg free
  2082  003F0C  0900               	iorlw	0
  2083  003F0E  A4D8               	btfss	status,2,c
  2084  003F10  D005               	goto	l15274
  2085  003F12  EC60  F039         	call	_PB2pressed	;wreg free
  2086  003F16  0900               	iorlw	0
  2087  003F18  B4D8               	btfsc	status,2,c
  2088  003F1A  D7E2               	goto	l1669
  2089  003F1C                     l15274:
  2090  003F1C  0E00               	movlw	0
  2091  003F1E  6E2F               	movwf	_ms_count3+1,c	;volatile
  2092  003F20  0E00               	movlw	0
  2093  003F22  6E2E               	movwf	_ms_count3,c	;volatile
  2094  003F24                     l15276:
  2095  003F24  502F               	movf	_ms_count3+1,w,c	;volatile
  2096  003F26  E10E               	bnz	l15282
  2097  003F28  0E65               	movlw	101
  2098  003F2A  5C2E               	subwf	_ms_count3,w,c	;volatile
  2099  003F2C  B0D8               	btfsc	status,0,c
  2100  003F2E  D00A               	goto	l15282
  2101  003F30  EC74  F039         	call	_PB1pressed	;wreg free
  2102  003F34  0900               	iorlw	0
  2103  003F36  A4D8               	btfss	status,2,c
  2104  003F38  D005               	goto	l15282
  2105  003F3A  EC60  F039         	call	_PB2pressed	;wreg free
  2106  003F3E  0900               	iorlw	0
  2107  003F40  B4D8               	btfsc	status,2,c
  2108  003F42  D7F0               	goto	l15276
  2109  003F44                     l15282:
  2110  003F44  0E00               	movlw	0
  2111  003F46  6E2F               	movwf	_ms_count3+1,c	;volatile
  2112  003F48  0E00               	movlw	0
  2113  003F4A  6E2E               	movwf	_ms_count3,c	;volatile
  2114  003F4C  EC74  F039         	call	_PB1pressed	;wreg free
  2115  003F50  0900               	iorlw	0
  2116  003F52  A4D8               	btfss	status,2,c
  2117  003F54  EF73  F02C         	goto	l16470
  2118  003F58  EC60  F039         	call	_PB2pressed	;wreg free
  2119  003F5C  0900               	iorlw	0
  2120  003F5E  A4D8               	btfss	status,2,c
  2121  003F60  EF73  F02C         	goto	l16470
  2122  003F64  D00E               	goto	l15292
  2123  003F66                     l1682:
  2124  003F66  8C91               	bsf	3985,6,c	;volatile
  2125  003F68  0E5F               	movlw	95
  2126  003F6A  ECC4  F039         	call	_Delay10TCYx
  2127  003F6E  0E5F               	movlw	95
  2128  003F70  ECC4  F039         	call	_Delay10TCYx
  2129  003F74  9C91               	bcf	3985,6,c	;volatile
  2130  003F76  0E5F               	movlw	95
  2131  003F78  ECC4  F039         	call	_Delay10TCYx
  2132  003F7C  0E5F               	movlw	95
  2133  003F7E  ECC4  F039         	call	_Delay10TCYx
  2134  003F82                     l15292:
  2135  003F82  502F               	movf	_ms_count3+1,w,c	;volatile
  2136  003F84  E10E               	bnz	l15298
  2137  003F86  0EC9               	movlw	201
  2138  003F88  5C2E               	subwf	_ms_count3,w,c	;volatile
  2139  003F8A  B0D8               	btfsc	status,0,c
  2140  003F8C  D00A               	goto	l15298
  2141  003F8E  EC74  F039         	call	_PB1pressed	;wreg free
  2142  003F92  0900               	iorlw	0
  2143  003F94  A4D8               	btfss	status,2,c
  2144  003F96  D005               	goto	l15298
  2145  003F98  EC60  F039         	call	_PB2pressed	;wreg free
  2146  003F9C  0900               	iorlw	0
  2147  003F9E  B4D8               	btfsc	status,2,c
  2148  003FA0  D7E2               	goto	l1682
  2149  003FA2                     l15298:
  2150  003FA2  0E00               	movlw	0
  2151  003FA4  6E2F               	movwf	_ms_count3+1,c	;volatile
  2152  003FA6  0E00               	movlw	0
  2153  003FA8  6E2E               	movwf	_ms_count3,c	;volatile
  2154  003FAA                     l15300:
  2155  003FAA  502F               	movf	_ms_count3+1,w,c	;volatile
  2156  003FAC  E10E               	bnz	l15306
  2157  003FAE  0E65               	movlw	101
  2158  003FB0  5C2E               	subwf	_ms_count3,w,c	;volatile
  2159  003FB2  B0D8               	btfsc	status,0,c
  2160  003FB4  D00A               	goto	l15306
  2161  003FB6  EC74  F039         	call	_PB1pressed	;wreg free
  2162  003FBA  0900               	iorlw	0
  2163  003FBC  A4D8               	btfss	status,2,c
  2164  003FBE  D005               	goto	l15306
  2165  003FC0  EC60  F039         	call	_PB2pressed	;wreg free
  2166  003FC4  0900               	iorlw	0
  2167  003FC6  B4D8               	btfsc	status,2,c
  2168  003FC8  D7F0               	goto	l15300
  2169  003FCA                     l15306:
  2170  003FCA  0E00               	movlw	0
  2171  003FCC  6E2F               	movwf	_ms_count3+1,c	;volatile
  2172  003FCE  0E00               	movlw	0
  2173  003FD0  6E2E               	movwf	_ms_count3,c	;volatile
  2174  003FD2  EC74  F039         	call	_PB1pressed	;wreg free
  2175  003FD6  0900               	iorlw	0
  2176  003FD8  A4D8               	btfss	status,2,c
  2177  003FDA  EF73  F02C         	goto	l16470
  2178  003FDE  EC60  F039         	call	_PB2pressed	;wreg free
  2179  003FE2  0900               	iorlw	0
  2180  003FE4  A4D8               	btfss	status,2,c
  2181  003FE6  EF73  F02C         	goto	l16470
  2182  003FEA  D00E               	goto	l15316
  2183  003FEC                     l1695:
  2184  003FEC  8C91               	bsf	3985,6,c	;volatile
  2185  003FEE  0E5F               	movlw	95
  2186  003FF0  ECC4  F039         	call	_Delay10TCYx
  2187  003FF4  0E5F               	movlw	95
  2188  003FF6  ECC4  F039         	call	_Delay10TCYx
  2189  003FFA  9C91               	bcf	3985,6,c	;volatile
  2190  003FFC  0E5F               	movlw	95
  2191  003FFE  ECC4  F039         	call	_Delay10TCYx
  2192  004002  0E5F               	movlw	95
  2193  004004  ECC4  F039         	call	_Delay10TCYx
  2194  004008                     l15316:
  2195  004008  0E91               	movlw	145
  2196  00400A  5C2E               	subwf	_ms_count3,w,c	;volatile
  2197  00400C  0E01               	movlw	1
  2198  00400E  582F               	subwfb	_ms_count3+1,w,c	;volatile
  2199  004010  B0D8               	btfsc	status,0,c
  2200  004012  D00A               	goto	l15322
  2201  004014  EC74  F039         	call	_PB1pressed	;wreg free
  2202  004018  0900               	iorlw	0
  2203  00401A  A4D8               	btfss	status,2,c
  2204  00401C  D005               	goto	l15322
  2205  00401E  EC60  F039         	call	_PB2pressed	;wreg free
  2206  004022  0900               	iorlw	0
  2207  004024  B4D8               	btfsc	status,2,c
  2208  004026  D7E2               	goto	l1695
  2209  004028                     l15322:
  2210  004028  0E00               	movlw	0
  2211  00402A  6E2F               	movwf	_ms_count3+1,c	;volatile
  2212  00402C  0E00               	movlw	0
  2213  00402E  6E2E               	movwf	_ms_count3,c	;volatile
  2214  004030                     l15324:
  2215  004030  502F               	movf	_ms_count3+1,w,c	;volatile
  2216  004032  E10E               	bnz	l15330
  2217  004034  0E65               	movlw	101
  2218  004036  5C2E               	subwf	_ms_count3,w,c	;volatile
  2219  004038  B0D8               	btfsc	status,0,c
  2220  00403A  D00A               	goto	l15330
  2221  00403C  EC74  F039         	call	_PB1pressed	;wreg free
  2222  004040  0900               	iorlw	0
  2223  004042  A4D8               	btfss	status,2,c
  2224  004044  D005               	goto	l15330
  2225  004046  EC60  F039         	call	_PB2pressed	;wreg free
  2226  00404A  0900               	iorlw	0
  2227  00404C  B4D8               	btfsc	status,2,c
  2228  00404E  D7F0               	goto	l15324
  2229  004050                     l15330:
  2230  004050  0E00               	movlw	0
  2231  004052  6E2F               	movwf	_ms_count3+1,c	;volatile
  2232  004054  0E00               	movlw	0
  2233  004056  6E2E               	movwf	_ms_count3,c	;volatile
  2234  004058  EC74  F039         	call	_PB1pressed	;wreg free
  2235  00405C  0900               	iorlw	0
  2236  00405E  A4D8               	btfss	status,2,c
  2237  004060  EF73  F02C         	goto	l16470
  2238  004064  EC60  F039         	call	_PB2pressed	;wreg free
  2239  004068  0900               	iorlw	0
  2240  00406A  A4D8               	btfss	status,2,c
  2241  00406C  EF73  F02C         	goto	l16470
  2242  004070  D00E               	goto	l15340
  2243  004072                     l1708:
  2244  004072  8C91               	bsf	3985,6,c	;volatile
  2245  004074  0E54               	movlw	84
  2246  004076  ECC4  F039         	call	_Delay10TCYx
  2247  00407A  0E54               	movlw	84
  2248  00407C  ECC4  F039         	call	_Delay10TCYx
  2249  004080  9C91               	bcf	3985,6,c	;volatile
  2250  004082  0E54               	movlw	84
  2251  004084  ECC4  F039         	call	_Delay10TCYx
  2252  004088  0E54               	movlw	84
  2253  00408A  ECC4  F039         	call	_Delay10TCYx
  2254  00408E                     l15340:
  2255  00408E  502F               	movf	_ms_count3+1,w,c	;volatile
  2256  004090  E10E               	bnz	l15346
  2257  004092  0EC9               	movlw	201
  2258  004094  5C2E               	subwf	_ms_count3,w,c	;volatile
  2259  004096  B0D8               	btfsc	status,0,c
  2260  004098  D00A               	goto	l15346
  2261  00409A  EC74  F039         	call	_PB1pressed	;wreg free
  2262  00409E  0900               	iorlw	0
  2263  0040A0  A4D8               	btfss	status,2,c
  2264  0040A2  D005               	goto	l15346
  2265  0040A4  EC60  F039         	call	_PB2pressed	;wreg free
  2266  0040A8  0900               	iorlw	0
  2267  0040AA  B4D8               	btfsc	status,2,c
  2268  0040AC  D7E2               	goto	l1708
  2269  0040AE                     l15346:
  2270  0040AE  0E00               	movlw	0
  2271  0040B0  6E2F               	movwf	_ms_count3+1,c	;volatile
  2272  0040B2  0E00               	movlw	0
  2273  0040B4  6E2E               	movwf	_ms_count3,c	;volatile
  2274  0040B6                     l15348:
  2275  0040B6  502F               	movf	_ms_count3+1,w,c	;volatile
  2276  0040B8  E10E               	bnz	l15354
  2277  0040BA  0E65               	movlw	101
  2278  0040BC  5C2E               	subwf	_ms_count3,w,c	;volatile
  2279  0040BE  B0D8               	btfsc	status,0,c
  2280  0040C0  D00A               	goto	l15354
  2281  0040C2  EC74  F039         	call	_PB1pressed	;wreg free
  2282  0040C6  0900               	iorlw	0
  2283  0040C8  A4D8               	btfss	status,2,c
  2284  0040CA  D005               	goto	l15354
  2285  0040CC  EC60  F039         	call	_PB2pressed	;wreg free
  2286  0040D0  0900               	iorlw	0
  2287  0040D2  B4D8               	btfsc	status,2,c
  2288  0040D4  D7F0               	goto	l15348
  2289  0040D6                     l15354:
  2290  0040D6  0E00               	movlw	0
  2291  0040D8  6E2F               	movwf	_ms_count3+1,c	;volatile
  2292  0040DA  0E00               	movlw	0
  2293  0040DC  6E2E               	movwf	_ms_count3,c	;volatile
  2294  0040DE  EC74  F039         	call	_PB1pressed	;wreg free
  2295  0040E2  0900               	iorlw	0
  2296  0040E4  A4D8               	btfss	status,2,c
  2297  0040E6  EF73  F02C         	goto	l16470
  2298  0040EA  EC60  F039         	call	_PB2pressed	;wreg free
  2299  0040EE  0900               	iorlw	0
  2300  0040F0  A4D8               	btfss	status,2,c
  2301  0040F2  EF73  F02C         	goto	l16470
  2302  0040F6  D00E               	goto	l15364
  2303  0040F8                     l1721:
  2304  0040F8  8C91               	bsf	3985,6,c	;volatile
  2305  0040FA  0E54               	movlw	84
  2306  0040FC  ECC4  F039         	call	_Delay10TCYx
  2307  004100  0E54               	movlw	84
  2308  004102  ECC4  F039         	call	_Delay10TCYx
  2309  004106  9C91               	bcf	3985,6,c	;volatile
  2310  004108  0E54               	movlw	84
  2311  00410A  ECC4  F039         	call	_Delay10TCYx
  2312  00410E  0E54               	movlw	84
  2313  004110  ECC4  F039         	call	_Delay10TCYx
  2314  004114                     l15364:
  2315  004114  502F               	movf	_ms_count3+1,w,c	;volatile
  2316  004116  E10E               	bnz	l15370
  2317  004118  0EC9               	movlw	201
  2318  00411A  5C2E               	subwf	_ms_count3,w,c	;volatile
  2319  00411C  B0D8               	btfsc	status,0,c
  2320  00411E  D00A               	goto	l15370
  2321  004120  EC74  F039         	call	_PB1pressed	;wreg free
  2322  004124  0900               	iorlw	0
  2323  004126  A4D8               	btfss	status,2,c
  2324  004128  D005               	goto	l15370
  2325  00412A  EC60  F039         	call	_PB2pressed	;wreg free
  2326  00412E  0900               	iorlw	0
  2327  004130  B4D8               	btfsc	status,2,c
  2328  004132  D7E2               	goto	l1721
  2329  004134                     l15370:
  2330  004134  0E00               	movlw	0
  2331  004136  6E2F               	movwf	_ms_count3+1,c	;volatile
  2332  004138  0E00               	movlw	0
  2333  00413A  6E2E               	movwf	_ms_count3,c	;volatile
  2334  00413C                     l15372:
  2335  00413C  502F               	movf	_ms_count3+1,w,c	;volatile
  2336  00413E  E10E               	bnz	l15378
  2337  004140  0E65               	movlw	101
  2338  004142  5C2E               	subwf	_ms_count3,w,c	;volatile
  2339  004144  B0D8               	btfsc	status,0,c
  2340  004146  D00A               	goto	l15378
  2341  004148  EC74  F039         	call	_PB1pressed	;wreg free
  2342  00414C  0900               	iorlw	0
  2343  00414E  A4D8               	btfss	status,2,c
  2344  004150  D005               	goto	l15378
  2345  004152  EC60  F039         	call	_PB2pressed	;wreg free
  2346  004156  0900               	iorlw	0
  2347  004158  B4D8               	btfsc	status,2,c
  2348  00415A  D7F0               	goto	l15372
  2349  00415C                     l15378:
  2350  00415C  0E00               	movlw	0
  2351  00415E  6E2F               	movwf	_ms_count3+1,c	;volatile
  2352  004160  0E00               	movlw	0
  2353  004162  6E2E               	movwf	_ms_count3,c	;volatile
  2354  004164  EC74  F039         	call	_PB1pressed	;wreg free
  2355  004168  0900               	iorlw	0
  2356  00416A  A4D8               	btfss	status,2,c
  2357  00416C  EF73  F02C         	goto	l16470
  2358  004170  EC60  F039         	call	_PB2pressed	;wreg free
  2359  004174  0900               	iorlw	0
  2360  004176  A4D8               	btfss	status,2,c
  2361  004178  EF73  F02C         	goto	l16470
  2362  00417C  D00E               	goto	l15388
  2363  00417E                     l1734:
  2364  00417E  8C91               	bsf	3985,6,c	;volatile
  2365  004180  0E50               	movlw	80
  2366  004182  ECC4  F039         	call	_Delay10TCYx
  2367  004186  0E50               	movlw	80
  2368  004188  ECC4  F039         	call	_Delay10TCYx
  2369  00418C  9C91               	bcf	3985,6,c	;volatile
  2370  00418E  0E50               	movlw	80
  2371  004190  ECC4  F039         	call	_Delay10TCYx
  2372  004194  0E50               	movlw	80
  2373  004196  ECC4  F039         	call	_Delay10TCYx
  2374  00419A                     l15388:
  2375  00419A  502F               	movf	_ms_count3+1,w,c	;volatile
  2376  00419C  E10E               	bnz	l15394
  2377  00419E  0EC9               	movlw	201
  2378  0041A0  5C2E               	subwf	_ms_count3,w,c	;volatile
  2379  0041A2  B0D8               	btfsc	status,0,c
  2380  0041A4  D00A               	goto	l15394
  2381  0041A6  EC74  F039         	call	_PB1pressed	;wreg free
  2382  0041AA  0900               	iorlw	0
  2383  0041AC  A4D8               	btfss	status,2,c
  2384  0041AE  D005               	goto	l15394
  2385  0041B0  EC60  F039         	call	_PB2pressed	;wreg free
  2386  0041B4  0900               	iorlw	0
  2387  0041B6  B4D8               	btfsc	status,2,c
  2388  0041B8  D7E2               	goto	l1734
  2389  0041BA                     l15394:
  2390  0041BA  0E00               	movlw	0
  2391  0041BC  6E2F               	movwf	_ms_count3+1,c	;volatile
  2392  0041BE  0E00               	movlw	0
  2393  0041C0  6E2E               	movwf	_ms_count3,c	;volatile
  2394  0041C2                     l15396:
  2395  0041C2  502F               	movf	_ms_count3+1,w,c	;volatile
  2396  0041C4  E10E               	bnz	l15402
  2397  0041C6  0E65               	movlw	101
  2398  0041C8  5C2E               	subwf	_ms_count3,w,c	;volatile
  2399  0041CA  B0D8               	btfsc	status,0,c
  2400  0041CC  D00A               	goto	l15402
  2401  0041CE  EC74  F039         	call	_PB1pressed	;wreg free
  2402  0041D2  0900               	iorlw	0
  2403  0041D4  A4D8               	btfss	status,2,c
  2404  0041D6  D005               	goto	l15402
  2405  0041D8  EC60  F039         	call	_PB2pressed	;wreg free
  2406  0041DC  0900               	iorlw	0
  2407  0041DE  B4D8               	btfsc	status,2,c
  2408  0041E0  D7F0               	goto	l15396
  2409  0041E2                     l15402:
  2410  0041E2  0E00               	movlw	0
  2411  0041E4  6E2F               	movwf	_ms_count3+1,c	;volatile
  2412  0041E6  0E00               	movlw	0
  2413  0041E8  6E2E               	movwf	_ms_count3,c	;volatile
  2414  0041EA  EC74  F039         	call	_PB1pressed	;wreg free
  2415  0041EE  0900               	iorlw	0
  2416  0041F0  A4D8               	btfss	status,2,c
  2417  0041F2  EF73  F02C         	goto	l16470
  2418  0041F6  EC60  F039         	call	_PB2pressed	;wreg free
  2419  0041FA  0900               	iorlw	0
  2420  0041FC  A4D8               	btfss	status,2,c
  2421  0041FE  EF73  F02C         	goto	l16470
  2422  004202  D00E               	goto	l15412
  2423  004204                     l1747:
  2424  004204  8C91               	bsf	3985,6,c	;volatile
  2425  004206  0E47               	movlw	71
  2426  004208  ECC4  F039         	call	_Delay10TCYx
  2427  00420C  0E47               	movlw	71
  2428  00420E  ECC4  F039         	call	_Delay10TCYx
  2429  004212  9C91               	bcf	3985,6,c	;volatile
  2430  004214  0E47               	movlw	71
  2431  004216  ECC4  F039         	call	_Delay10TCYx
  2432  00421A  0E47               	movlw	71
  2433  00421C  ECC4  F039         	call	_Delay10TCYx
  2434  004220                     l15412:
  2435  004220  502F               	movf	_ms_count3+1,w,c	;volatile
  2436  004222  E10E               	bnz	l15418
  2437  004224  0EC9               	movlw	201
  2438  004226  5C2E               	subwf	_ms_count3,w,c	;volatile
  2439  004228  B0D8               	btfsc	status,0,c
  2440  00422A  D00A               	goto	l15418
  2441  00422C  EC74  F039         	call	_PB1pressed	;wreg free
  2442  004230  0900               	iorlw	0
  2443  004232  A4D8               	btfss	status,2,c
  2444  004234  D005               	goto	l15418
  2445  004236  EC60  F039         	call	_PB2pressed	;wreg free
  2446  00423A  0900               	iorlw	0
  2447  00423C  B4D8               	btfsc	status,2,c
  2448  00423E  D7E2               	goto	l1747
  2449  004240                     l15418:
  2450  004240  0E00               	movlw	0
  2451  004242  6E2F               	movwf	_ms_count3+1,c	;volatile
  2452  004244  0E00               	movlw	0
  2453  004246  6E2E               	movwf	_ms_count3,c	;volatile
  2454  004248                     l15420:
  2455  004248  502F               	movf	_ms_count3+1,w,c	;volatile
  2456  00424A  E10E               	bnz	l15426
  2457  00424C  0E65               	movlw	101
  2458  00424E  5C2E               	subwf	_ms_count3,w,c	;volatile
  2459  004250  B0D8               	btfsc	status,0,c
  2460  004252  D00A               	goto	l15426
  2461  004254  EC74  F039         	call	_PB1pressed	;wreg free
  2462  004258  0900               	iorlw	0
  2463  00425A  A4D8               	btfss	status,2,c
  2464  00425C  D005               	goto	l15426
  2465  00425E  EC60  F039         	call	_PB2pressed	;wreg free
  2466  004262  0900               	iorlw	0
  2467  004264  B4D8               	btfsc	status,2,c
  2468  004266  D7F0               	goto	l15420
  2469  004268                     l15426:
  2470  004268  0E00               	movlw	0
  2471  00426A  6E2F               	movwf	_ms_count3+1,c	;volatile
  2472  00426C  0E00               	movlw	0
  2473  00426E  6E2E               	movwf	_ms_count3,c	;volatile
  2474  004270  EC74  F039         	call	_PB1pressed	;wreg free
  2475  004274  0900               	iorlw	0
  2476  004276  A4D8               	btfss	status,2,c
  2477  004278  EF73  F02C         	goto	l16470
  2478  00427C  EC60  F039         	call	_PB2pressed	;wreg free
  2479  004280  0900               	iorlw	0
  2480  004282  A4D8               	btfss	status,2,c
  2481  004284  EF73  F02C         	goto	l16470
  2482  004288  D00E               	goto	l15436
  2483  00428A                     l1760:
  2484  00428A  8C91               	bsf	3985,6,c	;volatile
  2485  00428C  0E47               	movlw	71
  2486  00428E  ECC4  F039         	call	_Delay10TCYx
  2487  004292  0E47               	movlw	71
  2488  004294  ECC4  F039         	call	_Delay10TCYx
  2489  004298  9C91               	bcf	3985,6,c	;volatile
  2490  00429A  0E47               	movlw	71
  2491  00429C  ECC4  F039         	call	_Delay10TCYx
  2492  0042A0  0E47               	movlw	71
  2493  0042A2  ECC4  F039         	call	_Delay10TCYx
  2494  0042A6                     l15436:
  2495  0042A6  502F               	movf	_ms_count3+1,w,c	;volatile
  2496  0042A8  E10E               	bnz	l15442
  2497  0042AA  0EC9               	movlw	201
  2498  0042AC  5C2E               	subwf	_ms_count3,w,c	;volatile
  2499  0042AE  B0D8               	btfsc	status,0,c
  2500  0042B0  D00A               	goto	l15442
  2501  0042B2  EC74  F039         	call	_PB1pressed	;wreg free
  2502  0042B6  0900               	iorlw	0
  2503  0042B8  A4D8               	btfss	status,2,c
  2504  0042BA  D005               	goto	l15442
  2505  0042BC  EC60  F039         	call	_PB2pressed	;wreg free
  2506  0042C0  0900               	iorlw	0
  2507  0042C2  B4D8               	btfsc	status,2,c
  2508  0042C4  D7E2               	goto	l1760
  2509  0042C6                     l15442:
  2510  0042C6  0E00               	movlw	0
  2511  0042C8  6E2F               	movwf	_ms_count3+1,c	;volatile
  2512  0042CA  0E00               	movlw	0
  2513  0042CC  6E2E               	movwf	_ms_count3,c	;volatile
  2514  0042CE                     l15444:
  2515  0042CE  502F               	movf	_ms_count3+1,w,c	;volatile
  2516  0042D0  E10E               	bnz	l15450
  2517  0042D2  0E65               	movlw	101
  2518  0042D4  5C2E               	subwf	_ms_count3,w,c	;volatile
  2519  0042D6  B0D8               	btfsc	status,0,c
  2520  0042D8  D00A               	goto	l15450
  2521  0042DA  EC74  F039         	call	_PB1pressed	;wreg free
  2522  0042DE  0900               	iorlw	0
  2523  0042E0  A4D8               	btfss	status,2,c
  2524  0042E2  D005               	goto	l15450
  2525  0042E4  EC60  F039         	call	_PB2pressed	;wreg free
  2526  0042E8  0900               	iorlw	0
  2527  0042EA  B4D8               	btfsc	status,2,c
  2528  0042EC  D7F0               	goto	l15444
  2529  0042EE                     l15450:
  2530  0042EE  0E00               	movlw	0
  2531  0042F0  6E2F               	movwf	_ms_count3+1,c	;volatile
  2532  0042F2  0E00               	movlw	0
  2533  0042F4  6E2E               	movwf	_ms_count3,c	;volatile
  2534  0042F6  EC74  F039         	call	_PB1pressed	;wreg free
  2535  0042FA  0900               	iorlw	0
  2536  0042FC  A4D8               	btfss	status,2,c
  2537  0042FE  EF73  F02C         	goto	l16470
  2538  004302  EC60  F039         	call	_PB2pressed	;wreg free
  2539  004306  0900               	iorlw	0
  2540  004308  A4D8               	btfss	status,2,c
  2541  00430A  EF73  F02C         	goto	l16470
  2542  00430E  D00E               	goto	l15460
  2543  004310                     l1773:
  2544  004310  8C91               	bsf	3985,6,c	;volatile
  2545  004312  0E50               	movlw	80
  2546  004314  ECC4  F039         	call	_Delay10TCYx
  2547  004318  0E50               	movlw	80
  2548  00431A  ECC4  F039         	call	_Delay10TCYx
  2549  00431E  9C91               	bcf	3985,6,c	;volatile
  2550  004320  0E50               	movlw	80
  2551  004322  ECC4  F039         	call	_Delay10TCYx
  2552  004326  0E50               	movlw	80
  2553  004328  ECC4  F039         	call	_Delay10TCYx
  2554  00432C                     l15460:
  2555  00432C  502F               	movf	_ms_count3+1,w,c	;volatile
  2556  00432E  E10E               	bnz	l15466
  2557  004330  0EC9               	movlw	201
  2558  004332  5C2E               	subwf	_ms_count3,w,c	;volatile
  2559  004334  B0D8               	btfsc	status,0,c
  2560  004336  D00A               	goto	l15466
  2561  004338  EC74  F039         	call	_PB1pressed	;wreg free
  2562  00433C  0900               	iorlw	0
  2563  00433E  A4D8               	btfss	status,2,c
  2564  004340  D005               	goto	l15466
  2565  004342  EC60  F039         	call	_PB2pressed	;wreg free
  2566  004346  0900               	iorlw	0
  2567  004348  B4D8               	btfsc	status,2,c
  2568  00434A  D7E2               	goto	l1773
  2569  00434C                     l15466:
  2570  00434C  0E00               	movlw	0
  2571  00434E  6E2F               	movwf	_ms_count3+1,c	;volatile
  2572  004350  0E00               	movlw	0
  2573  004352  6E2E               	movwf	_ms_count3,c	;volatile
  2574  004354                     l15468:
  2575  004354  502F               	movf	_ms_count3+1,w,c	;volatile
  2576  004356  E10E               	bnz	l15474
  2577  004358  0E65               	movlw	101
  2578  00435A  5C2E               	subwf	_ms_count3,w,c	;volatile
  2579  00435C  B0D8               	btfsc	status,0,c
  2580  00435E  D00A               	goto	l15474
  2581  004360  EC74  F039         	call	_PB1pressed	;wreg free
  2582  004364  0900               	iorlw	0
  2583  004366  A4D8               	btfss	status,2,c
  2584  004368  D005               	goto	l15474
  2585  00436A  EC60  F039         	call	_PB2pressed	;wreg free
  2586  00436E  0900               	iorlw	0
  2587  004370  B4D8               	btfsc	status,2,c
  2588  004372  D7F0               	goto	l15468
  2589  004374                     l15474:
  2590  004374  0E00               	movlw	0
  2591  004376  6E2F               	movwf	_ms_count3+1,c	;volatile
  2592  004378  0E00               	movlw	0
  2593  00437A  6E2E               	movwf	_ms_count3,c	;volatile
  2594  00437C  EC74  F039         	call	_PB1pressed	;wreg free
  2595  004380  0900               	iorlw	0
  2596  004382  A4D8               	btfss	status,2,c
  2597  004384  EF73  F02C         	goto	l16470
  2598  004388  EC60  F039         	call	_PB2pressed	;wreg free
  2599  00438C  0900               	iorlw	0
  2600  00438E  A4D8               	btfss	status,2,c
  2601  004390  EF73  F02C         	goto	l16470
  2602  004394  D00E               	goto	l15484
  2603  004396                     l1786:
  2604  004396  8C91               	bsf	3985,6,c	;volatile
  2605  004398  0E54               	movlw	84
  2606  00439A  ECC4  F039         	call	_Delay10TCYx
  2607  00439E  0E54               	movlw	84
  2608  0043A0  ECC4  F039         	call	_Delay10TCYx
  2609  0043A4  9C91               	bcf	3985,6,c	;volatile
  2610  0043A6  0E54               	movlw	84
  2611  0043A8  ECC4  F039         	call	_Delay10TCYx
  2612  0043AC  0E54               	movlw	84
  2613  0043AE  ECC4  F039         	call	_Delay10TCYx
  2614  0043B2                     l15484:
  2615  0043B2  502F               	movf	_ms_count3+1,w,c	;volatile
  2616  0043B4  E10E               	bnz	l15490
  2617  0043B6  0EC9               	movlw	201
  2618  0043B8  5C2E               	subwf	_ms_count3,w,c	;volatile
  2619  0043BA  B0D8               	btfsc	status,0,c
  2620  0043BC  D00A               	goto	l15490
  2621  0043BE  EC74  F039         	call	_PB1pressed	;wreg free
  2622  0043C2  0900               	iorlw	0
  2623  0043C4  A4D8               	btfss	status,2,c
  2624  0043C6  D005               	goto	l15490
  2625  0043C8  EC60  F039         	call	_PB2pressed	;wreg free
  2626  0043CC  0900               	iorlw	0
  2627  0043CE  B4D8               	btfsc	status,2,c
  2628  0043D0  D7E2               	goto	l1786
  2629  0043D2                     l15490:
  2630  0043D2  0E00               	movlw	0
  2631  0043D4  6E2F               	movwf	_ms_count3+1,c	;volatile
  2632  0043D6  0E00               	movlw	0
  2633  0043D8  6E2E               	movwf	_ms_count3,c	;volatile
  2634  0043DA                     l15492:
  2635  0043DA  502F               	movf	_ms_count3+1,w,c	;volatile
  2636  0043DC  E10E               	bnz	l15498
  2637  0043DE  0E65               	movlw	101
  2638  0043E0  5C2E               	subwf	_ms_count3,w,c	;volatile
  2639  0043E2  B0D8               	btfsc	status,0,c
  2640  0043E4  D00A               	goto	l15498
  2641  0043E6  EC74  F039         	call	_PB1pressed	;wreg free
  2642  0043EA  0900               	iorlw	0
  2643  0043EC  A4D8               	btfss	status,2,c
  2644  0043EE  D005               	goto	l15498
  2645  0043F0  EC60  F039         	call	_PB2pressed	;wreg free
  2646  0043F4  0900               	iorlw	0
  2647  0043F6  B4D8               	btfsc	status,2,c
  2648  0043F8  D7F0               	goto	l15492
  2649  0043FA                     l15498:
  2650  0043FA  0E00               	movlw	0
  2651  0043FC  6E2F               	movwf	_ms_count3+1,c	;volatile
  2652  0043FE  0E00               	movlw	0
  2653  004400  6E2E               	movwf	_ms_count3,c	;volatile
  2654  004402  EC74  F039         	call	_PB1pressed	;wreg free
  2655  004406  0900               	iorlw	0
  2656  004408  A4D8               	btfss	status,2,c
  2657  00440A  EF73  F02C         	goto	l16470
  2658  00440E  EC60  F039         	call	_PB2pressed	;wreg free
  2659  004412  0900               	iorlw	0
  2660  004414  A4D8               	btfss	status,2,c
  2661  004416  EF73  F02C         	goto	l16470
  2662  00441A  D00E               	goto	l15508
  2663  00441C                     l1799:
  2664  00441C  8C91               	bsf	3985,6,c	;volatile
  2665  00441E  0E5F               	movlw	95
  2666  004420  ECC4  F039         	call	_Delay10TCYx
  2667  004424  0E5F               	movlw	95
  2668  004426  ECC4  F039         	call	_Delay10TCYx
  2669  00442A  9C91               	bcf	3985,6,c	;volatile
  2670  00442C  0E5F               	movlw	95
  2671  00442E  ECC4  F039         	call	_Delay10TCYx
  2672  004432  0E5F               	movlw	95
  2673  004434  ECC4  F039         	call	_Delay10TCYx
  2674  004438                     l15508:
  2675  004438  502F               	movf	_ms_count3+1,w,c	;volatile
  2676  00443A  E10E               	bnz	l15514
  2677  00443C  0EC9               	movlw	201
  2678  00443E  5C2E               	subwf	_ms_count3,w,c	;volatile
  2679  004440  B0D8               	btfsc	status,0,c
  2680  004442  D00A               	goto	l15514
  2681  004444  EC74  F039         	call	_PB1pressed	;wreg free
  2682  004448  0900               	iorlw	0
  2683  00444A  A4D8               	btfss	status,2,c
  2684  00444C  D005               	goto	l15514
  2685  00444E  EC60  F039         	call	_PB2pressed	;wreg free
  2686  004452  0900               	iorlw	0
  2687  004454  B4D8               	btfsc	status,2,c
  2688  004456  D7E2               	goto	l1799
  2689  004458                     l15514:
  2690  004458  0E00               	movlw	0
  2691  00445A  6E2F               	movwf	_ms_count3+1,c	;volatile
  2692  00445C  0E00               	movlw	0
  2693  00445E  6E2E               	movwf	_ms_count3,c	;volatile
  2694  004460                     l15516:
  2695  004460  502F               	movf	_ms_count3+1,w,c	;volatile
  2696  004462  E10E               	bnz	l15522
  2697  004464  0E65               	movlw	101
  2698  004466  5C2E               	subwf	_ms_count3,w,c	;volatile
  2699  004468  B0D8               	btfsc	status,0,c
  2700  00446A  D00A               	goto	l15522
  2701  00446C  EC74  F039         	call	_PB1pressed	;wreg free
  2702  004470  0900               	iorlw	0
  2703  004472  A4D8               	btfss	status,2,c
  2704  004474  D005               	goto	l15522
  2705  004476  EC60  F039         	call	_PB2pressed	;wreg free
  2706  00447A  0900               	iorlw	0
  2707  00447C  B4D8               	btfsc	status,2,c
  2708  00447E  D7F0               	goto	l15516
  2709  004480                     l15522:
  2710  004480  0E00               	movlw	0
  2711  004482  6E2F               	movwf	_ms_count3+1,c	;volatile
  2712  004484  0E00               	movlw	0
  2713  004486  6E2E               	movwf	_ms_count3,c	;volatile
  2714  004488  EC74  F039         	call	_PB1pressed	;wreg free
  2715  00448C  0900               	iorlw	0
  2716  00448E  A4D8               	btfss	status,2,c
  2717  004490  EF73  F02C         	goto	l16470
  2718  004494  EC60  F039         	call	_PB2pressed	;wreg free
  2719  004498  0900               	iorlw	0
  2720  00449A  A4D8               	btfss	status,2,c
  2721  00449C  EF73  F02C         	goto	l16470
  2722  0044A0  D00E               	goto	l15532
  2723  0044A2                     l1812:
  2724  0044A2  8C91               	bsf	3985,6,c	;volatile
  2725  0044A4  0E6A               	movlw	106
  2726  0044A6  ECC4  F039         	call	_Delay10TCYx
  2727  0044AA  0E6A               	movlw	106
  2728  0044AC  ECC4  F039         	call	_Delay10TCYx
  2729  0044B0  9C91               	bcf	3985,6,c	;volatile
  2730  0044B2  0E6A               	movlw	106
  2731  0044B4  ECC4  F039         	call	_Delay10TCYx
  2732  0044B8  0E6A               	movlw	106
  2733  0044BA  ECC4  F039         	call	_Delay10TCYx
  2734  0044BE                     l15532:
  2735  0044BE  502F               	movf	_ms_count3+1,w,c	;volatile
  2736  0044C0  E10E               	bnz	l15538
  2737  0044C2  0EC9               	movlw	201
  2738  0044C4  5C2E               	subwf	_ms_count3,w,c	;volatile
  2739  0044C6  B0D8               	btfsc	status,0,c
  2740  0044C8  D00A               	goto	l15538
  2741  0044CA  EC74  F039         	call	_PB1pressed	;wreg free
  2742  0044CE  0900               	iorlw	0
  2743  0044D0  A4D8               	btfss	status,2,c
  2744  0044D2  D005               	goto	l15538
  2745  0044D4  EC60  F039         	call	_PB2pressed	;wreg free
  2746  0044D8  0900               	iorlw	0
  2747  0044DA  B4D8               	btfsc	status,2,c
  2748  0044DC  D7E2               	goto	l1812
  2749  0044DE                     l15538:
  2750  0044DE  0E00               	movlw	0
  2751  0044E0  6E2F               	movwf	_ms_count3+1,c	;volatile
  2752  0044E2  0E00               	movlw	0
  2753  0044E4  6E2E               	movwf	_ms_count3,c	;volatile
  2754  0044E6                     l15540:
  2755  0044E6  502F               	movf	_ms_count3+1,w,c	;volatile
  2756  0044E8  E10E               	bnz	l15546
  2757  0044EA  0E65               	movlw	101
  2758  0044EC  5C2E               	subwf	_ms_count3,w,c	;volatile
  2759  0044EE  B0D8               	btfsc	status,0,c
  2760  0044F0  D00A               	goto	l15546
  2761  0044F2  EC74  F039         	call	_PB1pressed	;wreg free
  2762  0044F6  0900               	iorlw	0
  2763  0044F8  A4D8               	btfss	status,2,c
  2764  0044FA  D005               	goto	l15546
  2765  0044FC  EC60  F039         	call	_PB2pressed	;wreg free
  2766  004500  0900               	iorlw	0
  2767  004502  B4D8               	btfsc	status,2,c
  2768  004504  D7F0               	goto	l15540
  2769  004506                     l15546:
  2770  004506  0E00               	movlw	0
  2771  004508  6E2F               	movwf	_ms_count3+1,c	;volatile
  2772  00450A  0E00               	movlw	0
  2773  00450C  6E2E               	movwf	_ms_count3,c	;volatile
  2774  00450E  EC74  F039         	call	_PB1pressed	;wreg free
  2775  004512  0900               	iorlw	0
  2776  004514  A4D8               	btfss	status,2,c
  2777  004516  EF73  F02C         	goto	l16470
  2778  00451A  EC60  F039         	call	_PB2pressed	;wreg free
  2779  00451E  0900               	iorlw	0
  2780  004520  A4D8               	btfss	status,2,c
  2781  004522  EF73  F02C         	goto	l16470
  2782  004526  D00E               	goto	l15556
  2783  004528                     l1825:
  2784  004528  8C91               	bsf	3985,6,c	;volatile
  2785  00452A  0E6A               	movlw	106
  2786  00452C  ECC4  F039         	call	_Delay10TCYx
  2787  004530  0E6A               	movlw	106
  2788  004532  ECC4  F039         	call	_Delay10TCYx
  2789  004536  9C91               	bcf	3985,6,c	;volatile
  2790  004538  0E6A               	movlw	106
  2791  00453A  ECC4  F039         	call	_Delay10TCYx
  2792  00453E  0E6A               	movlw	106
  2793  004540  ECC4  F039         	call	_Delay10TCYx
  2794  004544                     l15556:
  2795  004544  502F               	movf	_ms_count3+1,w,c	;volatile
  2796  004546  E10E               	bnz	l15562
  2797  004548  0EC9               	movlw	201
  2798  00454A  5C2E               	subwf	_ms_count3,w,c	;volatile
  2799  00454C  B0D8               	btfsc	status,0,c
  2800  00454E  D00A               	goto	l15562
  2801  004550  EC74  F039         	call	_PB1pressed	;wreg free
  2802  004554  0900               	iorlw	0
  2803  004556  A4D8               	btfss	status,2,c
  2804  004558  D005               	goto	l15562
  2805  00455A  EC60  F039         	call	_PB2pressed	;wreg free
  2806  00455E  0900               	iorlw	0
  2807  004560  B4D8               	btfsc	status,2,c
  2808  004562  D7E2               	goto	l1825
  2809  004564                     l15562:
  2810  004564  0E00               	movlw	0
  2811  004566  6E2F               	movwf	_ms_count3+1,c	;volatile
  2812  004568  0E00               	movlw	0
  2813  00456A  6E2E               	movwf	_ms_count3,c	;volatile
  2814  00456C                     l15564:
  2815  00456C  502F               	movf	_ms_count3+1,w,c	;volatile
  2816  00456E  E10E               	bnz	l15570
  2817  004570  0E65               	movlw	101
  2818  004572  5C2E               	subwf	_ms_count3,w,c	;volatile
  2819  004574  B0D8               	btfsc	status,0,c
  2820  004576  D00A               	goto	l15570
  2821  004578  EC74  F039         	call	_PB1pressed	;wreg free
  2822  00457C  0900               	iorlw	0
  2823  00457E  A4D8               	btfss	status,2,c
  2824  004580  D005               	goto	l15570
  2825  004582  EC60  F039         	call	_PB2pressed	;wreg free
  2826  004586  0900               	iorlw	0
  2827  004588  B4D8               	btfsc	status,2,c
  2828  00458A  D7F0               	goto	l15564
  2829  00458C                     l15570:
  2830  00458C  0E00               	movlw	0
  2831  00458E  6E2F               	movwf	_ms_count3+1,c	;volatile
  2832  004590  0E00               	movlw	0
  2833  004592  6E2E               	movwf	_ms_count3,c	;volatile
  2834  004594  EC74  F039         	call	_PB1pressed	;wreg free
  2835  004598  0900               	iorlw	0
  2836  00459A  A4D8               	btfss	status,2,c
  2837  00459C  EF73  F02C         	goto	l16470
  2838  0045A0  EC60  F039         	call	_PB2pressed	;wreg free
  2839  0045A4  0900               	iorlw	0
  2840  0045A6  A4D8               	btfss	status,2,c
  2841  0045A8  EF73  F02C         	goto	l16470
  2842  0045AC  D00E               	goto	l15580
  2843  0045AE                     l1838:
  2844  0045AE  8C91               	bsf	3985,6,c	;volatile
  2845  0045B0  0E5F               	movlw	95
  2846  0045B2  ECC4  F039         	call	_Delay10TCYx
  2847  0045B6  0E5F               	movlw	95
  2848  0045B8  ECC4  F039         	call	_Delay10TCYx
  2849  0045BC  9C91               	bcf	3985,6,c	;volatile
  2850  0045BE  0E5F               	movlw	95
  2851  0045C0  ECC4  F039         	call	_Delay10TCYx
  2852  0045C4  0E5F               	movlw	95
  2853  0045C6  ECC4  F039         	call	_Delay10TCYx
  2854  0045CA                     l15580:
  2855  0045CA  502F               	movf	_ms_count3+1,w,c	;volatile
  2856  0045CC  E10E               	bnz	l15586
  2857  0045CE  0EC9               	movlw	201
  2858  0045D0  5C2E               	subwf	_ms_count3,w,c	;volatile
  2859  0045D2  B0D8               	btfsc	status,0,c
  2860  0045D4  D00A               	goto	l15586
  2861  0045D6  EC74  F039         	call	_PB1pressed	;wreg free
  2862  0045DA  0900               	iorlw	0
  2863  0045DC  A4D8               	btfss	status,2,c
  2864  0045DE  D005               	goto	l15586
  2865  0045E0  EC60  F039         	call	_PB2pressed	;wreg free
  2866  0045E4  0900               	iorlw	0
  2867  0045E6  B4D8               	btfsc	status,2,c
  2868  0045E8  D7E2               	goto	l1838
  2869  0045EA                     l15586:
  2870  0045EA  0E00               	movlw	0
  2871  0045EC  6E2F               	movwf	_ms_count3+1,c	;volatile
  2872  0045EE  0E00               	movlw	0
  2873  0045F0  6E2E               	movwf	_ms_count3,c	;volatile
  2874  0045F2                     l15588:
  2875  0045F2  502F               	movf	_ms_count3+1,w,c	;volatile
  2876  0045F4  E10E               	bnz	l15594
  2877  0045F6  0E65               	movlw	101
  2878  0045F8  5C2E               	subwf	_ms_count3,w,c	;volatile
  2879  0045FA  B0D8               	btfsc	status,0,c
  2880  0045FC  D00A               	goto	l15594
  2881  0045FE  EC74  F039         	call	_PB1pressed	;wreg free
  2882  004602  0900               	iorlw	0
  2883  004604  A4D8               	btfss	status,2,c
  2884  004606  D005               	goto	l15594
  2885  004608  EC60  F039         	call	_PB2pressed	;wreg free
  2886  00460C  0900               	iorlw	0
  2887  00460E  B4D8               	btfsc	status,2,c
  2888  004610  D7F0               	goto	l15588
  2889  004612                     l15594:
  2890  004612  0E00               	movlw	0
  2891  004614  6E2F               	movwf	_ms_count3+1,c	;volatile
  2892  004616  0E00               	movlw	0
  2893  004618  6E2E               	movwf	_ms_count3,c	;volatile
  2894  00461A  EC74  F039         	call	_PB1pressed	;wreg free
  2895  00461E  0900               	iorlw	0
  2896  004620  A4D8               	btfss	status,2,c
  2897  004622  EF73  F02C         	goto	l16470
  2898  004626  EC60  F039         	call	_PB2pressed	;wreg free
  2899  00462A  0900               	iorlw	0
  2900  00462C  A4D8               	btfss	status,2,c
  2901  00462E  EF73  F02C         	goto	l16470
  2902  004632  D00E               	goto	l15604
  2903  004634                     l1851:
  2904  004634  8C91               	bsf	3985,6,c	;volatile
  2905  004636  0E54               	movlw	84
  2906  004638  ECC4  F039         	call	_Delay10TCYx
  2907  00463C  0E54               	movlw	84
  2908  00463E  ECC4  F039         	call	_Delay10TCYx
  2909  004642  9C91               	bcf	3985,6,c	;volatile
  2910  004644  0E54               	movlw	84
  2911  004646  ECC4  F039         	call	_Delay10TCYx
  2912  00464A  0E54               	movlw	84
  2913  00464C  ECC4  F039         	call	_Delay10TCYx
  2914  004650                     l15604:
  2915  004650  502F               	movf	_ms_count3+1,w,c	;volatile
  2916  004652  E10E               	bnz	l15610
  2917  004654  0EC9               	movlw	201
  2918  004656  5C2E               	subwf	_ms_count3,w,c	;volatile
  2919  004658  B0D8               	btfsc	status,0,c
  2920  00465A  D00A               	goto	l15610
  2921  00465C  EC74  F039         	call	_PB1pressed	;wreg free
  2922  004660  0900               	iorlw	0
  2923  004662  A4D8               	btfss	status,2,c
  2924  004664  D005               	goto	l15610
  2925  004666  EC60  F039         	call	_PB2pressed	;wreg free
  2926  00466A  0900               	iorlw	0
  2927  00466C  B4D8               	btfsc	status,2,c
  2928  00466E  D7E2               	goto	l1851
  2929  004670                     l15610:
  2930  004670  0E00               	movlw	0
  2931  004672  6E2F               	movwf	_ms_count3+1,c	;volatile
  2932  004674  0E00               	movlw	0
  2933  004676  6E2E               	movwf	_ms_count3,c	;volatile
  2934  004678                     l15612:
  2935  004678  502F               	movf	_ms_count3+1,w,c	;volatile
  2936  00467A  E10E               	bnz	l15618
  2937  00467C  0E65               	movlw	101
  2938  00467E  5C2E               	subwf	_ms_count3,w,c	;volatile
  2939  004680  B0D8               	btfsc	status,0,c
  2940  004682  D00A               	goto	l15618
  2941  004684  EC74  F039         	call	_PB1pressed	;wreg free
  2942  004688  0900               	iorlw	0
  2943  00468A  A4D8               	btfss	status,2,c
  2944  00468C  D005               	goto	l15618
  2945  00468E  EC60  F039         	call	_PB2pressed	;wreg free
  2946  004692  0900               	iorlw	0
  2947  004694  B4D8               	btfsc	status,2,c
  2948  004696  D7F0               	goto	l15612
  2949  004698                     l15618:
  2950  004698  0E00               	movlw	0
  2951  00469A  6E2F               	movwf	_ms_count3+1,c	;volatile
  2952  00469C  0E00               	movlw	0
  2953  00469E  6E2E               	movwf	_ms_count3,c	;volatile
  2954  0046A0  EC74  F039         	call	_PB1pressed	;wreg free
  2955  0046A4  0900               	iorlw	0
  2956  0046A6  A4D8               	btfss	status,2,c
  2957  0046A8  EF73  F02C         	goto	l16470
  2958  0046AC  EC60  F039         	call	_PB2pressed	;wreg free
  2959  0046B0  0900               	iorlw	0
  2960  0046B2  A4D8               	btfss	status,2,c
  2961  0046B4  EF73  F02C         	goto	l16470
  2962  0046B8  D00E               	goto	l15628
  2963  0046BA                     l1864:
  2964  0046BA  8C91               	bsf	3985,6,c	;volatile
  2965  0046BC  0E5F               	movlw	95
  2966  0046BE  ECC4  F039         	call	_Delay10TCYx
  2967  0046C2  0E5F               	movlw	95
  2968  0046C4  ECC4  F039         	call	_Delay10TCYx
  2969  0046C8  9C91               	bcf	3985,6,c	;volatile
  2970  0046CA  0E5F               	movlw	95
  2971  0046CC  ECC4  F039         	call	_Delay10TCYx
  2972  0046D0  0E5F               	movlw	95
  2973  0046D2  ECC4  F039         	call	_Delay10TCYx
  2974  0046D6                     l15628:
  2975  0046D6  502F               	movf	_ms_count3+1,w,c	;volatile
  2976  0046D8  E10E               	bnz	l15634
  2977  0046DA  0EC9               	movlw	201
  2978  0046DC  5C2E               	subwf	_ms_count3,w,c	;volatile
  2979  0046DE  B0D8               	btfsc	status,0,c
  2980  0046E0  D00A               	goto	l15634
  2981  0046E2  EC74  F039         	call	_PB1pressed	;wreg free
  2982  0046E6  0900               	iorlw	0
  2983  0046E8  A4D8               	btfss	status,2,c
  2984  0046EA  D005               	goto	l15634
  2985  0046EC  EC60  F039         	call	_PB2pressed	;wreg free
  2986  0046F0  0900               	iorlw	0
  2987  0046F2  B4D8               	btfsc	status,2,c
  2988  0046F4  D7E2               	goto	l1864
  2989  0046F6                     l15634:
  2990  0046F6  0E00               	movlw	0
  2991  0046F8  6E2F               	movwf	_ms_count3+1,c	;volatile
  2992  0046FA  0E00               	movlw	0
  2993  0046FC  6E2E               	movwf	_ms_count3,c	;volatile
  2994  0046FE                     l15636:
  2995  0046FE  502F               	movf	_ms_count3+1,w,c	;volatile
  2996  004700  E10E               	bnz	l15642
  2997  004702  0E65               	movlw	101
  2998  004704  5C2E               	subwf	_ms_count3,w,c	;volatile
  2999  004706  B0D8               	btfsc	status,0,c
  3000  004708  D00A               	goto	l15642
  3001  00470A  EC74  F039         	call	_PB1pressed	;wreg free
  3002  00470E  0900               	iorlw	0
  3003  004710  A4D8               	btfss	status,2,c
  3004  004712  D005               	goto	l15642
  3005  004714  EC60  F039         	call	_PB2pressed	;wreg free
  3006  004718  0900               	iorlw	0
  3007  00471A  B4D8               	btfsc	status,2,c
  3008  00471C  D7F0               	goto	l15636
  3009  00471E                     l15642:
  3010  00471E  0E00               	movlw	0
  3011  004720  6E2F               	movwf	_ms_count3+1,c	;volatile
  3012  004722  0E00               	movlw	0
  3013  004724  6E2E               	movwf	_ms_count3,c	;volatile
  3014  004726  EC74  F039         	call	_PB1pressed	;wreg free
  3015  00472A  0900               	iorlw	0
  3016  00472C  A4D8               	btfss	status,2,c
  3017  00472E  EF73  F02C         	goto	l16470
  3018  004732  EC60  F039         	call	_PB2pressed	;wreg free
  3019  004736  0900               	iorlw	0
  3020  004738  A4D8               	btfss	status,2,c
  3021  00473A  EF73  F02C         	goto	l16470
  3022  00473E  D00E               	goto	l15652
  3023  004740                     l1877:
  3024  004740  8C91               	bsf	3985,6,c	;volatile
  3025  004742  0E6A               	movlw	106
  3026  004744  ECC4  F039         	call	_Delay10TCYx
  3027  004748  0E6A               	movlw	106
  3028  00474A  ECC4  F039         	call	_Delay10TCYx
  3029  00474E  9C91               	bcf	3985,6,c	;volatile
  3030  004750  0E6A               	movlw	106
  3031  004752  ECC4  F039         	call	_Delay10TCYx
  3032  004756  0E6A               	movlw	106
  3033  004758  ECC4  F039         	call	_Delay10TCYx
  3034  00475C                     l15652:
  3035  00475C  502F               	movf	_ms_count3+1,w,c	;volatile
  3036  00475E  E10E               	bnz	l15658
  3037  004760  0EC9               	movlw	201
  3038  004762  5C2E               	subwf	_ms_count3,w,c	;volatile
  3039  004764  B0D8               	btfsc	status,0,c
  3040  004766  D00A               	goto	l15658
  3041  004768  EC74  F039         	call	_PB1pressed	;wreg free
  3042  00476C  0900               	iorlw	0
  3043  00476E  A4D8               	btfss	status,2,c
  3044  004770  D005               	goto	l15658
  3045  004772  EC60  F039         	call	_PB2pressed	;wreg free
  3046  004776  0900               	iorlw	0
  3047  004778  B4D8               	btfsc	status,2,c
  3048  00477A  D7E2               	goto	l1877
  3049  00477C                     l15658:
  3050  00477C  0E00               	movlw	0
  3051  00477E  6E2F               	movwf	_ms_count3+1,c	;volatile
  3052  004780  0E00               	movlw	0
  3053  004782  6E2E               	movwf	_ms_count3,c	;volatile
  3054  004784                     l15660:
  3055  004784  502F               	movf	_ms_count3+1,w,c	;volatile
  3056  004786  E10E               	bnz	l15666
  3057  004788  0E65               	movlw	101
  3058  00478A  5C2E               	subwf	_ms_count3,w,c	;volatile
  3059  00478C  B0D8               	btfsc	status,0,c
  3060  00478E  D00A               	goto	l15666
  3061  004790  EC74  F039         	call	_PB1pressed	;wreg free
  3062  004794  0900               	iorlw	0
  3063  004796  A4D8               	btfss	status,2,c
  3064  004798  D005               	goto	l15666
  3065  00479A  EC60  F039         	call	_PB2pressed	;wreg free
  3066  00479E  0900               	iorlw	0
  3067  0047A0  B4D8               	btfsc	status,2,c
  3068  0047A2  D7F0               	goto	l15660
  3069  0047A4                     l15666:
  3070  0047A4  0E00               	movlw	0
  3071  0047A6  6E2F               	movwf	_ms_count3+1,c	;volatile
  3072  0047A8  0E00               	movlw	0
  3073  0047AA  6E2E               	movwf	_ms_count3,c	;volatile
  3074  0047AC  EC74  F039         	call	_PB1pressed	;wreg free
  3075  0047B0  0900               	iorlw	0
  3076  0047B2  A4D8               	btfss	status,2,c
  3077  0047B4  EF73  F02C         	goto	l16470
  3078  0047B8  EC60  F039         	call	_PB2pressed	;wreg free
  3079  0047BC  0900               	iorlw	0
  3080  0047BE  A4D8               	btfss	status,2,c
  3081  0047C0  EF73  F02C         	goto	l16470
  3082  0047C4  D00E               	goto	l15676
  3083  0047C6                     l1890:
  3084  0047C6  8C91               	bsf	3985,6,c	;volatile
  3085  0047C8  0E6A               	movlw	106
  3086  0047CA  ECC4  F039         	call	_Delay10TCYx
  3087  0047CE  0E6A               	movlw	106
  3088  0047D0  ECC4  F039         	call	_Delay10TCYx
  3089  0047D4  9C91               	bcf	3985,6,c	;volatile
  3090  0047D6  0E6A               	movlw	106
  3091  0047D8  ECC4  F039         	call	_Delay10TCYx
  3092  0047DC  0E6A               	movlw	106
  3093  0047DE  ECC4  F039         	call	_Delay10TCYx
  3094  0047E2                     l15676:
  3095  0047E2  0E91               	movlw	145
  3096  0047E4  5C2E               	subwf	_ms_count3,w,c	;volatile
  3097  0047E6  0E01               	movlw	1
  3098  0047E8  582F               	subwfb	_ms_count3+1,w,c	;volatile
  3099  0047EA  B0D8               	btfsc	status,0,c
  3100  0047EC  D00A               	goto	l15682
  3101  0047EE  EC74  F039         	call	_PB1pressed	;wreg free
  3102  0047F2  0900               	iorlw	0
  3103  0047F4  A4D8               	btfss	status,2,c
  3104  0047F6  D005               	goto	l15682
  3105  0047F8  EC60  F039         	call	_PB2pressed	;wreg free
  3106  0047FC  0900               	iorlw	0
  3107  0047FE  B4D8               	btfsc	status,2,c
  3108  004800  D7E2               	goto	l1890
  3109  004802                     l15682:
  3110  004802  0E00               	movlw	0
  3111  004804  6E2F               	movwf	_ms_count3+1,c	;volatile
  3112  004806  0E00               	movlw	0
  3113  004808  6E2E               	movwf	_ms_count3,c	;volatile
  3114  00480A                     l15684:
  3115  00480A  502F               	movf	_ms_count3+1,w,c	;volatile
  3116  00480C  E10E               	bnz	l15690
  3117  00480E  0EC9               	movlw	201
  3118  004810  5C2E               	subwf	_ms_count3,w,c	;volatile
  3119  004812  B0D8               	btfsc	status,0,c
  3120  004814  D00A               	goto	l15690
  3121  004816  EC74  F039         	call	_PB1pressed	;wreg free
  3122  00481A  0900               	iorlw	0
  3123  00481C  A4D8               	btfss	status,2,c
  3124  00481E  D005               	goto	l15690
  3125  004820  EC60  F039         	call	_PB2pressed	;wreg free
  3126  004824  0900               	iorlw	0
  3127  004826  B4D8               	btfsc	status,2,c
  3128  004828  D7F0               	goto	l15684
  3129  00482A                     l15690:
  3130  00482A  0E00               	movlw	0
  3131  00482C  6E2F               	movwf	_ms_count3+1,c	;volatile
  3132  00482E  0E00               	movlw	0
  3133  004830  6E2E               	movwf	_ms_count3,c	;volatile
  3134  004832  EC74  F039         	call	_PB1pressed	;wreg free
  3135  004836  0900               	iorlw	0
  3136  004838  A4D8               	btfss	status,2,c
  3137  00483A  EF73  F02C         	goto	l16470
  3138  00483E  EC60  F039         	call	_PB2pressed	;wreg free
  3139  004842  0900               	iorlw	0
  3140  004844  A4D8               	btfss	status,2,c
  3141  004846  EF73  F02C         	goto	l16470
  3142  00484A  D00E               	goto	l15700
  3143  00484C                     l1903:
  3144  00484C  8C91               	bsf	3985,6,c	;volatile
  3145  00484E  0E5F               	movlw	95
  3146  004850  ECC4  F039         	call	_Delay10TCYx
  3147  004854  0E5F               	movlw	95
  3148  004856  ECC4  F039         	call	_Delay10TCYx
  3149  00485A  9C91               	bcf	3985,6,c	;volatile
  3150  00485C  0E5F               	movlw	95
  3151  00485E  ECC4  F039         	call	_Delay10TCYx
  3152  004862  0E5F               	movlw	95
  3153  004864  ECC4  F039         	call	_Delay10TCYx
  3154  004868                     l15700:
  3155  004868  502F               	movf	_ms_count3+1,w,c	;volatile
  3156  00486A  E10E               	bnz	l15706
  3157  00486C  0EC9               	movlw	201
  3158  00486E  5C2E               	subwf	_ms_count3,w,c	;volatile
  3159  004870  B0D8               	btfsc	status,0,c
  3160  004872  D00A               	goto	l15706
  3161  004874  EC74  F039         	call	_PB1pressed	;wreg free
  3162  004878  0900               	iorlw	0
  3163  00487A  A4D8               	btfss	status,2,c
  3164  00487C  D005               	goto	l15706
  3165  00487E  EC60  F039         	call	_PB2pressed	;wreg free
  3166  004882  0900               	iorlw	0
  3167  004884  B4D8               	btfsc	status,2,c
  3168  004886  D7E2               	goto	l1903
  3169  004888                     l15706:
  3170  004888  0E00               	movlw	0
  3171  00488A  6E2F               	movwf	_ms_count3+1,c	;volatile
  3172  00488C  0E00               	movlw	0
  3173  00488E  6E2E               	movwf	_ms_count3,c	;volatile
  3174  004890                     l15708:
  3175  004890  502F               	movf	_ms_count3+1,w,c	;volatile
  3176  004892  E10E               	bnz	l15714
  3177  004894  0E65               	movlw	101
  3178  004896  5C2E               	subwf	_ms_count3,w,c	;volatile
  3179  004898  B0D8               	btfsc	status,0,c
  3180  00489A  D00A               	goto	l15714
  3181  00489C  EC74  F039         	call	_PB1pressed	;wreg free
  3182  0048A0  0900               	iorlw	0
  3183  0048A2  A4D8               	btfss	status,2,c
  3184  0048A4  D005               	goto	l15714
  3185  0048A6  EC60  F039         	call	_PB2pressed	;wreg free
  3186  0048AA  0900               	iorlw	0
  3187  0048AC  B4D8               	btfsc	status,2,c
  3188  0048AE  D7F0               	goto	l15708
  3189  0048B0                     l15714:
  3190  0048B0  0E00               	movlw	0
  3191  0048B2  6E2F               	movwf	_ms_count3+1,c	;volatile
  3192  0048B4  0E00               	movlw	0
  3193  0048B6  6E2E               	movwf	_ms_count3,c	;volatile
  3194  0048B8  EC74  F039         	call	_PB1pressed	;wreg free
  3195  0048BC  0900               	iorlw	0
  3196  0048BE  A4D8               	btfss	status,2,c
  3197  0048C0  EF73  F02C         	goto	l16470
  3198  0048C4  EC60  F039         	call	_PB2pressed	;wreg free
  3199  0048C8  0900               	iorlw	0
  3200  0048CA  A4D8               	btfss	status,2,c
  3201  0048CC  EF73  F02C         	goto	l16470
  3202  0048D0  D00E               	goto	l15724
  3203  0048D2                     l1916:
  3204  0048D2  8C91               	bsf	3985,6,c	;volatile
  3205  0048D4  0E5F               	movlw	95
  3206  0048D6  ECC4  F039         	call	_Delay10TCYx
  3207  0048DA  0E5F               	movlw	95
  3208  0048DC  ECC4  F039         	call	_Delay10TCYx
  3209  0048E0  9C91               	bcf	3985,6,c	;volatile
  3210  0048E2  0E5F               	movlw	95
  3211  0048E4  ECC4  F039         	call	_Delay10TCYx
  3212  0048E8  0E5F               	movlw	95
  3213  0048EA  ECC4  F039         	call	_Delay10TCYx
  3214  0048EE                     l15724:
  3215  0048EE  502F               	movf	_ms_count3+1,w,c	;volatile
  3216  0048F0  E10E               	bnz	l15730
  3217  0048F2  0EC9               	movlw	201
  3218  0048F4  5C2E               	subwf	_ms_count3,w,c	;volatile
  3219  0048F6  B0D8               	btfsc	status,0,c
  3220  0048F8  D00A               	goto	l15730
  3221  0048FA  EC74  F039         	call	_PB1pressed	;wreg free
  3222  0048FE  0900               	iorlw	0
  3223  004900  A4D8               	btfss	status,2,c
  3224  004902  D005               	goto	l15730
  3225  004904  EC60  F039         	call	_PB2pressed	;wreg free
  3226  004908  0900               	iorlw	0
  3227  00490A  B4D8               	btfsc	status,2,c
  3228  00490C  D7E2               	goto	l1916
  3229  00490E                     l15730:
  3230  00490E  0E00               	movlw	0
  3231  004910  6E2F               	movwf	_ms_count3+1,c	;volatile
  3232  004912  0E00               	movlw	0
  3233  004914  6E2E               	movwf	_ms_count3,c	;volatile
  3234  004916                     l15732:
  3235  004916  502F               	movf	_ms_count3+1,w,c	;volatile
  3236  004918  E10E               	bnz	l15738
  3237  00491A  0E65               	movlw	101
  3238  00491C  5C2E               	subwf	_ms_count3,w,c	;volatile
  3239  00491E  B0D8               	btfsc	status,0,c
  3240  004920  D00A               	goto	l15738
  3241  004922  EC74  F039         	call	_PB1pressed	;wreg free
  3242  004926  0900               	iorlw	0
  3243  004928  A4D8               	btfss	status,2,c
  3244  00492A  D005               	goto	l15738
  3245  00492C  EC60  F039         	call	_PB2pressed	;wreg free
  3246  004930  0900               	iorlw	0
  3247  004932  B4D8               	btfsc	status,2,c
  3248  004934  D7F0               	goto	l15732
  3249  004936                     l15738:
  3250  004936  0E00               	movlw	0
  3251  004938  6E2F               	movwf	_ms_count3+1,c	;volatile
  3252  00493A  0E00               	movlw	0
  3253  00493C  6E2E               	movwf	_ms_count3,c	;volatile
  3254  00493E  EC74  F039         	call	_PB1pressed	;wreg free
  3255  004942  0900               	iorlw	0
  3256  004944  A4D8               	btfss	status,2,c
  3257  004946  EF73  F02C         	goto	l16470
  3258  00494A  EC60  F039         	call	_PB2pressed	;wreg free
  3259  00494E  0900               	iorlw	0
  3260  004950  A4D8               	btfss	status,2,c
  3261  004952  EF73  F02C         	goto	l16470
  3262  004956  D00E               	goto	l15748
  3263  004958                     l1929:
  3264  004958  8C91               	bsf	3985,6,c	;volatile
  3265  00495A  0E54               	movlw	84
  3266  00495C  ECC4  F039         	call	_Delay10TCYx
  3267  004960  0E54               	movlw	84
  3268  004962  ECC4  F039         	call	_Delay10TCYx
  3269  004966  9C91               	bcf	3985,6,c	;volatile
  3270  004968  0E54               	movlw	84
  3271  00496A  ECC4  F039         	call	_Delay10TCYx
  3272  00496E  0E54               	movlw	84
  3273  004970  ECC4  F039         	call	_Delay10TCYx
  3274  004974                     l15748:
  3275  004974  502F               	movf	_ms_count3+1,w,c	;volatile
  3276  004976  E10E               	bnz	l15754
  3277  004978  0EC9               	movlw	201
  3278  00497A  5C2E               	subwf	_ms_count3,w,c	;volatile
  3279  00497C  B0D8               	btfsc	status,0,c
  3280  00497E  D00A               	goto	l15754
  3281  004980  EC74  F039         	call	_PB1pressed	;wreg free
  3282  004984  0900               	iorlw	0
  3283  004986  A4D8               	btfss	status,2,c
  3284  004988  D005               	goto	l15754
  3285  00498A  EC60  F039         	call	_PB2pressed	;wreg free
  3286  00498E  0900               	iorlw	0
  3287  004990  B4D8               	btfsc	status,2,c
  3288  004992  D7E2               	goto	l1929
  3289  004994                     l15754:
  3290  004994  0E00               	movlw	0
  3291  004996  6E2F               	movwf	_ms_count3+1,c	;volatile
  3292  004998  0E00               	movlw	0
  3293  00499A  6E2E               	movwf	_ms_count3,c	;volatile
  3294  00499C                     l15756:
  3295  00499C  502F               	movf	_ms_count3+1,w,c	;volatile
  3296  00499E  E10E               	bnz	l15762
  3297  0049A0  0E65               	movlw	101
  3298  0049A2  5C2E               	subwf	_ms_count3,w,c	;volatile
  3299  0049A4  B0D8               	btfsc	status,0,c
  3300  0049A6  D00A               	goto	l15762
  3301  0049A8  EC74  F039         	call	_PB1pressed	;wreg free
  3302  0049AC  0900               	iorlw	0
  3303  0049AE  A4D8               	btfss	status,2,c
  3304  0049B0  D005               	goto	l15762
  3305  0049B2  EC60  F039         	call	_PB2pressed	;wreg free
  3306  0049B6  0900               	iorlw	0
  3307  0049B8  B4D8               	btfsc	status,2,c
  3308  0049BA  D7F0               	goto	l15756
  3309  0049BC                     l15762:
  3310  0049BC  0E00               	movlw	0
  3311  0049BE  6E2F               	movwf	_ms_count3+1,c	;volatile
  3312  0049C0  0E00               	movlw	0
  3313  0049C2  6E2E               	movwf	_ms_count3,c	;volatile
  3314  0049C4  EC74  F039         	call	_PB1pressed	;wreg free
  3315  0049C8  0900               	iorlw	0
  3316  0049CA  A4D8               	btfss	status,2,c
  3317  0049CC  EF73  F02C         	goto	l16470
  3318  0049D0  EC60  F039         	call	_PB2pressed	;wreg free
  3319  0049D4  0900               	iorlw	0
  3320  0049D6  A4D8               	btfss	status,2,c
  3321  0049D8  EF73  F02C         	goto	l16470
  3322  0049DC  D00E               	goto	l15772
  3323  0049DE                     l1942:
  3324  0049DE  8C91               	bsf	3985,6,c	;volatile
  3325  0049E0  0E6A               	movlw	106
  3326  0049E2  ECC4  F039         	call	_Delay10TCYx
  3327  0049E6  0E6A               	movlw	106
  3328  0049E8  ECC4  F039         	call	_Delay10TCYx
  3329  0049EC  9C91               	bcf	3985,6,c	;volatile
  3330  0049EE  0E6A               	movlw	106
  3331  0049F0  ECC4  F039         	call	_Delay10TCYx
  3332  0049F4  0E6A               	movlw	106
  3333  0049F6  ECC4  F039         	call	_Delay10TCYx
  3334  0049FA                     l15772:
  3335  0049FA  502F               	movf	_ms_count3+1,w,c	;volatile
  3336  0049FC  E10E               	bnz	l15778
  3337  0049FE  0EC9               	movlw	201
  3338  004A00  5C2E               	subwf	_ms_count3,w,c	;volatile
  3339  004A02  B0D8               	btfsc	status,0,c
  3340  004A04  D00A               	goto	l15778
  3341  004A06  EC74  F039         	call	_PB1pressed	;wreg free
  3342  004A0A  0900               	iorlw	0
  3343  004A0C  A4D8               	btfss	status,2,c
  3344  004A0E  D005               	goto	l15778
  3345  004A10  EC60  F039         	call	_PB2pressed	;wreg free
  3346  004A14  0900               	iorlw	0
  3347  004A16  B4D8               	btfsc	status,2,c
  3348  004A18  D7E2               	goto	l1942
  3349  004A1A                     l15778:
  3350  004A1A  0E00               	movlw	0
  3351  004A1C  6E2F               	movwf	_ms_count3+1,c	;volatile
  3352  004A1E  0E00               	movlw	0
  3353  004A20  6E2E               	movwf	_ms_count3,c	;volatile
  3354  004A22                     l15780:
  3355  004A22  502F               	movf	_ms_count3+1,w,c	;volatile
  3356  004A24  E10E               	bnz	l15786
  3357  004A26  0E65               	movlw	101
  3358  004A28  5C2E               	subwf	_ms_count3,w,c	;volatile
  3359  004A2A  B0D8               	btfsc	status,0,c
  3360  004A2C  D00A               	goto	l15786
  3361  004A2E  EC74  F039         	call	_PB1pressed	;wreg free
  3362  004A32  0900               	iorlw	0
  3363  004A34  A4D8               	btfss	status,2,c
  3364  004A36  D005               	goto	l15786
  3365  004A38  EC60  F039         	call	_PB2pressed	;wreg free
  3366  004A3C  0900               	iorlw	0
  3367  004A3E  B4D8               	btfsc	status,2,c
  3368  004A40  D7F0               	goto	l15780
  3369  004A42                     l15786:
  3370  004A42  0E00               	movlw	0
  3371  004A44  6E2F               	movwf	_ms_count3+1,c	;volatile
  3372  004A46  0E00               	movlw	0
  3373  004A48  6E2E               	movwf	_ms_count3,c	;volatile
  3374  004A4A  EC74  F039         	call	_PB1pressed	;wreg free
  3375  004A4E  0900               	iorlw	0
  3376  004A50  A4D8               	btfss	status,2,c
  3377  004A52  EF73  F02C         	goto	l16470
  3378  004A56  EC60  F039         	call	_PB2pressed	;wreg free
  3379  004A5A  0900               	iorlw	0
  3380  004A5C  A4D8               	btfss	status,2,c
  3381  004A5E  EF73  F02C         	goto	l16470
  3382  004A62  D00E               	goto	l15796
  3383  004A64                     l1955:
  3384  004A64  8C91               	bsf	3985,6,c	;volatile
  3385  004A66  0E5F               	movlw	95
  3386  004A68  ECC4  F039         	call	_Delay10TCYx
  3387  004A6C  0E5F               	movlw	95
  3388  004A6E  ECC4  F039         	call	_Delay10TCYx
  3389  004A72  9C91               	bcf	3985,6,c	;volatile
  3390  004A74  0E5F               	movlw	95
  3391  004A76  ECC4  F039         	call	_Delay10TCYx
  3392  004A7A  0E5F               	movlw	95
  3393  004A7C  ECC4  F039         	call	_Delay10TCYx
  3394  004A80                     l15796:
  3395  004A80  502F               	movf	_ms_count3+1,w,c	;volatile
  3396  004A82  E10E               	bnz	l15802
  3397  004A84  0EC9               	movlw	201
  3398  004A86  5C2E               	subwf	_ms_count3,w,c	;volatile
  3399  004A88  B0D8               	btfsc	status,0,c
  3400  004A8A  D00A               	goto	l15802
  3401  004A8C  EC74  F039         	call	_PB1pressed	;wreg free
  3402  004A90  0900               	iorlw	0
  3403  004A92  A4D8               	btfss	status,2,c
  3404  004A94  D005               	goto	l15802
  3405  004A96  EC60  F039         	call	_PB2pressed	;wreg free
  3406  004A9A  0900               	iorlw	0
  3407  004A9C  B4D8               	btfsc	status,2,c
  3408  004A9E  D7E2               	goto	l1955
  3409  004AA0                     l15802:
  3410  004AA0  0E00               	movlw	0
  3411  004AA2  6E2F               	movwf	_ms_count3+1,c	;volatile
  3412  004AA4  0E00               	movlw	0
  3413  004AA6  6E2E               	movwf	_ms_count3,c	;volatile
  3414  004AA8                     l15804:
  3415  004AA8  502F               	movf	_ms_count3+1,w,c	;volatile
  3416  004AAA  E10E               	bnz	l15810
  3417  004AAC  0E65               	movlw	101
  3418  004AAE  5C2E               	subwf	_ms_count3,w,c	;volatile
  3419  004AB0  B0D8               	btfsc	status,0,c
  3420  004AB2  D00A               	goto	l15810
  3421  004AB4  EC74  F039         	call	_PB1pressed	;wreg free
  3422  004AB8  0900               	iorlw	0
  3423  004ABA  A4D8               	btfss	status,2,c
  3424  004ABC  D005               	goto	l15810
  3425  004ABE  EC60  F039         	call	_PB2pressed	;wreg free
  3426  004AC2  0900               	iorlw	0
  3427  004AC4  B4D8               	btfsc	status,2,c
  3428  004AC6  D7F0               	goto	l15804
  3429  004AC8                     l15810:
  3430  004AC8  0E00               	movlw	0
  3431  004ACA  6E2F               	movwf	_ms_count3+1,c	;volatile
  3432  004ACC  0E00               	movlw	0
  3433  004ACE  6E2E               	movwf	_ms_count3,c	;volatile
  3434  004AD0  EC74  F039         	call	_PB1pressed	;wreg free
  3435  004AD4  0900               	iorlw	0
  3436  004AD6  A4D8               	btfss	status,2,c
  3437  004AD8  EF73  F02C         	goto	l16470
  3438  004ADC  EC60  F039         	call	_PB2pressed	;wreg free
  3439  004AE0  0900               	iorlw	0
  3440  004AE2  A4D8               	btfss	status,2,c
  3441  004AE4  EF73  F02C         	goto	l16470
  3442  004AE8  D00E               	goto	l15820
  3443  004AEA                     l1968:
  3444  004AEA  8C91               	bsf	3985,6,c	;volatile
  3445  004AEC  0E54               	movlw	84
  3446  004AEE  ECC4  F039         	call	_Delay10TCYx
  3447  004AF2  0E54               	movlw	84
  3448  004AF4  ECC4  F039         	call	_Delay10TCYx
  3449  004AF8  9C91               	bcf	3985,6,c	;volatile
  3450  004AFA  0E54               	movlw	84
  3451  004AFC  ECC4  F039         	call	_Delay10TCYx
  3452  004B00  0E54               	movlw	84
  3453  004B02  ECC4  F039         	call	_Delay10TCYx
  3454  004B06                     l15820:
  3455  004B06  502F               	movf	_ms_count3+1,w,c	;volatile
  3456  004B08  E10E               	bnz	l15826
  3457  004B0A  0E65               	movlw	101
  3458  004B0C  5C2E               	subwf	_ms_count3,w,c	;volatile
  3459  004B0E  B0D8               	btfsc	status,0,c
  3460  004B10  D00A               	goto	l15826
  3461  004B12  EC74  F039         	call	_PB1pressed	;wreg free
  3462  004B16  0900               	iorlw	0
  3463  004B18  A4D8               	btfss	status,2,c
  3464  004B1A  D005               	goto	l15826
  3465  004B1C  EC60  F039         	call	_PB2pressed	;wreg free
  3466  004B20  0900               	iorlw	0
  3467  004B22  B4D8               	btfsc	status,2,c
  3468  004B24  D7E2               	goto	l1968
  3469  004B26                     l15826:
  3470  004B26  0E00               	movlw	0
  3471  004B28  6E2F               	movwf	_ms_count3+1,c	;volatile
  3472  004B2A  0E00               	movlw	0
  3473  004B2C  6E2E               	movwf	_ms_count3,c	;volatile
  3474  004B2E                     l15828:
  3475  004B2E  502F               	movf	_ms_count3+1,w,c	;volatile
  3476  004B30  E10E               	bnz	l15834
  3477  004B32  0E33               	movlw	51
  3478  004B34  5C2E               	subwf	_ms_count3,w,c	;volatile
  3479  004B36  B0D8               	btfsc	status,0,c
  3480  004B38  D00A               	goto	l15834
  3481  004B3A  EC74  F039         	call	_PB1pressed	;wreg free
  3482  004B3E  0900               	iorlw	0
  3483  004B40  A4D8               	btfss	status,2,c
  3484  004B42  D005               	goto	l15834
  3485  004B44  EC60  F039         	call	_PB2pressed	;wreg free
  3486  004B48  0900               	iorlw	0
  3487  004B4A  B4D8               	btfsc	status,2,c
  3488  004B4C  D7F0               	goto	l15828
  3489  004B4E                     l15834:
  3490  004B4E  0E00               	movlw	0
  3491  004B50  6E2F               	movwf	_ms_count3+1,c	;volatile
  3492  004B52  0E00               	movlw	0
  3493  004B54  6E2E               	movwf	_ms_count3,c	;volatile
  3494  004B56  EC74  F039         	call	_PB1pressed	;wreg free
  3495  004B5A  0900               	iorlw	0
  3496  004B5C  A4D8               	btfss	status,2,c
  3497  004B5E  EF73  F02C         	goto	l16470
  3498  004B62  EC60  F039         	call	_PB2pressed	;wreg free
  3499  004B66  0900               	iorlw	0
  3500  004B68  A4D8               	btfss	status,2,c
  3501  004B6A  EF73  F02C         	goto	l16470
  3502  004B6E  D00E               	goto	l15844
  3503  004B70                     l1981:
  3504  004B70  8C91               	bsf	3985,6,c	;volatile
  3505  004B72  0E50               	movlw	80
  3506  004B74  ECC4  F039         	call	_Delay10TCYx
  3507  004B78  0E50               	movlw	80
  3508  004B7A  ECC4  F039         	call	_Delay10TCYx
  3509  004B7E  9C91               	bcf	3985,6,c	;volatile
  3510  004B80  0E50               	movlw	80
  3511  004B82  ECC4  F039         	call	_Delay10TCYx
  3512  004B86  0E50               	movlw	80
  3513  004B88  ECC4  F039         	call	_Delay10TCYx
  3514  004B8C                     l15844:
  3515  004B8C  502F               	movf	_ms_count3+1,w,c	;volatile
  3516  004B8E  E10E               	bnz	l15850
  3517  004B90  0E65               	movlw	101
  3518  004B92  5C2E               	subwf	_ms_count3,w,c	;volatile
  3519  004B94  B0D8               	btfsc	status,0,c
  3520  004B96  D00A               	goto	l15850
  3521  004B98  EC74  F039         	call	_PB1pressed	;wreg free
  3522  004B9C  0900               	iorlw	0
  3523  004B9E  A4D8               	btfss	status,2,c
  3524  004BA0  D005               	goto	l15850
  3525  004BA2  EC60  F039         	call	_PB2pressed	;wreg free
  3526  004BA6  0900               	iorlw	0
  3527  004BA8  B4D8               	btfsc	status,2,c
  3528  004BAA  D7E2               	goto	l1981
  3529  004BAC                     l15850:
  3530  004BAC  0E00               	movlw	0
  3531  004BAE  6E2F               	movwf	_ms_count3+1,c	;volatile
  3532  004BB0  0E00               	movlw	0
  3533  004BB2  6E2E               	movwf	_ms_count3,c	;volatile
  3534  004BB4                     l15852:
  3535  004BB4  502F               	movf	_ms_count3+1,w,c	;volatile
  3536  004BB6  E10E               	bnz	l15858
  3537  004BB8  0E33               	movlw	51
  3538  004BBA  5C2E               	subwf	_ms_count3,w,c	;volatile
  3539  004BBC  B0D8               	btfsc	status,0,c
  3540  004BBE  D00A               	goto	l15858
  3541  004BC0  EC74  F039         	call	_PB1pressed	;wreg free
  3542  004BC4  0900               	iorlw	0
  3543  004BC6  A4D8               	btfss	status,2,c
  3544  004BC8  D005               	goto	l15858
  3545  004BCA  EC60  F039         	call	_PB2pressed	;wreg free
  3546  004BCE  0900               	iorlw	0
  3547  004BD0  B4D8               	btfsc	status,2,c
  3548  004BD2  D7F0               	goto	l15852
  3549  004BD4                     l15858:
  3550  004BD4  0E00               	movlw	0
  3551  004BD6  6E2F               	movwf	_ms_count3+1,c	;volatile
  3552  004BD8  0E00               	movlw	0
  3553  004BDA  6E2E               	movwf	_ms_count3,c	;volatile
  3554  004BDC  EC74  F039         	call	_PB1pressed	;wreg free
  3555  004BE0  0900               	iorlw	0
  3556  004BE2  A4D8               	btfss	status,2,c
  3557  004BE4  EF73  F02C         	goto	l16470
  3558  004BE8  EC60  F039         	call	_PB2pressed	;wreg free
  3559  004BEC  0900               	iorlw	0
  3560  004BEE  A4D8               	btfss	status,2,c
  3561  004BF0  EF73  F02C         	goto	l16470
  3562  004BF4  D00E               	goto	l15868
  3563  004BF6                     l1994:
  3564  004BF6  8C91               	bsf	3985,6,c	;volatile
  3565  004BF8  0E54               	movlw	84
  3566  004BFA  ECC4  F039         	call	_Delay10TCYx
  3567  004BFE  0E54               	movlw	84
  3568  004C00  ECC4  F039         	call	_Delay10TCYx
  3569  004C04  9C91               	bcf	3985,6,c	;volatile
  3570  004C06  0E54               	movlw	84
  3571  004C08  ECC4  F039         	call	_Delay10TCYx
  3572  004C0C  0E54               	movlw	84
  3573  004C0E  ECC4  F039         	call	_Delay10TCYx
  3574  004C12                     l15868:
  3575  004C12  502F               	movf	_ms_count3+1,w,c	;volatile
  3576  004C14  E10E               	bnz	l15874
  3577  004C16  0EC9               	movlw	201
  3578  004C18  5C2E               	subwf	_ms_count3,w,c	;volatile
  3579  004C1A  B0D8               	btfsc	status,0,c
  3580  004C1C  D00A               	goto	l15874
  3581  004C1E  EC74  F039         	call	_PB1pressed	;wreg free
  3582  004C22  0900               	iorlw	0
  3583  004C24  A4D8               	btfss	status,2,c
  3584  004C26  D005               	goto	l15874
  3585  004C28  EC60  F039         	call	_PB2pressed	;wreg free
  3586  004C2C  0900               	iorlw	0
  3587  004C2E  B4D8               	btfsc	status,2,c
  3588  004C30  D7E2               	goto	l1994
  3589  004C32                     l15874:
  3590  004C32  0E00               	movlw	0
  3591  004C34  6E2F               	movwf	_ms_count3+1,c	;volatile
  3592  004C36  0E00               	movlw	0
  3593  004C38  6E2E               	movwf	_ms_count3,c	;volatile
  3594  004C3A                     l15876:
  3595  004C3A  502F               	movf	_ms_count3+1,w,c	;volatile
  3596  004C3C  E10E               	bnz	l15882
  3597  004C3E  0E65               	movlw	101
  3598  004C40  5C2E               	subwf	_ms_count3,w,c	;volatile
  3599  004C42  B0D8               	btfsc	status,0,c
  3600  004C44  D00A               	goto	l15882
  3601  004C46  EC74  F039         	call	_PB1pressed	;wreg free
  3602  004C4A  0900               	iorlw	0
  3603  004C4C  A4D8               	btfss	status,2,c
  3604  004C4E  D005               	goto	l15882
  3605  004C50  EC60  F039         	call	_PB2pressed	;wreg free
  3606  004C54  0900               	iorlw	0
  3607  004C56  B4D8               	btfsc	status,2,c
  3608  004C58  D7F0               	goto	l15876
  3609  004C5A                     l15882:
  3610  004C5A  0E00               	movlw	0
  3611  004C5C  6E2F               	movwf	_ms_count3+1,c	;volatile
  3612  004C5E  0E00               	movlw	0
  3613  004C60  6E2E               	movwf	_ms_count3,c	;volatile
  3614  004C62  EC74  F039         	call	_PB1pressed	;wreg free
  3615  004C66  0900               	iorlw	0
  3616  004C68  A4D8               	btfss	status,2,c
  3617  004C6A  EF73  F02C         	goto	l16470
  3618  004C6E  EC60  F039         	call	_PB2pressed	;wreg free
  3619  004C72  0900               	iorlw	0
  3620  004C74  A4D8               	btfss	status,2,c
  3621  004C76  EF73  F02C         	goto	l16470
  3622  004C7A  D00E               	goto	l15892
  3623  004C7C                     l2007:
  3624  004C7C  8C91               	bsf	3985,6,c	;volatile
  3625  004C7E  0E6A               	movlw	106
  3626  004C80  ECC4  F039         	call	_Delay10TCYx
  3627  004C84  0E6A               	movlw	106
  3628  004C86  ECC4  F039         	call	_Delay10TCYx
  3629  004C8A  9C91               	bcf	3985,6,c	;volatile
  3630  004C8C  0E6A               	movlw	106
  3631  004C8E  ECC4  F039         	call	_Delay10TCYx
  3632  004C92  0E6A               	movlw	106
  3633  004C94  ECC4  F039         	call	_Delay10TCYx
  3634  004C98                     l15892:
  3635  004C98  502F               	movf	_ms_count3+1,w,c	;volatile
  3636  004C9A  E10E               	bnz	l15898
  3637  004C9C  0EC9               	movlw	201
  3638  004C9E  5C2E               	subwf	_ms_count3,w,c	;volatile
  3639  004CA0  B0D8               	btfsc	status,0,c
  3640  004CA2  D00A               	goto	l15898
  3641  004CA4  EC74  F039         	call	_PB1pressed	;wreg free
  3642  004CA8  0900               	iorlw	0
  3643  004CAA  A4D8               	btfss	status,2,c
  3644  004CAC  D005               	goto	l15898
  3645  004CAE  EC60  F039         	call	_PB2pressed	;wreg free
  3646  004CB2  0900               	iorlw	0
  3647  004CB4  B4D8               	btfsc	status,2,c
  3648  004CB6  D7E2               	goto	l2007
  3649  004CB8                     l15898:
  3650  004CB8  0E00               	movlw	0
  3651  004CBA  6E2F               	movwf	_ms_count3+1,c	;volatile
  3652  004CBC  0E00               	movlw	0
  3653  004CBE  6E2E               	movwf	_ms_count3,c	;volatile
  3654  004CC0                     l15900:
  3655  004CC0  502F               	movf	_ms_count3+1,w,c	;volatile
  3656  004CC2  E10E               	bnz	l15906
  3657  004CC4  0E65               	movlw	101
  3658  004CC6  5C2E               	subwf	_ms_count3,w,c	;volatile
  3659  004CC8  B0D8               	btfsc	status,0,c
  3660  004CCA  D00A               	goto	l15906
  3661  004CCC  EC74  F039         	call	_PB1pressed	;wreg free
  3662  004CD0  0900               	iorlw	0
  3663  004CD2  A4D8               	btfss	status,2,c
  3664  004CD4  D005               	goto	l15906
  3665  004CD6  EC60  F039         	call	_PB2pressed	;wreg free
  3666  004CDA  0900               	iorlw	0
  3667  004CDC  B4D8               	btfsc	status,2,c
  3668  004CDE  D7F0               	goto	l15900
  3669  004CE0                     l15906:
  3670  004CE0  0E00               	movlw	0
  3671  004CE2  6E2F               	movwf	_ms_count3+1,c	;volatile
  3672  004CE4  0E00               	movlw	0
  3673  004CE6  6E2E               	movwf	_ms_count3,c	;volatile
  3674  004CE8  EC74  F039         	call	_PB1pressed	;wreg free
  3675  004CEC  0900               	iorlw	0
  3676  004CEE  A4D8               	btfss	status,2,c
  3677  004CF0  EF73  F02C         	goto	l16470
  3678  004CF4  EC60  F039         	call	_PB2pressed	;wreg free
  3679  004CF8  0900               	iorlw	0
  3680  004CFA  A4D8               	btfss	status,2,c
  3681  004CFC  EF73  F02C         	goto	l16470
  3682  004D00  D00E               	goto	l15916
  3683  004D02                     l2020:
  3684  004D02  8C91               	bsf	3985,6,c	;volatile
  3685  004D04  0E5F               	movlw	95
  3686  004D06  ECC4  F039         	call	_Delay10TCYx
  3687  004D0A  0E5F               	movlw	95
  3688  004D0C  ECC4  F039         	call	_Delay10TCYx
  3689  004D10  9C91               	bcf	3985,6,c	;volatile
  3690  004D12  0E5F               	movlw	95
  3691  004D14  ECC4  F039         	call	_Delay10TCYx
  3692  004D18  0E5F               	movlw	95
  3693  004D1A  ECC4  F039         	call	_Delay10TCYx
  3694  004D1E                     l15916:
  3695  004D1E  502F               	movf	_ms_count3+1,w,c	;volatile
  3696  004D20  E10E               	bnz	l15922
  3697  004D22  0EC9               	movlw	201
  3698  004D24  5C2E               	subwf	_ms_count3,w,c	;volatile
  3699  004D26  B0D8               	btfsc	status,0,c
  3700  004D28  D00A               	goto	l15922
  3701  004D2A  EC74  F039         	call	_PB1pressed	;wreg free
  3702  004D2E  0900               	iorlw	0
  3703  004D30  A4D8               	btfss	status,2,c
  3704  004D32  D005               	goto	l15922
  3705  004D34  EC60  F039         	call	_PB2pressed	;wreg free
  3706  004D38  0900               	iorlw	0
  3707  004D3A  B4D8               	btfsc	status,2,c
  3708  004D3C  D7E2               	goto	l2020
  3709  004D3E                     l15922:
  3710  004D3E  0E00               	movlw	0
  3711  004D40  6E2F               	movwf	_ms_count3+1,c	;volatile
  3712  004D42  0E00               	movlw	0
  3713  004D44  6E2E               	movwf	_ms_count3,c	;volatile
  3714  004D46                     l15924:
  3715  004D46  502F               	movf	_ms_count3+1,w,c	;volatile
  3716  004D48  E10E               	bnz	l15930
  3717  004D4A  0E65               	movlw	101
  3718  004D4C  5C2E               	subwf	_ms_count3,w,c	;volatile
  3719  004D4E  B0D8               	btfsc	status,0,c
  3720  004D50  D00A               	goto	l15930
  3721  004D52  EC74  F039         	call	_PB1pressed	;wreg free
  3722  004D56  0900               	iorlw	0
  3723  004D58  A4D8               	btfss	status,2,c
  3724  004D5A  D005               	goto	l15930
  3725  004D5C  EC60  F039         	call	_PB2pressed	;wreg free
  3726  004D60  0900               	iorlw	0
  3727  004D62  B4D8               	btfsc	status,2,c
  3728  004D64  D7F0               	goto	l15924
  3729  004D66                     l15930:
  3730  004D66  0E00               	movlw	0
  3731  004D68  6E2F               	movwf	_ms_count3+1,c	;volatile
  3732  004D6A  0E00               	movlw	0
  3733  004D6C  6E2E               	movwf	_ms_count3,c	;volatile
  3734  004D6E  EC74  F039         	call	_PB1pressed	;wreg free
  3735  004D72  0900               	iorlw	0
  3736  004D74  A4D8               	btfss	status,2,c
  3737  004D76  EF73  F02C         	goto	l16470
  3738  004D7A  EC60  F039         	call	_PB2pressed	;wreg free
  3739  004D7E  0900               	iorlw	0
  3740  004D80  A4D8               	btfss	status,2,c
  3741  004D82  EF73  F02C         	goto	l16470
  3742  004D86  D00E               	goto	l15940
  3743  004D88                     l2033:
  3744  004D88  8C91               	bsf	3985,6,c	;volatile
  3745  004D8A  0E54               	movlw	84
  3746  004D8C  ECC4  F039         	call	_Delay10TCYx
  3747  004D90  0E54               	movlw	84
  3748  004D92  ECC4  F039         	call	_Delay10TCYx
  3749  004D96  9C91               	bcf	3985,6,c	;volatile
  3750  004D98  0E54               	movlw	84
  3751  004D9A  ECC4  F039         	call	_Delay10TCYx
  3752  004D9E  0E54               	movlw	84
  3753  004DA0  ECC4  F039         	call	_Delay10TCYx
  3754  004DA4                     l15940:
  3755  004DA4  502F               	movf	_ms_count3+1,w,c	;volatile
  3756  004DA6  E10E               	bnz	l15946
  3757  004DA8  0E65               	movlw	101
  3758  004DAA  5C2E               	subwf	_ms_count3,w,c	;volatile
  3759  004DAC  B0D8               	btfsc	status,0,c
  3760  004DAE  D00A               	goto	l15946
  3761  004DB0  EC74  F039         	call	_PB1pressed	;wreg free
  3762  004DB4  0900               	iorlw	0
  3763  004DB6  A4D8               	btfss	status,2,c
  3764  004DB8  D005               	goto	l15946
  3765  004DBA  EC60  F039         	call	_PB2pressed	;wreg free
  3766  004DBE  0900               	iorlw	0
  3767  004DC0  B4D8               	btfsc	status,2,c
  3768  004DC2  D7E2               	goto	l2033
  3769  004DC4                     l15946:
  3770  004DC4  0E00               	movlw	0
  3771  004DC6  6E2F               	movwf	_ms_count3+1,c	;volatile
  3772  004DC8  0E00               	movlw	0
  3773  004DCA  6E2E               	movwf	_ms_count3,c	;volatile
  3774  004DCC                     l15948:
  3775  004DCC  502F               	movf	_ms_count3+1,w,c	;volatile
  3776  004DCE  E10E               	bnz	l15954
  3777  004DD0  0E33               	movlw	51
  3778  004DD2  5C2E               	subwf	_ms_count3,w,c	;volatile
  3779  004DD4  B0D8               	btfsc	status,0,c
  3780  004DD6  D00A               	goto	l15954
  3781  004DD8  EC74  F039         	call	_PB1pressed	;wreg free
  3782  004DDC  0900               	iorlw	0
  3783  004DDE  A4D8               	btfss	status,2,c
  3784  004DE0  D005               	goto	l15954
  3785  004DE2  EC60  F039         	call	_PB2pressed	;wreg free
  3786  004DE6  0900               	iorlw	0
  3787  004DE8  B4D8               	btfsc	status,2,c
  3788  004DEA  D7F0               	goto	l15948
  3789  004DEC                     l15954:
  3790  004DEC  0E00               	movlw	0
  3791  004DEE  6E2F               	movwf	_ms_count3+1,c	;volatile
  3792  004DF0  0E00               	movlw	0
  3793  004DF2  6E2E               	movwf	_ms_count3,c	;volatile
  3794  004DF4  EC74  F039         	call	_PB1pressed	;wreg free
  3795  004DF8  0900               	iorlw	0
  3796  004DFA  A4D8               	btfss	status,2,c
  3797  004DFC  EF73  F02C         	goto	l16470
  3798  004E00  EC60  F039         	call	_PB2pressed	;wreg free
  3799  004E04  0900               	iorlw	0
  3800  004E06  A4D8               	btfss	status,2,c
  3801  004E08  EF73  F02C         	goto	l16470
  3802  004E0C  D00E               	goto	l15964
  3803  004E0E                     l2046:
  3804  004E0E  8C91               	bsf	3985,6,c	;volatile
  3805  004E10  0E50               	movlw	80
  3806  004E12  ECC4  F039         	call	_Delay10TCYx
  3807  004E16  0E50               	movlw	80
  3808  004E18  ECC4  F039         	call	_Delay10TCYx
  3809  004E1C  9C91               	bcf	3985,6,c	;volatile
  3810  004E1E  0E50               	movlw	80
  3811  004E20  ECC4  F039         	call	_Delay10TCYx
  3812  004E24  0E50               	movlw	80
  3813  004E26  ECC4  F039         	call	_Delay10TCYx
  3814  004E2A                     l15964:
  3815  004E2A  502F               	movf	_ms_count3+1,w,c	;volatile
  3816  004E2C  E10E               	bnz	l15970
  3817  004E2E  0E65               	movlw	101
  3818  004E30  5C2E               	subwf	_ms_count3,w,c	;volatile
  3819  004E32  B0D8               	btfsc	status,0,c
  3820  004E34  D00A               	goto	l15970
  3821  004E36  EC74  F039         	call	_PB1pressed	;wreg free
  3822  004E3A  0900               	iorlw	0
  3823  004E3C  A4D8               	btfss	status,2,c
  3824  004E3E  D005               	goto	l15970
  3825  004E40  EC60  F039         	call	_PB2pressed	;wreg free
  3826  004E44  0900               	iorlw	0
  3827  004E46  B4D8               	btfsc	status,2,c
  3828  004E48  D7E2               	goto	l2046
  3829  004E4A                     l15970:
  3830  004E4A  0E00               	movlw	0
  3831  004E4C  6E2F               	movwf	_ms_count3+1,c	;volatile
  3832  004E4E  0E00               	movlw	0
  3833  004E50  6E2E               	movwf	_ms_count3,c	;volatile
  3834  004E52                     l15972:
  3835  004E52  502F               	movf	_ms_count3+1,w,c	;volatile
  3836  004E54  E10E               	bnz	l15978
  3837  004E56  0E33               	movlw	51
  3838  004E58  5C2E               	subwf	_ms_count3,w,c	;volatile
  3839  004E5A  B0D8               	btfsc	status,0,c
  3840  004E5C  D00A               	goto	l15978
  3841  004E5E  EC74  F039         	call	_PB1pressed	;wreg free
  3842  004E62  0900               	iorlw	0
  3843  004E64  A4D8               	btfss	status,2,c
  3844  004E66  D005               	goto	l15978
  3845  004E68  EC60  F039         	call	_PB2pressed	;wreg free
  3846  004E6C  0900               	iorlw	0
  3847  004E6E  B4D8               	btfsc	status,2,c
  3848  004E70  D7F0               	goto	l15972
  3849  004E72                     l15978:
  3850  004E72  0E00               	movlw	0
  3851  004E74  6E2F               	movwf	_ms_count3+1,c	;volatile
  3852  004E76  0E00               	movlw	0
  3853  004E78  6E2E               	movwf	_ms_count3,c	;volatile
  3854  004E7A  EC74  F039         	call	_PB1pressed	;wreg free
  3855  004E7E  0900               	iorlw	0
  3856  004E80  A4D8               	btfss	status,2,c
  3857  004E82  EF73  F02C         	goto	l16470
  3858  004E86  EC60  F039         	call	_PB2pressed	;wreg free
  3859  004E8A  0900               	iorlw	0
  3860  004E8C  A4D8               	btfss	status,2,c
  3861  004E8E  EF73  F02C         	goto	l16470
  3862  004E92  D00E               	goto	l15988
  3863  004E94                     l2059:
  3864  004E94  8C91               	bsf	3985,6,c	;volatile
  3865  004E96  0E54               	movlw	84
  3866  004E98  ECC4  F039         	call	_Delay10TCYx
  3867  004E9C  0E54               	movlw	84
  3868  004E9E  ECC4  F039         	call	_Delay10TCYx
  3869  004EA2  9C91               	bcf	3985,6,c	;volatile
  3870  004EA4  0E54               	movlw	84
  3871  004EA6  ECC4  F039         	call	_Delay10TCYx
  3872  004EAA  0E54               	movlw	84
  3873  004EAC  ECC4  F039         	call	_Delay10TCYx
  3874  004EB0                     l15988:
  3875  004EB0  502F               	movf	_ms_count3+1,w,c	;volatile
  3876  004EB2  E10E               	bnz	l15994
  3877  004EB4  0EC9               	movlw	201
  3878  004EB6  5C2E               	subwf	_ms_count3,w,c	;volatile
  3879  004EB8  B0D8               	btfsc	status,0,c
  3880  004EBA  D00A               	goto	l15994
  3881  004EBC  EC74  F039         	call	_PB1pressed	;wreg free
  3882  004EC0  0900               	iorlw	0
  3883  004EC2  A4D8               	btfss	status,2,c
  3884  004EC4  D005               	goto	l15994
  3885  004EC6  EC60  F039         	call	_PB2pressed	;wreg free
  3886  004ECA  0900               	iorlw	0
  3887  004ECC  B4D8               	btfsc	status,2,c
  3888  004ECE  D7E2               	goto	l2059
  3889  004ED0                     l15994:
  3890  004ED0  0E00               	movlw	0
  3891  004ED2  6E2F               	movwf	_ms_count3+1,c	;volatile
  3892  004ED4  0E00               	movlw	0
  3893  004ED6  6E2E               	movwf	_ms_count3,c	;volatile
  3894  004ED8                     l15996:
  3895  004ED8  502F               	movf	_ms_count3+1,w,c	;volatile
  3896  004EDA  E10E               	bnz	l16002
  3897  004EDC  0E65               	movlw	101
  3898  004EDE  5C2E               	subwf	_ms_count3,w,c	;volatile
  3899  004EE0  B0D8               	btfsc	status,0,c
  3900  004EE2  D00A               	goto	l16002
  3901  004EE4  EC74  F039         	call	_PB1pressed	;wreg free
  3902  004EE8  0900               	iorlw	0
  3903  004EEA  A4D8               	btfss	status,2,c
  3904  004EEC  D005               	goto	l16002
  3905  004EEE  EC60  F039         	call	_PB2pressed	;wreg free
  3906  004EF2  0900               	iorlw	0
  3907  004EF4  B4D8               	btfsc	status,2,c
  3908  004EF6  D7F0               	goto	l15996
  3909  004EF8                     l16002:
  3910  004EF8  0E00               	movlw	0
  3911  004EFA  6E2F               	movwf	_ms_count3+1,c	;volatile
  3912  004EFC  0E00               	movlw	0
  3913  004EFE  6E2E               	movwf	_ms_count3,c	;volatile
  3914  004F00  EC74  F039         	call	_PB1pressed	;wreg free
  3915  004F04  0900               	iorlw	0
  3916  004F06  A4D8               	btfss	status,2,c
  3917  004F08  EF73  F02C         	goto	l16470
  3918  004F0C  EC60  F039         	call	_PB2pressed	;wreg free
  3919  004F10  0900               	iorlw	0
  3920  004F12  A4D8               	btfss	status,2,c
  3921  004F14  EF73  F02C         	goto	l16470
  3922  004F18  D00E               	goto	l16012
  3923  004F1A                     l2072:
  3924  004F1A  8C91               	bsf	3985,6,c	;volatile
  3925  004F1C  0E5F               	movlw	95
  3926  004F1E  ECC4  F039         	call	_Delay10TCYx
  3927  004F22  0E5F               	movlw	95
  3928  004F24  ECC4  F039         	call	_Delay10TCYx
  3929  004F28  9C91               	bcf	3985,6,c	;volatile
  3930  004F2A  0E5F               	movlw	95
  3931  004F2C  ECC4  F039         	call	_Delay10TCYx
  3932  004F30  0E5F               	movlw	95
  3933  004F32  ECC4  F039         	call	_Delay10TCYx
  3934  004F36                     l16012:
  3935  004F36  502F               	movf	_ms_count3+1,w,c	;volatile
  3936  004F38  E10E               	bnz	l16018
  3937  004F3A  0EC9               	movlw	201
  3938  004F3C  5C2E               	subwf	_ms_count3,w,c	;volatile
  3939  004F3E  B0D8               	btfsc	status,0,c
  3940  004F40  D00A               	goto	l16018
  3941  004F42  EC74  F039         	call	_PB1pressed	;wreg free
  3942  004F46  0900               	iorlw	0
  3943  004F48  A4D8               	btfss	status,2,c
  3944  004F4A  D005               	goto	l16018
  3945  004F4C  EC60  F039         	call	_PB2pressed	;wreg free
  3946  004F50  0900               	iorlw	0
  3947  004F52  B4D8               	btfsc	status,2,c
  3948  004F54  D7E2               	goto	l2072
  3949  004F56                     l16018:
  3950  004F56  0E00               	movlw	0
  3951  004F58  6E2F               	movwf	_ms_count3+1,c	;volatile
  3952  004F5A  0E00               	movlw	0
  3953  004F5C  6E2E               	movwf	_ms_count3,c	;volatile
  3954  004F5E                     l16020:
  3955  004F5E  502F               	movf	_ms_count3+1,w,c	;volatile
  3956  004F60  E10E               	bnz	l16026
  3957  004F62  0E65               	movlw	101
  3958  004F64  5C2E               	subwf	_ms_count3,w,c	;volatile
  3959  004F66  B0D8               	btfsc	status,0,c
  3960  004F68  D00A               	goto	l16026
  3961  004F6A  EC74  F039         	call	_PB1pressed	;wreg free
  3962  004F6E  0900               	iorlw	0
  3963  004F70  A4D8               	btfss	status,2,c
  3964  004F72  D005               	goto	l16026
  3965  004F74  EC60  F039         	call	_PB2pressed	;wreg free
  3966  004F78  0900               	iorlw	0
  3967  004F7A  B4D8               	btfsc	status,2,c
  3968  004F7C  D7F0               	goto	l16020
  3969  004F7E                     l16026:
  3970  004F7E  0E00               	movlw	0
  3971  004F80  6E2F               	movwf	_ms_count3+1,c	;volatile
  3972  004F82  0E00               	movlw	0
  3973  004F84  6E2E               	movwf	_ms_count3,c	;volatile
  3974  004F86  EC74  F039         	call	_PB1pressed	;wreg free
  3975  004F8A  0900               	iorlw	0
  3976  004F8C  A4D8               	btfss	status,2,c
  3977  004F8E  EF73  F02C         	goto	l16470
  3978  004F92  EC60  F039         	call	_PB2pressed	;wreg free
  3979  004F96  0900               	iorlw	0
  3980  004F98  A4D8               	btfss	status,2,c
  3981  004F9A  EF73  F02C         	goto	l16470
  3982  004F9E  D00E               	goto	l16036
  3983  004FA0                     l2085:
  3984  004FA0  8C91               	bsf	3985,6,c	;volatile
  3985  004FA2  0E6A               	movlw	106
  3986  004FA4  ECC4  F039         	call	_Delay10TCYx
  3987  004FA8  0E6A               	movlw	106
  3988  004FAA  ECC4  F039         	call	_Delay10TCYx
  3989  004FAE  9C91               	bcf	3985,6,c	;volatile
  3990  004FB0  0E6A               	movlw	106
  3991  004FB2  ECC4  F039         	call	_Delay10TCYx
  3992  004FB6  0E6A               	movlw	106
  3993  004FB8  ECC4  F039         	call	_Delay10TCYx
  3994  004FBC                     l16036:
  3995  004FBC  502F               	movf	_ms_count3+1,w,c	;volatile
  3996  004FBE  E10E               	bnz	l16042
  3997  004FC0  0EC9               	movlw	201
  3998  004FC2  5C2E               	subwf	_ms_count3,w,c	;volatile
  3999  004FC4  B0D8               	btfsc	status,0,c
  4000  004FC6  D00A               	goto	l16042
  4001  004FC8  EC74  F039         	call	_PB1pressed	;wreg free
  4002  004FCC  0900               	iorlw	0
  4003  004FCE  A4D8               	btfss	status,2,c
  4004  004FD0  D005               	goto	l16042
  4005  004FD2  EC60  F039         	call	_PB2pressed	;wreg free
  4006  004FD6  0900               	iorlw	0
  4007  004FD8  B4D8               	btfsc	status,2,c
  4008  004FDA  D7E2               	goto	l2085
  4009  004FDC                     l16042:
  4010  004FDC  0E00               	movlw	0
  4011  004FDE  6E2F               	movwf	_ms_count3+1,c	;volatile
  4012  004FE0  0E00               	movlw	0
  4013  004FE2  6E2E               	movwf	_ms_count3,c	;volatile
  4014  004FE4                     l16044:
  4015  004FE4  502F               	movf	_ms_count3+1,w,c	;volatile
  4016  004FE6  E10E               	bnz	l16050
  4017  004FE8  0E65               	movlw	101
  4018  004FEA  5C2E               	subwf	_ms_count3,w,c	;volatile
  4019  004FEC  B0D8               	btfsc	status,0,c
  4020  004FEE  D00A               	goto	l16050
  4021  004FF0  EC74  F039         	call	_PB1pressed	;wreg free
  4022  004FF4  0900               	iorlw	0
  4023  004FF6  A4D8               	btfss	status,2,c
  4024  004FF8  D005               	goto	l16050
  4025  004FFA  EC60  F039         	call	_PB2pressed	;wreg free
  4026  004FFE  0900               	iorlw	0
  4027  005000  B4D8               	btfsc	status,2,c
  4028  005002  D7F0               	goto	l16044
  4029  005004                     l16050:
  4030  005004  0E00               	movlw	0
  4031  005006  6E2F               	movwf	_ms_count3+1,c	;volatile
  4032  005008  0E00               	movlw	0
  4033  00500A  6E2E               	movwf	_ms_count3,c	;volatile
  4034  00500C  EC74  F039         	call	_PB1pressed	;wreg free
  4035  005010  0900               	iorlw	0
  4036  005012  A4D8               	btfss	status,2,c
  4037  005014  EF73  F02C         	goto	l16470
  4038  005018  EC60  F039         	call	_PB2pressed	;wreg free
  4039  00501C  0900               	iorlw	0
  4040  00501E  A4D8               	btfss	status,2,c
  4041  005020  EF73  F02C         	goto	l16470
  4042  005024  D00E               	goto	l16060
  4043  005026                     l2098:
  4044  005026  8C91               	bsf	3985,6,c	;volatile
  4045  005028  0E5F               	movlw	95
  4046  00502A  ECC4  F039         	call	_Delay10TCYx
  4047  00502E  0E5F               	movlw	95
  4048  005030  ECC4  F039         	call	_Delay10TCYx
  4049  005034  9C91               	bcf	3985,6,c	;volatile
  4050  005036  0E5F               	movlw	95
  4051  005038  ECC4  F039         	call	_Delay10TCYx
  4052  00503C  0E5F               	movlw	95
  4053  00503E  ECC4  F039         	call	_Delay10TCYx
  4054  005042                     l16060:
  4055  005042  502F               	movf	_ms_count3+1,w,c	;volatile
  4056  005044  E10E               	bnz	l16066
  4057  005046  0EC9               	movlw	201
  4058  005048  5C2E               	subwf	_ms_count3,w,c	;volatile
  4059  00504A  B0D8               	btfsc	status,0,c
  4060  00504C  D00A               	goto	l16066
  4061  00504E  EC74  F039         	call	_PB1pressed	;wreg free
  4062  005052  0900               	iorlw	0
  4063  005054  A4D8               	btfss	status,2,c
  4064  005056  D005               	goto	l16066
  4065  005058  EC60  F039         	call	_PB2pressed	;wreg free
  4066  00505C  0900               	iorlw	0
  4067  00505E  B4D8               	btfsc	status,2,c
  4068  005060  D7E2               	goto	l2098
  4069  005062                     l16066:
  4070  005062  0E00               	movlw	0
  4071  005064  6E2F               	movwf	_ms_count3+1,c	;volatile
  4072  005066  0E00               	movlw	0
  4073  005068  6E2E               	movwf	_ms_count3,c	;volatile
  4074  00506A                     l16068:
  4075  00506A  502F               	movf	_ms_count3+1,w,c	;volatile
  4076  00506C  E10E               	bnz	l16074
  4077  00506E  0E65               	movlw	101
  4078  005070  5C2E               	subwf	_ms_count3,w,c	;volatile
  4079  005072  B0D8               	btfsc	status,0,c
  4080  005074  D00A               	goto	l16074
  4081  005076  EC74  F039         	call	_PB1pressed	;wreg free
  4082  00507A  0900               	iorlw	0
  4083  00507C  A4D8               	btfss	status,2,c
  4084  00507E  D005               	goto	l16074
  4085  005080  EC60  F039         	call	_PB2pressed	;wreg free
  4086  005084  0900               	iorlw	0
  4087  005086  B4D8               	btfsc	status,2,c
  4088  005088  D7F0               	goto	l16068
  4089  00508A                     l16074:
  4090  00508A  0E00               	movlw	0
  4091  00508C  6E2F               	movwf	_ms_count3+1,c	;volatile
  4092  00508E  0E00               	movlw	0
  4093  005090  6E2E               	movwf	_ms_count3,c	;volatile
  4094  005092  EC74  F039         	call	_PB1pressed	;wreg free
  4095  005096  0900               	iorlw	0
  4096  005098  A4D8               	btfss	status,2,c
  4097  00509A  EF73  F02C         	goto	l16470
  4098  00509E  EC60  F039         	call	_PB2pressed	;wreg free
  4099  0050A2  0900               	iorlw	0
  4100  0050A4  A4D8               	btfss	status,2,c
  4101  0050A6  EF73  F02C         	goto	l16470
  4102  0050AA  D00E               	goto	l16084
  4103  0050AC                     l2111:
  4104  0050AC  8C91               	bsf	3985,6,c	;volatile
  4105  0050AE  0E47               	movlw	71
  4106  0050B0  ECC4  F039         	call	_Delay10TCYx
  4107  0050B4  0E47               	movlw	71
  4108  0050B6  ECC4  F039         	call	_Delay10TCYx
  4109  0050BA  9C91               	bcf	3985,6,c	;volatile
  4110  0050BC  0E47               	movlw	71
  4111  0050BE  ECC4  F039         	call	_Delay10TCYx
  4112  0050C2  0E47               	movlw	71
  4113  0050C4  ECC4  F039         	call	_Delay10TCYx
  4114  0050C8                     l16084:
  4115  0050C8  0E91               	movlw	145
  4116  0050CA  5C2E               	subwf	_ms_count3,w,c	;volatile
  4117  0050CC  0E01               	movlw	1
  4118  0050CE  582F               	subwfb	_ms_count3+1,w,c	;volatile
  4119  0050D0  B0D8               	btfsc	status,0,c
  4120  0050D2  D00A               	goto	l16090
  4121  0050D4  EC74  F039         	call	_PB1pressed	;wreg free
  4122  0050D8  0900               	iorlw	0
  4123  0050DA  A4D8               	btfss	status,2,c
  4124  0050DC  D005               	goto	l16090
  4125  0050DE  EC60  F039         	call	_PB2pressed	;wreg free
  4126  0050E2  0900               	iorlw	0
  4127  0050E4  B4D8               	btfsc	status,2,c
  4128  0050E6  D7E2               	goto	l2111
  4129  0050E8                     l16090:
  4130  0050E8  0E00               	movlw	0
  4131  0050EA  6E2F               	movwf	_ms_count3+1,c	;volatile
  4132  0050EC  0E00               	movlw	0
  4133  0050EE  6E2E               	movwf	_ms_count3,c	;volatile
  4134  0050F0                     l16092:
  4135  0050F0  502F               	movf	_ms_count3+1,w,c	;volatile
  4136  0050F2  E10E               	bnz	l16098
  4137  0050F4  0EC9               	movlw	201
  4138  0050F6  5C2E               	subwf	_ms_count3,w,c	;volatile
  4139  0050F8  B0D8               	btfsc	status,0,c
  4140  0050FA  D00A               	goto	l16098
  4141  0050FC  EC74  F039         	call	_PB1pressed	;wreg free
  4142  005100  0900               	iorlw	0
  4143  005102  A4D8               	btfss	status,2,c
  4144  005104  D005               	goto	l16098
  4145  005106  EC60  F039         	call	_PB2pressed	;wreg free
  4146  00510A  0900               	iorlw	0
  4147  00510C  B4D8               	btfsc	status,2,c
  4148  00510E  D7F0               	goto	l16092
  4149  005110                     l16098:
  4150  005110  0E00               	movlw	0
  4151  005112  6E2F               	movwf	_ms_count3+1,c	;volatile
  4152  005114  0E00               	movlw	0
  4153  005116  6E2E               	movwf	_ms_count3,c	;volatile
  4154  005118  EC74  F039         	call	_PB1pressed	;wreg free
  4155  00511C  0900               	iorlw	0
  4156  00511E  A4D8               	btfss	status,2,c
  4157  005120  D3E2               	goto	l16470
  4158  005122  EC60  F039         	call	_PB2pressed	;wreg free
  4159  005126  0900               	iorlw	0
  4160  005128  A4D8               	btfss	status,2,c
  4161  00512A  D3DD               	goto	l16470
  4162  00512C  D00E               	goto	l16108
  4163  00512E                     l2124:
  4164  00512E  8C91               	bsf	3985,6,c	;volatile
  4165  005130  0E54               	movlw	84
  4166  005132  ECC4  F039         	call	_Delay10TCYx
  4167  005136  0E54               	movlw	84
  4168  005138  ECC4  F039         	call	_Delay10TCYx
  4169  00513C  9C91               	bcf	3985,6,c	;volatile
  4170  00513E  0E54               	movlw	84
  4171  005140  ECC4  F039         	call	_Delay10TCYx
  4172  005144  0E54               	movlw	84
  4173  005146  ECC4  F039         	call	_Delay10TCYx
  4174  00514A                     l16108:
  4175  00514A  502F               	movf	_ms_count3+1,w,c	;volatile
  4176  00514C  E10E               	bnz	l16114
  4177  00514E  0EC9               	movlw	201
  4178  005150  5C2E               	subwf	_ms_count3,w,c	;volatile
  4179  005152  B0D8               	btfsc	status,0,c
  4180  005154  D00A               	goto	l16114
  4181  005156  EC74  F039         	call	_PB1pressed	;wreg free
  4182  00515A  0900               	iorlw	0
  4183  00515C  A4D8               	btfss	status,2,c
  4184  00515E  D005               	goto	l16114
  4185  005160  EC60  F039         	call	_PB2pressed	;wreg free
  4186  005164  0900               	iorlw	0
  4187  005166  B4D8               	btfsc	status,2,c
  4188  005168  D7E2               	goto	l2124
  4189  00516A                     l16114:
  4190  00516A  0E00               	movlw	0
  4191  00516C  6E2F               	movwf	_ms_count3+1,c	;volatile
  4192  00516E  0E00               	movlw	0
  4193  005170  6E2E               	movwf	_ms_count3,c	;volatile
  4194  005172                     l16116:
  4195  005172  502F               	movf	_ms_count3+1,w,c	;volatile
  4196  005174  E10E               	bnz	l16122
  4197  005176  0E65               	movlw	101
  4198  005178  5C2E               	subwf	_ms_count3,w,c	;volatile
  4199  00517A  B0D8               	btfsc	status,0,c
  4200  00517C  D00A               	goto	l16122
  4201  00517E  EC74  F039         	call	_PB1pressed	;wreg free
  4202  005182  0900               	iorlw	0
  4203  005184  A4D8               	btfss	status,2,c
  4204  005186  D005               	goto	l16122
  4205  005188  EC60  F039         	call	_PB2pressed	;wreg free
  4206  00518C  0900               	iorlw	0
  4207  00518E  B4D8               	btfsc	status,2,c
  4208  005190  D7F0               	goto	l16116
  4209  005192                     l16122:
  4210  005192  0E00               	movlw	0
  4211  005194  6E2F               	movwf	_ms_count3+1,c	;volatile
  4212  005196  0E00               	movlw	0
  4213  005198  6E2E               	movwf	_ms_count3,c	;volatile
  4214  00519A  EC74  F039         	call	_PB1pressed	;wreg free
  4215  00519E  0900               	iorlw	0
  4216  0051A0  A4D8               	btfss	status,2,c
  4217  0051A2  D3A1               	goto	l16470
  4218  0051A4  EC60  F039         	call	_PB2pressed	;wreg free
  4219  0051A8  0900               	iorlw	0
  4220  0051AA  A4D8               	btfss	status,2,c
  4221  0051AC  D39C               	goto	l16470
  4222  0051AE  D00E               	goto	l16132
  4223  0051B0                     l2137:
  4224  0051B0  8C91               	bsf	3985,6,c	;volatile
  4225  0051B2  0E54               	movlw	84
  4226  0051B4  ECC4  F039         	call	_Delay10TCYx
  4227  0051B8  0E54               	movlw	84
  4228  0051BA  ECC4  F039         	call	_Delay10TCYx
  4229  0051BE  9C91               	bcf	3985,6,c	;volatile
  4230  0051C0  0E54               	movlw	84
  4231  0051C2  ECC4  F039         	call	_Delay10TCYx
  4232  0051C6  0E54               	movlw	84
  4233  0051C8  ECC4  F039         	call	_Delay10TCYx
  4234  0051CC                     l16132:
  4235  0051CC  502F               	movf	_ms_count3+1,w,c	;volatile
  4236  0051CE  E10E               	bnz	l16138
  4237  0051D0  0EC9               	movlw	201
  4238  0051D2  5C2E               	subwf	_ms_count3,w,c	;volatile
  4239  0051D4  B0D8               	btfsc	status,0,c
  4240  0051D6  D00A               	goto	l16138
  4241  0051D8  EC74  F039         	call	_PB1pressed	;wreg free
  4242  0051DC  0900               	iorlw	0
  4243  0051DE  A4D8               	btfss	status,2,c
  4244  0051E0  D005               	goto	l16138
  4245  0051E2  EC60  F039         	call	_PB2pressed	;wreg free
  4246  0051E6  0900               	iorlw	0
  4247  0051E8  B4D8               	btfsc	status,2,c
  4248  0051EA  D7E2               	goto	l2137
  4249  0051EC                     l16138:
  4250  0051EC  0E00               	movlw	0
  4251  0051EE  6E2F               	movwf	_ms_count3+1,c	;volatile
  4252  0051F0  0E00               	movlw	0
  4253  0051F2  6E2E               	movwf	_ms_count3,c	;volatile
  4254  0051F4                     l16140:
  4255  0051F4  502F               	movf	_ms_count3+1,w,c	;volatile
  4256  0051F6  E10E               	bnz	l16146
  4257  0051F8  0E65               	movlw	101
  4258  0051FA  5C2E               	subwf	_ms_count3,w,c	;volatile
  4259  0051FC  B0D8               	btfsc	status,0,c
  4260  0051FE  D00A               	goto	l16146
  4261  005200  EC74  F039         	call	_PB1pressed	;wreg free
  4262  005204  0900               	iorlw	0
  4263  005206  A4D8               	btfss	status,2,c
  4264  005208  D005               	goto	l16146
  4265  00520A  EC60  F039         	call	_PB2pressed	;wreg free
  4266  00520E  0900               	iorlw	0
  4267  005210  B4D8               	btfsc	status,2,c
  4268  005212  D7F0               	goto	l16140
  4269  005214                     l16146:
  4270  005214  0E00               	movlw	0
  4271  005216  6E2F               	movwf	_ms_count3+1,c	;volatile
  4272  005218  0E00               	movlw	0
  4273  00521A  6E2E               	movwf	_ms_count3,c	;volatile
  4274  00521C  EC74  F039         	call	_PB1pressed	;wreg free
  4275  005220  0900               	iorlw	0
  4276  005222  A4D8               	btfss	status,2,c
  4277  005224  D360               	goto	l16470
  4278  005226  EC60  F039         	call	_PB2pressed	;wreg free
  4279  00522A  0900               	iorlw	0
  4280  00522C  A4D8               	btfss	status,2,c
  4281  00522E  D35B               	goto	l16470
  4282  005230  D00E               	goto	l16156
  4283  005232                     l2150:
  4284  005232  8C91               	bsf	3985,6,c	;volatile
  4285  005234  0E50               	movlw	80
  4286  005236  ECC4  F039         	call	_Delay10TCYx
  4287  00523A  0E50               	movlw	80
  4288  00523C  ECC4  F039         	call	_Delay10TCYx
  4289  005240  9C91               	bcf	3985,6,c	;volatile
  4290  005242  0E50               	movlw	80
  4291  005244  ECC4  F039         	call	_Delay10TCYx
  4292  005248  0E50               	movlw	80
  4293  00524A  ECC4  F039         	call	_Delay10TCYx
  4294  00524E                     l16156:
  4295  00524E  502F               	movf	_ms_count3+1,w,c	;volatile
  4296  005250  E10E               	bnz	l16162
  4297  005252  0EC9               	movlw	201
  4298  005254  5C2E               	subwf	_ms_count3,w,c	;volatile
  4299  005256  B0D8               	btfsc	status,0,c
  4300  005258  D00A               	goto	l16162
  4301  00525A  EC74  F039         	call	_PB1pressed	;wreg free
  4302  00525E  0900               	iorlw	0
  4303  005260  A4D8               	btfss	status,2,c
  4304  005262  D005               	goto	l16162
  4305  005264  EC60  F039         	call	_PB2pressed	;wreg free
  4306  005268  0900               	iorlw	0
  4307  00526A  B4D8               	btfsc	status,2,c
  4308  00526C  D7E2               	goto	l2150
  4309  00526E                     l16162:
  4310  00526E  0E00               	movlw	0
  4311  005270  6E2F               	movwf	_ms_count3+1,c	;volatile
  4312  005272  0E00               	movlw	0
  4313  005274  6E2E               	movwf	_ms_count3,c	;volatile
  4314  005276                     l16164:
  4315  005276  502F               	movf	_ms_count3+1,w,c	;volatile
  4316  005278  E10E               	bnz	l16170
  4317  00527A  0E65               	movlw	101
  4318  00527C  5C2E               	subwf	_ms_count3,w,c	;volatile
  4319  00527E  B0D8               	btfsc	status,0,c
  4320  005280  D00A               	goto	l16170
  4321  005282  EC74  F039         	call	_PB1pressed	;wreg free
  4322  005286  0900               	iorlw	0
  4323  005288  A4D8               	btfss	status,2,c
  4324  00528A  D005               	goto	l16170
  4325  00528C  EC60  F039         	call	_PB2pressed	;wreg free
  4326  005290  0900               	iorlw	0
  4327  005292  B4D8               	btfsc	status,2,c
  4328  005294  D7F0               	goto	l16164
  4329  005296                     l16170:
  4330  005296  0E00               	movlw	0
  4331  005298  6E2F               	movwf	_ms_count3+1,c	;volatile
  4332  00529A  0E00               	movlw	0
  4333  00529C  6E2E               	movwf	_ms_count3,c	;volatile
  4334  00529E  EC74  F039         	call	_PB1pressed	;wreg free
  4335  0052A2  0900               	iorlw	0
  4336  0052A4  A4D8               	btfss	status,2,c
  4337  0052A6  D31F               	goto	l16470
  4338  0052A8  EC60  F039         	call	_PB2pressed	;wreg free
  4339  0052AC  0900               	iorlw	0
  4340  0052AE  A4D8               	btfss	status,2,c
  4341  0052B0  D31A               	goto	l16470
  4342  0052B2  D00E               	goto	l16180
  4343  0052B4                     l2163:
  4344  0052B4  8C91               	bsf	3985,6,c	;volatile
  4345  0052B6  0E47               	movlw	71
  4346  0052B8  ECC4  F039         	call	_Delay10TCYx
  4347  0052BC  0E47               	movlw	71
  4348  0052BE  ECC4  F039         	call	_Delay10TCYx
  4349  0052C2  9C91               	bcf	3985,6,c	;volatile
  4350  0052C4  0E47               	movlw	71
  4351  0052C6  ECC4  F039         	call	_Delay10TCYx
  4352  0052CA  0E47               	movlw	71
  4353  0052CC  ECC4  F039         	call	_Delay10TCYx
  4354  0052D0                     l16180:
  4355  0052D0  502F               	movf	_ms_count3+1,w,c	;volatile
  4356  0052D2  E10E               	bnz	l16186
  4357  0052D4  0EC9               	movlw	201
  4358  0052D6  5C2E               	subwf	_ms_count3,w,c	;volatile
  4359  0052D8  B0D8               	btfsc	status,0,c
  4360  0052DA  D00A               	goto	l16186
  4361  0052DC  EC74  F039         	call	_PB1pressed	;wreg free
  4362  0052E0  0900               	iorlw	0
  4363  0052E2  A4D8               	btfss	status,2,c
  4364  0052E4  D005               	goto	l16186
  4365  0052E6  EC60  F039         	call	_PB2pressed	;wreg free
  4366  0052EA  0900               	iorlw	0
  4367  0052EC  B4D8               	btfsc	status,2,c
  4368  0052EE  D7E2               	goto	l2163
  4369  0052F0                     l16186:
  4370  0052F0  0E00               	movlw	0
  4371  0052F2  6E2F               	movwf	_ms_count3+1,c	;volatile
  4372  0052F4  0E00               	movlw	0
  4373  0052F6  6E2E               	movwf	_ms_count3,c	;volatile
  4374  0052F8                     l16188:
  4375  0052F8  502F               	movf	_ms_count3+1,w,c	;volatile
  4376  0052FA  E10E               	bnz	l16194
  4377  0052FC  0E65               	movlw	101
  4378  0052FE  5C2E               	subwf	_ms_count3,w,c	;volatile
  4379  005300  B0D8               	btfsc	status,0,c
  4380  005302  D00A               	goto	l16194
  4381  005304  EC74  F039         	call	_PB1pressed	;wreg free
  4382  005308  0900               	iorlw	0
  4383  00530A  A4D8               	btfss	status,2,c
  4384  00530C  D005               	goto	l16194
  4385  00530E  EC60  F039         	call	_PB2pressed	;wreg free
  4386  005312  0900               	iorlw	0
  4387  005314  B4D8               	btfsc	status,2,c
  4388  005316  D7F0               	goto	l16188
  4389  005318                     l16194:
  4390  005318  0E00               	movlw	0
  4391  00531A  6E2F               	movwf	_ms_count3+1,c	;volatile
  4392  00531C  0E00               	movlw	0
  4393  00531E  6E2E               	movwf	_ms_count3,c	;volatile
  4394  005320  EC74  F039         	call	_PB1pressed	;wreg free
  4395  005324  0900               	iorlw	0
  4396  005326  A4D8               	btfss	status,2,c
  4397  005328  D2DE               	goto	l16470
  4398  00532A  EC60  F039         	call	_PB2pressed	;wreg free
  4399  00532E  0900               	iorlw	0
  4400  005330  A4D8               	btfss	status,2,c
  4401  005332  D2D9               	goto	l16470
  4402  005334  D00E               	goto	l16204
  4403  005336                     l2176:
  4404  005336  8C91               	bsf	3985,6,c	;volatile
  4405  005338  0E47               	movlw	71
  4406  00533A  ECC4  F039         	call	_Delay10TCYx
  4407  00533E  0E47               	movlw	71
  4408  005340  ECC4  F039         	call	_Delay10TCYx
  4409  005344  9C91               	bcf	3985,6,c	;volatile
  4410  005346  0E47               	movlw	71
  4411  005348  ECC4  F039         	call	_Delay10TCYx
  4412  00534C  0E47               	movlw	71
  4413  00534E  ECC4  F039         	call	_Delay10TCYx
  4414  005352                     l16204:
  4415  005352  502F               	movf	_ms_count3+1,w,c	;volatile
  4416  005354  E10E               	bnz	l16210
  4417  005356  0EC9               	movlw	201
  4418  005358  5C2E               	subwf	_ms_count3,w,c	;volatile
  4419  00535A  B0D8               	btfsc	status,0,c
  4420  00535C  D00A               	goto	l16210
  4421  00535E  EC74  F039         	call	_PB1pressed	;wreg free
  4422  005362  0900               	iorlw	0
  4423  005364  A4D8               	btfss	status,2,c
  4424  005366  D005               	goto	l16210
  4425  005368  EC60  F039         	call	_PB2pressed	;wreg free
  4426  00536C  0900               	iorlw	0
  4427  00536E  B4D8               	btfsc	status,2,c
  4428  005370  D7E2               	goto	l2176
  4429  005372                     l16210:
  4430  005372  0E00               	movlw	0
  4431  005374  6E2F               	movwf	_ms_count3+1,c	;volatile
  4432  005376  0E00               	movlw	0
  4433  005378  6E2E               	movwf	_ms_count3,c	;volatile
  4434  00537A                     l16212:
  4435  00537A  502F               	movf	_ms_count3+1,w,c	;volatile
  4436  00537C  E10E               	bnz	l16218
  4437  00537E  0E65               	movlw	101
  4438  005380  5C2E               	subwf	_ms_count3,w,c	;volatile
  4439  005382  B0D8               	btfsc	status,0,c
  4440  005384  D00A               	goto	l16218
  4441  005386  EC74  F039         	call	_PB1pressed	;wreg free
  4442  00538A  0900               	iorlw	0
  4443  00538C  A4D8               	btfss	status,2,c
  4444  00538E  D005               	goto	l16218
  4445  005390  EC60  F039         	call	_PB2pressed	;wreg free
  4446  005394  0900               	iorlw	0
  4447  005396  B4D8               	btfsc	status,2,c
  4448  005398  D7F0               	goto	l16212
  4449  00539A                     l16218:
  4450  00539A  0E00               	movlw	0
  4451  00539C  6E2F               	movwf	_ms_count3+1,c	;volatile
  4452  00539E  0E00               	movlw	0
  4453  0053A0  6E2E               	movwf	_ms_count3,c	;volatile
  4454  0053A2  EC74  F039         	call	_PB1pressed	;wreg free
  4455  0053A6  0900               	iorlw	0
  4456  0053A8  A4D8               	btfss	status,2,c
  4457  0053AA  D29D               	goto	l16470
  4458  0053AC  EC60  F039         	call	_PB2pressed	;wreg free
  4459  0053B0  0900               	iorlw	0
  4460  0053B2  A4D8               	btfss	status,2,c
  4461  0053B4  D298               	goto	l16470
  4462  0053B6  D00E               	goto	l16228
  4463  0053B8                     l2189:
  4464  0053B8  8C91               	bsf	3985,6,c	;volatile
  4465  0053BA  0E50               	movlw	80
  4466  0053BC  ECC4  F039         	call	_Delay10TCYx
  4467  0053C0  0E50               	movlw	80
  4468  0053C2  ECC4  F039         	call	_Delay10TCYx
  4469  0053C6  9C91               	bcf	3985,6,c	;volatile
  4470  0053C8  0E50               	movlw	80
  4471  0053CA  ECC4  F039         	call	_Delay10TCYx
  4472  0053CE  0E50               	movlw	80
  4473  0053D0  ECC4  F039         	call	_Delay10TCYx
  4474  0053D4                     l16228:
  4475  0053D4  502F               	movf	_ms_count3+1,w,c	;volatile
  4476  0053D6  E10E               	bnz	l16234
  4477  0053D8  0EC9               	movlw	201
  4478  0053DA  5C2E               	subwf	_ms_count3,w,c	;volatile
  4479  0053DC  B0D8               	btfsc	status,0,c
  4480  0053DE  D00A               	goto	l16234
  4481  0053E0  EC74  F039         	call	_PB1pressed	;wreg free
  4482  0053E4  0900               	iorlw	0
  4483  0053E6  A4D8               	btfss	status,2,c
  4484  0053E8  D005               	goto	l16234
  4485  0053EA  EC60  F039         	call	_PB2pressed	;wreg free
  4486  0053EE  0900               	iorlw	0
  4487  0053F0  B4D8               	btfsc	status,2,c
  4488  0053F2  D7E2               	goto	l2189
  4489  0053F4                     l16234:
  4490  0053F4  0E00               	movlw	0
  4491  0053F6  6E2F               	movwf	_ms_count3+1,c	;volatile
  4492  0053F8  0E00               	movlw	0
  4493  0053FA  6E2E               	movwf	_ms_count3,c	;volatile
  4494  0053FC                     l16236:
  4495  0053FC  502F               	movf	_ms_count3+1,w,c	;volatile
  4496  0053FE  E10E               	bnz	l16242
  4497  005400  0E65               	movlw	101
  4498  005402  5C2E               	subwf	_ms_count3,w,c	;volatile
  4499  005404  B0D8               	btfsc	status,0,c
  4500  005406  D00A               	goto	l16242
  4501  005408  EC74  F039         	call	_PB1pressed	;wreg free
  4502  00540C  0900               	iorlw	0
  4503  00540E  A4D8               	btfss	status,2,c
  4504  005410  D005               	goto	l16242
  4505  005412  EC60  F039         	call	_PB2pressed	;wreg free
  4506  005416  0900               	iorlw	0
  4507  005418  B4D8               	btfsc	status,2,c
  4508  00541A  D7F0               	goto	l16236
  4509  00541C                     l16242:
  4510  00541C  0E00               	movlw	0
  4511  00541E  6E2F               	movwf	_ms_count3+1,c	;volatile
  4512  005420  0E00               	movlw	0
  4513  005422  6E2E               	movwf	_ms_count3,c	;volatile
  4514  005424  EC74  F039         	call	_PB1pressed	;wreg free
  4515  005428  0900               	iorlw	0
  4516  00542A  A4D8               	btfss	status,2,c
  4517  00542C  D25C               	goto	l16470
  4518  00542E  EC60  F039         	call	_PB2pressed	;wreg free
  4519  005432  0900               	iorlw	0
  4520  005434  A4D8               	btfss	status,2,c
  4521  005436  D257               	goto	l16470
  4522  005438  D00E               	goto	l16252
  4523  00543A                     l2202:
  4524  00543A  8C91               	bsf	3985,6,c	;volatile
  4525  00543C  0E54               	movlw	84
  4526  00543E  ECC4  F039         	call	_Delay10TCYx
  4527  005442  0E54               	movlw	84
  4528  005444  ECC4  F039         	call	_Delay10TCYx
  4529  005448  9C91               	bcf	3985,6,c	;volatile
  4530  00544A  0E54               	movlw	84
  4531  00544C  ECC4  F039         	call	_Delay10TCYx
  4532  005450  0E54               	movlw	84
  4533  005452  ECC4  F039         	call	_Delay10TCYx
  4534  005456                     l16252:
  4535  005456  502F               	movf	_ms_count3+1,w,c	;volatile
  4536  005458  E10E               	bnz	l16258
  4537  00545A  0EC9               	movlw	201
  4538  00545C  5C2E               	subwf	_ms_count3,w,c	;volatile
  4539  00545E  B0D8               	btfsc	status,0,c
  4540  005460  D00A               	goto	l16258
  4541  005462  EC74  F039         	call	_PB1pressed	;wreg free
  4542  005466  0900               	iorlw	0
  4543  005468  A4D8               	btfss	status,2,c
  4544  00546A  D005               	goto	l16258
  4545  00546C  EC60  F039         	call	_PB2pressed	;wreg free
  4546  005470  0900               	iorlw	0
  4547  005472  B4D8               	btfsc	status,2,c
  4548  005474  D7E2               	goto	l2202
  4549  005476                     l16258:
  4550  005476  0E00               	movlw	0
  4551  005478  6E2F               	movwf	_ms_count3+1,c	;volatile
  4552  00547A  0E00               	movlw	0
  4553  00547C  6E2E               	movwf	_ms_count3,c	;volatile
  4554  00547E                     l16260:
  4555  00547E  502F               	movf	_ms_count3+1,w,c	;volatile
  4556  005480  E10E               	bnz	l16266
  4557  005482  0E65               	movlw	101
  4558  005484  5C2E               	subwf	_ms_count3,w,c	;volatile
  4559  005486  B0D8               	btfsc	status,0,c
  4560  005488  D00A               	goto	l16266
  4561  00548A  EC74  F039         	call	_PB1pressed	;wreg free
  4562  00548E  0900               	iorlw	0
  4563  005490  A4D8               	btfss	status,2,c
  4564  005492  D005               	goto	l16266
  4565  005494  EC60  F039         	call	_PB2pressed	;wreg free
  4566  005498  0900               	iorlw	0
  4567  00549A  B4D8               	btfsc	status,2,c
  4568  00549C  D7F0               	goto	l16260
  4569  00549E                     l16266:
  4570  00549E  0E00               	movlw	0
  4571  0054A0  6E2F               	movwf	_ms_count3+1,c	;volatile
  4572  0054A2  0E00               	movlw	0
  4573  0054A4  6E2E               	movwf	_ms_count3,c	;volatile
  4574  0054A6  EC74  F039         	call	_PB1pressed	;wreg free
  4575  0054AA  0900               	iorlw	0
  4576  0054AC  A4D8               	btfss	status,2,c
  4577  0054AE  D21B               	goto	l16470
  4578  0054B0  EC60  F039         	call	_PB2pressed	;wreg free
  4579  0054B4  0900               	iorlw	0
  4580  0054B6  A4D8               	btfss	status,2,c
  4581  0054B8  D216               	goto	l16470
  4582  0054BA  D00E               	goto	l16276
  4583  0054BC                     l2215:
  4584  0054BC  8C91               	bsf	3985,6,c	;volatile
  4585  0054BE  0E5F               	movlw	95
  4586  0054C0  ECC4  F039         	call	_Delay10TCYx
  4587  0054C4  0E5F               	movlw	95
  4588  0054C6  ECC4  F039         	call	_Delay10TCYx
  4589  0054CA  9C91               	bcf	3985,6,c	;volatile
  4590  0054CC  0E5F               	movlw	95
  4591  0054CE  ECC4  F039         	call	_Delay10TCYx
  4592  0054D2  0E5F               	movlw	95
  4593  0054D4  ECC4  F039         	call	_Delay10TCYx
  4594  0054D8                     l16276:
  4595  0054D8  502F               	movf	_ms_count3+1,w,c	;volatile
  4596  0054DA  E10E               	bnz	l16282
  4597  0054DC  0EC9               	movlw	201
  4598  0054DE  5C2E               	subwf	_ms_count3,w,c	;volatile
  4599  0054E0  B0D8               	btfsc	status,0,c
  4600  0054E2  D00A               	goto	l16282
  4601  0054E4  EC74  F039         	call	_PB1pressed	;wreg free
  4602  0054E8  0900               	iorlw	0
  4603  0054EA  A4D8               	btfss	status,2,c
  4604  0054EC  D005               	goto	l16282
  4605  0054EE  EC60  F039         	call	_PB2pressed	;wreg free
  4606  0054F2  0900               	iorlw	0
  4607  0054F4  B4D8               	btfsc	status,2,c
  4608  0054F6  D7E2               	goto	l2215
  4609  0054F8                     l16282:
  4610  0054F8  0E00               	movlw	0
  4611  0054FA  6E2F               	movwf	_ms_count3+1,c	;volatile
  4612  0054FC  0E00               	movlw	0
  4613  0054FE  6E2E               	movwf	_ms_count3,c	;volatile
  4614  005500                     l16284:
  4615  005500  502F               	movf	_ms_count3+1,w,c	;volatile
  4616  005502  E10E               	bnz	l16290
  4617  005504  0E65               	movlw	101
  4618  005506  5C2E               	subwf	_ms_count3,w,c	;volatile
  4619  005508  B0D8               	btfsc	status,0,c
  4620  00550A  D00A               	goto	l16290
  4621  00550C  EC74  F039         	call	_PB1pressed	;wreg free
  4622  005510  0900               	iorlw	0
  4623  005512  A4D8               	btfss	status,2,c
  4624  005514  D005               	goto	l16290
  4625  005516  EC60  F039         	call	_PB2pressed	;wreg free
  4626  00551A  0900               	iorlw	0
  4627  00551C  B4D8               	btfsc	status,2,c
  4628  00551E  D7F0               	goto	l16284
  4629  005520                     l16290:
  4630  005520  0E00               	movlw	0
  4631  005522  6E2F               	movwf	_ms_count3+1,c	;volatile
  4632  005524  0E00               	movlw	0
  4633  005526  6E2E               	movwf	_ms_count3,c	;volatile
  4634  005528  EC74  F039         	call	_PB1pressed	;wreg free
  4635  00552C  0900               	iorlw	0
  4636  00552E  A4D8               	btfss	status,2,c
  4637  005530  D1DA               	goto	l16470
  4638  005532  EC60  F039         	call	_PB2pressed	;wreg free
  4639  005536  0900               	iorlw	0
  4640  005538  A4D8               	btfss	status,2,c
  4641  00553A  D1D5               	goto	l16470
  4642  00553C  D00E               	goto	l16300
  4643  00553E                     l2228:
  4644  00553E  8C91               	bsf	3985,6,c	;volatile
  4645  005540  0E6A               	movlw	106
  4646  005542  ECC4  F039         	call	_Delay10TCYx
  4647  005546  0E6A               	movlw	106
  4648  005548  ECC4  F039         	call	_Delay10TCYx
  4649  00554C  9C91               	bcf	3985,6,c	;volatile
  4650  00554E  0E6A               	movlw	106
  4651  005550  ECC4  F039         	call	_Delay10TCYx
  4652  005554  0E6A               	movlw	106
  4653  005556  ECC4  F039         	call	_Delay10TCYx
  4654  00555A                     l16300:
  4655  00555A  502F               	movf	_ms_count3+1,w,c	;volatile
  4656  00555C  E10E               	bnz	l16306
  4657  00555E  0EC9               	movlw	201
  4658  005560  5C2E               	subwf	_ms_count3,w,c	;volatile
  4659  005562  B0D8               	btfsc	status,0,c
  4660  005564  D00A               	goto	l16306
  4661  005566  EC74  F039         	call	_PB1pressed	;wreg free
  4662  00556A  0900               	iorlw	0
  4663  00556C  A4D8               	btfss	status,2,c
  4664  00556E  D005               	goto	l16306
  4665  005570  EC60  F039         	call	_PB2pressed	;wreg free
  4666  005574  0900               	iorlw	0
  4667  005576  B4D8               	btfsc	status,2,c
  4668  005578  D7E2               	goto	l2228
  4669  00557A                     l16306:
  4670  00557A  0E00               	movlw	0
  4671  00557C  6E2F               	movwf	_ms_count3+1,c	;volatile
  4672  00557E  0E00               	movlw	0
  4673  005580  6E2E               	movwf	_ms_count3,c	;volatile
  4674  005582                     l16308:
  4675  005582  502F               	movf	_ms_count3+1,w,c	;volatile
  4676  005584  E10E               	bnz	l16314
  4677  005586  0E65               	movlw	101
  4678  005588  5C2E               	subwf	_ms_count3,w,c	;volatile
  4679  00558A  B0D8               	btfsc	status,0,c
  4680  00558C  D00A               	goto	l16314
  4681  00558E  EC74  F039         	call	_PB1pressed	;wreg free
  4682  005592  0900               	iorlw	0
  4683  005594  A4D8               	btfss	status,2,c
  4684  005596  D005               	goto	l16314
  4685  005598  EC60  F039         	call	_PB2pressed	;wreg free
  4686  00559C  0900               	iorlw	0
  4687  00559E  B4D8               	btfsc	status,2,c
  4688  0055A0  D7F0               	goto	l16308
  4689  0055A2                     l16314:
  4690  0055A2  0E00               	movlw	0
  4691  0055A4  6E2F               	movwf	_ms_count3+1,c	;volatile
  4692  0055A6  0E00               	movlw	0
  4693  0055A8  6E2E               	movwf	_ms_count3,c	;volatile
  4694  0055AA  EC74  F039         	call	_PB1pressed	;wreg free
  4695  0055AE  0900               	iorlw	0
  4696  0055B0  A4D8               	btfss	status,2,c
  4697  0055B2  D199               	goto	l16470
  4698  0055B4  EC60  F039         	call	_PB2pressed	;wreg free
  4699  0055B8  0900               	iorlw	0
  4700  0055BA  A4D8               	btfss	status,2,c
  4701  0055BC  D194               	goto	l16470
  4702  0055BE  D00E               	goto	l16324
  4703  0055C0                     l2241:
  4704  0055C0  8C91               	bsf	3985,6,c	;volatile
  4705  0055C2  0E6A               	movlw	106
  4706  0055C4  ECC4  F039         	call	_Delay10TCYx
  4707  0055C8  0E6A               	movlw	106
  4708  0055CA  ECC4  F039         	call	_Delay10TCYx
  4709  0055CE  9C91               	bcf	3985,6,c	;volatile
  4710  0055D0  0E6A               	movlw	106
  4711  0055D2  ECC4  F039         	call	_Delay10TCYx
  4712  0055D6  0E6A               	movlw	106
  4713  0055D8  ECC4  F039         	call	_Delay10TCYx
  4714  0055DC                     l16324:
  4715  0055DC  502F               	movf	_ms_count3+1,w,c	;volatile
  4716  0055DE  E10E               	bnz	l16330
  4717  0055E0  0EC9               	movlw	201
  4718  0055E2  5C2E               	subwf	_ms_count3,w,c	;volatile
  4719  0055E4  B0D8               	btfsc	status,0,c
  4720  0055E6  D00A               	goto	l16330
  4721  0055E8  EC74  F039         	call	_PB1pressed	;wreg free
  4722  0055EC  0900               	iorlw	0
  4723  0055EE  A4D8               	btfss	status,2,c
  4724  0055F0  D005               	goto	l16330
  4725  0055F2  EC60  F039         	call	_PB2pressed	;wreg free
  4726  0055F6  0900               	iorlw	0
  4727  0055F8  B4D8               	btfsc	status,2,c
  4728  0055FA  D7E2               	goto	l2241
  4729  0055FC                     l16330:
  4730  0055FC  0E00               	movlw	0
  4731  0055FE  6E2F               	movwf	_ms_count3+1,c	;volatile
  4732  005600  0E00               	movlw	0
  4733  005602  6E2E               	movwf	_ms_count3,c	;volatile
  4734  005604                     l16332:
  4735  005604  502F               	movf	_ms_count3+1,w,c	;volatile
  4736  005606  E10E               	bnz	l16338
  4737  005608  0E65               	movlw	101
  4738  00560A  5C2E               	subwf	_ms_count3,w,c	;volatile
  4739  00560C  B0D8               	btfsc	status,0,c
  4740  00560E  D00A               	goto	l16338
  4741  005610  EC74  F039         	call	_PB1pressed	;wreg free
  4742  005614  0900               	iorlw	0
  4743  005616  A4D8               	btfss	status,2,c
  4744  005618  D005               	goto	l16338
  4745  00561A  EC60  F039         	call	_PB2pressed	;wreg free
  4746  00561E  0900               	iorlw	0
  4747  005620  B4D8               	btfsc	status,2,c
  4748  005622  D7F0               	goto	l16332
  4749  005624                     l16338:
  4750  005624  0E00               	movlw	0
  4751  005626  6E2F               	movwf	_ms_count3+1,c	;volatile
  4752  005628  0E00               	movlw	0
  4753  00562A  6E2E               	movwf	_ms_count3,c	;volatile
  4754  00562C  EC74  F039         	call	_PB1pressed	;wreg free
  4755  005630  0900               	iorlw	0
  4756  005632  A4D8               	btfss	status,2,c
  4757  005634  D158               	goto	l16470
  4758  005636  EC60  F039         	call	_PB2pressed	;wreg free
  4759  00563A  0900               	iorlw	0
  4760  00563C  A4D8               	btfss	status,2,c
  4761  00563E  D153               	goto	l16470
  4762  005640  D00E               	goto	l16348
  4763  005642                     l2254:
  4764  005642  8C91               	bsf	3985,6,c	;volatile
  4765  005644  0E5F               	movlw	95
  4766  005646  ECC4  F039         	call	_Delay10TCYx
  4767  00564A  0E5F               	movlw	95
  4768  00564C  ECC4  F039         	call	_Delay10TCYx
  4769  005650  9C91               	bcf	3985,6,c	;volatile
  4770  005652  0E5F               	movlw	95
  4771  005654  ECC4  F039         	call	_Delay10TCYx
  4772  005658  0E5F               	movlw	95
  4773  00565A  ECC4  F039         	call	_Delay10TCYx
  4774  00565E                     l16348:
  4775  00565E  502F               	movf	_ms_count3+1,w,c	;volatile
  4776  005660  E10E               	bnz	l16354
  4777  005662  0EC9               	movlw	201
  4778  005664  5C2E               	subwf	_ms_count3,w,c	;volatile
  4779  005666  B0D8               	btfsc	status,0,c
  4780  005668  D00A               	goto	l16354
  4781  00566A  EC74  F039         	call	_PB1pressed	;wreg free
  4782  00566E  0900               	iorlw	0
  4783  005670  A4D8               	btfss	status,2,c
  4784  005672  D005               	goto	l16354
  4785  005674  EC60  F039         	call	_PB2pressed	;wreg free
  4786  005678  0900               	iorlw	0
  4787  00567A  B4D8               	btfsc	status,2,c
  4788  00567C  D7E2               	goto	l2254
  4789  00567E                     l16354:
  4790  00567E  0E00               	movlw	0
  4791  005680  6E2F               	movwf	_ms_count3+1,c	;volatile
  4792  005682  0E00               	movlw	0
  4793  005684  6E2E               	movwf	_ms_count3,c	;volatile
  4794  005686                     l16356:
  4795  005686  502F               	movf	_ms_count3+1,w,c	;volatile
  4796  005688  E10E               	bnz	l16362
  4797  00568A  0E65               	movlw	101
  4798  00568C  5C2E               	subwf	_ms_count3,w,c	;volatile
  4799  00568E  B0D8               	btfsc	status,0,c
  4800  005690  D00A               	goto	l16362
  4801  005692  EC74  F039         	call	_PB1pressed	;wreg free
  4802  005696  0900               	iorlw	0
  4803  005698  A4D8               	btfss	status,2,c
  4804  00569A  D005               	goto	l16362
  4805  00569C  EC60  F039         	call	_PB2pressed	;wreg free
  4806  0056A0  0900               	iorlw	0
  4807  0056A2  B4D8               	btfsc	status,2,c
  4808  0056A4  D7F0               	goto	l16356
  4809  0056A6                     l16362:
  4810  0056A6  0E00               	movlw	0
  4811  0056A8  6E2F               	movwf	_ms_count3+1,c	;volatile
  4812  0056AA  0E00               	movlw	0
  4813  0056AC  6E2E               	movwf	_ms_count3,c	;volatile
  4814  0056AE  EC74  F039         	call	_PB1pressed	;wreg free
  4815  0056B2  0900               	iorlw	0
  4816  0056B4  A4D8               	btfss	status,2,c
  4817  0056B6  D117               	goto	l16470
  4818  0056B8  EC60  F039         	call	_PB2pressed	;wreg free
  4819  0056BC  0900               	iorlw	0
  4820  0056BE  A4D8               	btfss	status,2,c
  4821  0056C0  D112               	goto	l16470
  4822  0056C2  D00E               	goto	l16372
  4823  0056C4                     l2267:
  4824  0056C4  8C91               	bsf	3985,6,c	;volatile
  4825  0056C6  0E54               	movlw	84
  4826  0056C8  ECC4  F039         	call	_Delay10TCYx
  4827  0056CC  0E54               	movlw	84
  4828  0056CE  ECC4  F039         	call	_Delay10TCYx
  4829  0056D2  9C91               	bcf	3985,6,c	;volatile
  4830  0056D4  0E54               	movlw	84
  4831  0056D6  ECC4  F039         	call	_Delay10TCYx
  4832  0056DA  0E54               	movlw	84
  4833  0056DC  ECC4  F039         	call	_Delay10TCYx
  4834  0056E0                     l16372:
  4835  0056E0  502F               	movf	_ms_count3+1,w,c	;volatile
  4836  0056E2  E10E               	bnz	l16378
  4837  0056E4  0EC9               	movlw	201
  4838  0056E6  5C2E               	subwf	_ms_count3,w,c	;volatile
  4839  0056E8  B0D8               	btfsc	status,0,c
  4840  0056EA  D00A               	goto	l16378
  4841  0056EC  EC74  F039         	call	_PB1pressed	;wreg free
  4842  0056F0  0900               	iorlw	0
  4843  0056F2  A4D8               	btfss	status,2,c
  4844  0056F4  D005               	goto	l16378
  4845  0056F6  EC60  F039         	call	_PB2pressed	;wreg free
  4846  0056FA  0900               	iorlw	0
  4847  0056FC  B4D8               	btfsc	status,2,c
  4848  0056FE  D7E2               	goto	l2267
  4849  005700                     l16378:
  4850  005700  0E00               	movlw	0
  4851  005702  6E2F               	movwf	_ms_count3+1,c	;volatile
  4852  005704  0E00               	movlw	0
  4853  005706  6E2E               	movwf	_ms_count3,c	;volatile
  4854  005708                     l16380:
  4855  005708  502F               	movf	_ms_count3+1,w,c	;volatile
  4856  00570A  E10E               	bnz	l16386
  4857  00570C  0E65               	movlw	101
  4858  00570E  5C2E               	subwf	_ms_count3,w,c	;volatile
  4859  005710  B0D8               	btfsc	status,0,c
  4860  005712  D00A               	goto	l16386
  4861  005714  EC74  F039         	call	_PB1pressed	;wreg free
  4862  005718  0900               	iorlw	0
  4863  00571A  A4D8               	btfss	status,2,c
  4864  00571C  D005               	goto	l16386
  4865  00571E  EC60  F039         	call	_PB2pressed	;wreg free
  4866  005722  0900               	iorlw	0
  4867  005724  B4D8               	btfsc	status,2,c
  4868  005726  D7F0               	goto	l16380
  4869  005728                     l16386:
  4870  005728  0E00               	movlw	0
  4871  00572A  6E2F               	movwf	_ms_count3+1,c	;volatile
  4872  00572C  0E00               	movlw	0
  4873  00572E  6E2E               	movwf	_ms_count3,c	;volatile
  4874  005730  EC74  F039         	call	_PB1pressed	;wreg free
  4875  005734  0900               	iorlw	0
  4876  005736  A4D8               	btfss	status,2,c
  4877  005738  D0D6               	goto	l16470
  4878  00573A  EC60  F039         	call	_PB2pressed	;wreg free
  4879  00573E  0900               	iorlw	0
  4880  005740  A4D8               	btfss	status,2,c
  4881  005742  D0D1               	goto	l16470
  4882  005744  D00E               	goto	l16396
  4883  005746                     l2280:
  4884  005746  8C91               	bsf	3985,6,c	;volatile
  4885  005748  0E5F               	movlw	95
  4886  00574A  ECC4  F039         	call	_Delay10TCYx
  4887  00574E  0E5F               	movlw	95
  4888  005750  ECC4  F039         	call	_Delay10TCYx
  4889  005754  9C91               	bcf	3985,6,c	;volatile
  4890  005756  0E5F               	movlw	95
  4891  005758  ECC4  F039         	call	_Delay10TCYx
  4892  00575C  0E5F               	movlw	95
  4893  00575E  ECC4  F039         	call	_Delay10TCYx
  4894  005762                     l16396:
  4895  005762  502F               	movf	_ms_count3+1,w,c	;volatile
  4896  005764  E10E               	bnz	l16402
  4897  005766  0EC9               	movlw	201
  4898  005768  5C2E               	subwf	_ms_count3,w,c	;volatile
  4899  00576A  B0D8               	btfsc	status,0,c
  4900  00576C  D00A               	goto	l16402
  4901  00576E  EC74  F039         	call	_PB1pressed	;wreg free
  4902  005772  0900               	iorlw	0
  4903  005774  A4D8               	btfss	status,2,c
  4904  005776  D005               	goto	l16402
  4905  005778  EC60  F039         	call	_PB2pressed	;wreg free
  4906  00577C  0900               	iorlw	0
  4907  00577E  B4D8               	btfsc	status,2,c
  4908  005780  D7E2               	goto	l2280
  4909  005782                     l16402:
  4910  005782  0E00               	movlw	0
  4911  005784  6E2F               	movwf	_ms_count3+1,c	;volatile
  4912  005786  0E00               	movlw	0
  4913  005788  6E2E               	movwf	_ms_count3,c	;volatile
  4914  00578A                     l16404:
  4915  00578A  502F               	movf	_ms_count3+1,w,c	;volatile
  4916  00578C  E10E               	bnz	l16410
  4917  00578E  0E65               	movlw	101
  4918  005790  5C2E               	subwf	_ms_count3,w,c	;volatile
  4919  005792  B0D8               	btfsc	status,0,c
  4920  005794  D00A               	goto	l16410
  4921  005796  EC74  F039         	call	_PB1pressed	;wreg free
  4922  00579A  0900               	iorlw	0
  4923  00579C  A4D8               	btfss	status,2,c
  4924  00579E  D005               	goto	l16410
  4925  0057A0  EC60  F039         	call	_PB2pressed	;wreg free
  4926  0057A4  0900               	iorlw	0
  4927  0057A6  B4D8               	btfsc	status,2,c
  4928  0057A8  D7F0               	goto	l16404
  4929  0057AA                     l16410:
  4930  0057AA  0E00               	movlw	0
  4931  0057AC  6E2F               	movwf	_ms_count3+1,c	;volatile
  4932  0057AE  0E00               	movlw	0
  4933  0057B0  6E2E               	movwf	_ms_count3,c	;volatile
  4934  0057B2  EC74  F039         	call	_PB1pressed	;wreg free
  4935  0057B6  0900               	iorlw	0
  4936  0057B8  A4D8               	btfss	status,2,c
  4937  0057BA  D095               	goto	l16470
  4938  0057BC  EC60  F039         	call	_PB2pressed	;wreg free
  4939  0057C0  0900               	iorlw	0
  4940  0057C2  A4D8               	btfss	status,2,c
  4941  0057C4  D090               	goto	l16470
  4942  0057C6  D00E               	goto	l16420
  4943  0057C8                     l2293:
  4944  0057C8  8C91               	bsf	3985,6,c	;volatile
  4945  0057CA  0E6A               	movlw	106
  4946  0057CC  ECC4  F039         	call	_Delay10TCYx
  4947  0057D0  0E6A               	movlw	106
  4948  0057D2  ECC4  F039         	call	_Delay10TCYx
  4949  0057D6  9C91               	bcf	3985,6,c	;volatile
  4950  0057D8  0E6A               	movlw	106
  4951  0057DA  ECC4  F039         	call	_Delay10TCYx
  4952  0057DE  0E6A               	movlw	106
  4953  0057E0  ECC4  F039         	call	_Delay10TCYx
  4954  0057E4                     l16420:
  4955  0057E4  502F               	movf	_ms_count3+1,w,c	;volatile
  4956  0057E6  E10E               	bnz	l16426
  4957  0057E8  0EC9               	movlw	201
  4958  0057EA  5C2E               	subwf	_ms_count3,w,c	;volatile
  4959  0057EC  B0D8               	btfsc	status,0,c
  4960  0057EE  D00A               	goto	l16426
  4961  0057F0  EC74  F039         	call	_PB1pressed	;wreg free
  4962  0057F4  0900               	iorlw	0
  4963  0057F6  A4D8               	btfss	status,2,c
  4964  0057F8  D005               	goto	l16426
  4965  0057FA  EC60  F039         	call	_PB2pressed	;wreg free
  4966  0057FE  0900               	iorlw	0
  4967  005800  B4D8               	btfsc	status,2,c
  4968  005802  D7E2               	goto	l2293
  4969  005804                     l16426:
  4970  005804  0E00               	movlw	0
  4971  005806  6E2F               	movwf	_ms_count3+1,c	;volatile
  4972  005808  0E00               	movlw	0
  4973  00580A  6E2E               	movwf	_ms_count3,c	;volatile
  4974  00580C                     l16428:
  4975  00580C  502F               	movf	_ms_count3+1,w,c	;volatile
  4976  00580E  E10E               	bnz	l16434
  4977  005810  0E65               	movlw	101
  4978  005812  5C2E               	subwf	_ms_count3,w,c	;volatile
  4979  005814  B0D8               	btfsc	status,0,c
  4980  005816  D00A               	goto	l16434
  4981  005818  EC74  F039         	call	_PB1pressed	;wreg free
  4982  00581C  0900               	iorlw	0
  4983  00581E  A4D8               	btfss	status,2,c
  4984  005820  D005               	goto	l16434
  4985  005822  EC60  F039         	call	_PB2pressed	;wreg free
  4986  005826  0900               	iorlw	0
  4987  005828  B4D8               	btfsc	status,2,c
  4988  00582A  D7F0               	goto	l16428
  4989  00582C                     l16434:
  4990  00582C  0E00               	movlw	0
  4991  00582E  6E2F               	movwf	_ms_count3+1,c	;volatile
  4992  005830  0E00               	movlw	0
  4993  005832  6E2E               	movwf	_ms_count3,c	;volatile
  4994  005834  EC74  F039         	call	_PB1pressed	;wreg free
  4995  005838  0900               	iorlw	0
  4996  00583A  A4D8               	btfss	status,2,c
  4997  00583C  D054               	goto	l16470
  4998  00583E  EC60  F039         	call	_PB2pressed	;wreg free
  4999  005842  0900               	iorlw	0
  5000  005844  A4D8               	btfss	status,2,c
  5001  005846  D04F               	goto	l16470
  5002  005848  D00E               	goto	l16444
  5003  00584A                     l2306:
  5004  00584A  8C91               	bsf	3985,6,c	;volatile
  5005  00584C  0E6A               	movlw	106
  5006  00584E  ECC4  F039         	call	_Delay10TCYx
  5007  005852  0E6A               	movlw	106
  5008  005854  ECC4  F039         	call	_Delay10TCYx
  5009  005858  9C91               	bcf	3985,6,c	;volatile
  5010  00585A  0E6A               	movlw	106
  5011  00585C  ECC4  F039         	call	_Delay10TCYx
  5012  005860  0E6A               	movlw	106
  5013  005862  ECC4  F039         	call	_Delay10TCYx
  5014  005866                     l16444:
  5015  005866  0E91               	movlw	145
  5016  005868  5C2E               	subwf	_ms_count3,w,c	;volatile
  5017  00586A  0E01               	movlw	1
  5018  00586C  582F               	subwfb	_ms_count3+1,w,c	;volatile
  5019  00586E  B0D8               	btfsc	status,0,c
  5020  005870  D00A               	goto	l16450
  5021  005872  EC74  F039         	call	_PB1pressed	;wreg free
  5022  005876  0900               	iorlw	0
  5023  005878  A4D8               	btfss	status,2,c
  5024  00587A  D005               	goto	l16450
  5025  00587C  EC60  F039         	call	_PB2pressed	;wreg free
  5026  005880  0900               	iorlw	0
  5027  005882  B4D8               	btfsc	status,2,c
  5028  005884  D7E2               	goto	l2306
  5029  005886                     l16450:
  5030  005886  0E00               	movlw	0
  5031  005888  6E2F               	movwf	_ms_count3+1,c	;volatile
  5032  00588A  0E00               	movlw	0
  5033  00588C  6E2E               	movwf	_ms_count3,c	;volatile
  5034  00588E                     l16452:
  5035  00588E  502F               	movf	_ms_count3+1,w,c	;volatile
  5036  005890  E10E               	bnz	l16458
  5037  005892  0E65               	movlw	101
  5038  005894  5C2E               	subwf	_ms_count3,w,c	;volatile
  5039  005896  B0D8               	btfsc	status,0,c
  5040  005898  D00A               	goto	l16458
  5041  00589A  EC74  F039         	call	_PB1pressed	;wreg free
  5042  00589E  0900               	iorlw	0
  5043  0058A0  A4D8               	btfss	status,2,c
  5044  0058A2  D005               	goto	l16458
  5045  0058A4  EC60  F039         	call	_PB2pressed	;wreg free
  5046  0058A8  0900               	iorlw	0
  5047  0058AA  B4D8               	btfsc	status,2,c
  5048  0058AC  D7F0               	goto	l16452
  5049  0058AE                     l16458:
  5050  0058AE  0E00               	movlw	0
  5051  0058B0  6E2F               	movwf	_ms_count3+1,c	;volatile
  5052  0058B2  0E00               	movlw	0
  5053  0058B4  6E2E               	movwf	_ms_count3,c	;volatile
  5054  0058B6  EC74  F039         	call	_PB1pressed	;wreg free
  5055  0058BA  0900               	iorlw	0
  5056  0058BC  A4D8               	btfss	status,2,c
  5057  0058BE  D013               	goto	l16470
  5058  0058C0  EC60  F039         	call	_PB2pressed	;wreg free
  5059  0058C4  0900               	iorlw	0
  5060  0058C6  A4D8               	btfss	status,2,c
  5061  0058C8  D00E               	goto	l16470
  5062                           
  5063                           ;mini-project-clock.c: 1369: Delay10KTCYx(100);
  5064  0058CA  0E64               	movlw	100
  5065  0058CC  EC88  F039         	call	_Delay10KTCYx
  5066  0058D0                     l16466:
  5067  0058D0  EC60  F039         	call	_PB2pressed	;wreg free
  5068  0058D4  0900               	iorlw	0
  5069  0058D6  A4D8               	btfss	status,2,c
  5070  0058D8  D006               	goto	l16470
  5071  0058DA  EC74  F039         	call	_PB1pressed	;wreg free
  5072  0058DE  0900               	iorlw	0
  5073  0058E0  B4D8               	btfsc	status,2,c
  5074  0058E2  EF47  F01C         	goto	l14974
  5075  0058E6                     l16470:
  5076                           
  5077                           ;mini-project-clock.c: 1370: }
  5078                           ;mini-project-clock.c: 1371: Alarm2On = 0;
  5079  0058E6  0E00               	movlw	0
  5080  0058E8  6E31               	movwf	_Alarm2On,c
  5081  0058EA  0012               	return		;funcret
  5082  0058EC                     __end_of_SoundAlarm2:
  5083                           	opt stack 0
  5084                           tblptru	equ	0xFF8
  5085                           tblptrh	equ	0xFF7
  5086                           tblptrl	equ	0xFF6
  5087                           tablat	equ	0xFF5
  5088                           intcon	equ	0xFF2
  5089                           intcon2	equ	0xFF1
  5090                           postinc0	equ	0xFEE
  5091                           wreg	equ	0xFE8
  5092                           status	equ	0xFD8
  5093                           
  5094 ;; *************** function _SoundAlarm1 *****************
  5095 ;; Defined at:
  5096 ;;		line 1047 in file "mini-project-clock.c"
  5097 ;; Parameters:    Size  Location     Type
  5098 ;;		None
  5099 ;; Auto vars:     Size  Location     Type
  5100 ;;		None
  5101 ;; Return value:  Size  Location     Type
  5102 ;;                  1    wreg      void 
  5103 ;; Registers used:
  5104 ;;		wreg, status,2, status,0, tblptrl, tblptrh, tblptru, cstack
  5105 ;; Tracked objects:
  5106 ;;		On entry : 0/0
  5107 ;;		On exit  : 0/0
  5108 ;;		Unchanged: 0/0
  5109 ;; Data sizes:     COMRAM   BANK0   BANK1   BANK2   BANK3   BANK4   BANK5   BANK6   BANK7   BANK8   BANK9  BANK10  BANK1
      +1  BANK12  BANK13  BANK14  BANK15
  5110 ;;      Params:         0       0       0       0       0       0       0       0       0       0       0       0       
      +0       0       0       0       0
  5111 ;;      Locals:         0       0       0       0       0       0       0       0       0       0       0       0       
      +0       0       0       0       0
  5112 ;;      Temps:          0       0       0       0       0       0       0       0       0       0       0       0       
      +0       0       0       0       0
  5113 ;;      Totals:         0       0       0       0       0       0       0       0       0       0       0       0       
      +0       0       0       0       0
  5114 ;;Total ram usage:        0 bytes
  5115 ;; Hardware stack levels used:    1
  5116 ;; Hardware stack levels required when called:    5
  5117 ;; This function calls:
  5118 ;;		_Delay10KTCYx
  5119 ;;		_Delay10TCYx
  5120 ;;		_PB1pressed
  5121 ;;		_PB2pressed
  5122 ;; This function is called by:
  5123 ;;		_main
  5124 ;; This function uses a non-reentrant model
  5125 ;;
  5126                           
  5127                           	psect	text7
  5128  001040                     __ptext7:
  5129                           	opt stack 0
  5130  001040                     _SoundAlarm1:
  5131                           	opt stack 25
  5132                           
  5133                           ;mini-project-clock.c: 1048: disp_U2 = DispChars.A;
  5134                           
  5135                           ;incstack = 0
  5136  001040  0E01               	movlw	low _DispChars
  5137  001042  6EF6               	movwf	tblptrl,c
  5138  001044                     	if	1	;There is more than 1 active tblptr byte
  5139  001044  0E10               	movlw	high _DispChars
  5140  001046  6EF7               	movwf	tblptrh,c
  5141  001048                     	endif
  5142  001048                     	if	1	;There are 3 active tblptr bytes
  5143  001048  0E00               	movlw	low (_DispChars shr (0+16))
  5144  00104A  6EF8               	movwf	tblptru,c
  5145  00104C                     	endif
  5146  00104C  0008               	tblrd		*
  5147  00104E  CFF5 F034          	movff	tablat,_disp_U2	;volatile
  5148                           
  5149                           ;mini-project-clock.c: 1049: disp_U1 = DispNums[1];
  5150  001052  0E35               	movlw	low (_DispNums+1)
  5151  001054  6EF6               	movwf	tblptrl,c
  5152  001056  0E10               	movlw	high (_DispNums+1)
  5153  001058  6EF7               	movwf	tblptrh,c
  5154  00105A                     	if	0	;tblptru may be non-zero
  5155  00105A                     	endif
  5156  00105A                     	if	1	;Program memory is > 0xFFFF, there are 3 active tblptr bytes
  5157  00105A  0E00               	movlw	low (__mediumconst shr (0+16))
  5158  00105C  6EF8               	movwf	tblptru,c
  5159  00105E                     	endif
  5160  00105E  0008               	tblrd		*
  5161  001060  CFF5 F033          	movff	tablat,_disp_U1	;volatile
  5162                           
  5163                           ;mini-project-clock.c: 1050: disp_LEDS = 0xFF;
  5164  001064  684C               	setf	_disp_LEDS,c	;volatile
  5165                           
  5166                           ;mini-project-clock.c: 1051: while (!PB2pressed() && !PB1pressed()) {
  5167  001066  EF24  F01C         	goto	l14962
  5168  00106A                     l13122:
  5169                           
  5170                           ;mini-project-clock.c: 1052: ms_count3 = 0;
  5171  00106A  0E00               	movlw	0
  5172  00106C  6E2F               	movwf	_ms_count3+1,c	;volatile
  5173  00106E  0E00               	movlw	0
  5174  001070  6E2E               	movwf	_ms_count3,c	;volatile
  5175                           
  5176                           ;mini-project-clock.c: 1086: while(ms_count3 <= ((800 / 2) / 2) && !PB1pressed() && !PB2
      +                          pressed()) { LATJbits.LATJ6 = 1; Delay10TCYx(119); Delay10TCYx(119); LATJbits.LATJ6 = 0;
      +                           Delay10TCYx(119); Delay10TCYx(119); } ms_count3 = 0; while(ms_count3 <= (((800 / 2) / 2
      +                          ) / 2) && !PB1p
  5177  001072  D00E               	goto	l13128
  5178  001074                     l461:
  5179  001074  8C91               	bsf	3985,6,c	;volatile
  5180  001076  0E77               	movlw	119
  5181  001078  ECC4  F039         	call	_Delay10TCYx
  5182  00107C  0E77               	movlw	119
  5183  00107E  ECC4  F039         	call	_Delay10TCYx
  5184  001082  9C91               	bcf	3985,6,c	;volatile
  5185  001084  0E77               	movlw	119
  5186  001086  ECC4  F039         	call	_Delay10TCYx
  5187  00108A  0E77               	movlw	119
  5188  00108C  ECC4  F039         	call	_Delay10TCYx
  5189  001090                     l13128:
  5190  001090  502F               	movf	_ms_count3+1,w,c	;volatile
  5191  001092  E10E               	bnz	l13134
  5192  001094  0EC9               	movlw	201
  5193  001096  5C2E               	subwf	_ms_count3,w,c	;volatile
  5194  001098  B0D8               	btfsc	status,0,c
  5195  00109A  D00A               	goto	l13134
  5196  00109C  EC74  F039         	call	_PB1pressed	;wreg free
  5197  0010A0  0900               	iorlw	0
  5198  0010A2  A4D8               	btfss	status,2,c
  5199  0010A4  D005               	goto	l13134
  5200  0010A6  EC60  F039         	call	_PB2pressed	;wreg free
  5201  0010AA  0900               	iorlw	0
  5202  0010AC  B4D8               	btfsc	status,2,c
  5203  0010AE  D7E2               	goto	l461
  5204  0010B0                     l13134:
  5205  0010B0  0E00               	movlw	0
  5206  0010B2  6E2F               	movwf	_ms_count3+1,c	;volatile
  5207  0010B4  0E00               	movlw	0
  5208  0010B6  6E2E               	movwf	_ms_count3,c	;volatile
  5209  0010B8                     l13136:
  5210  0010B8  502F               	movf	_ms_count3+1,w,c	;volatile
  5211  0010BA  E10E               	bnz	l13142
  5212  0010BC  0E65               	movlw	101
  5213  0010BE  5C2E               	subwf	_ms_count3,w,c	;volatile
  5214  0010C0  B0D8               	btfsc	status,0,c
  5215  0010C2  D00A               	goto	l13142
  5216  0010C4  EC74  F039         	call	_PB1pressed	;wreg free
  5217  0010C8  0900               	iorlw	0
  5218  0010CA  A4D8               	btfss	status,2,c
  5219  0010CC  D005               	goto	l13142
  5220  0010CE  EC60  F039         	call	_PB2pressed	;wreg free
  5221  0010D2  0900               	iorlw	0
  5222  0010D4  B4D8               	btfsc	status,2,c
  5223  0010D6  D7F0               	goto	l13136
  5224  0010D8                     l13142:
  5225  0010D8  0E00               	movlw	0
  5226  0010DA  6E2F               	movwf	_ms_count3+1,c	;volatile
  5227  0010DC  0E00               	movlw	0
  5228  0010DE  6E2E               	movwf	_ms_count3,c	;volatile
  5229  0010E0  EC74  F039         	call	_PB1pressed	;wreg free
  5230  0010E4  0900               	iorlw	0
  5231  0010E6  A4D8               	btfss	status,2,c
  5232  0010E8  EF2F  F01C         	goto	l14966
  5233  0010EC  EC60  F039         	call	_PB2pressed	;wreg free
  5234  0010F0  0900               	iorlw	0
  5235  0010F2  A4D8               	btfss	status,2,c
  5236  0010F4  EF2F  F01C         	goto	l14966
  5237  0010F8  D00E               	goto	l13152
  5238  0010FA                     l475:
  5239  0010FA  8C91               	bsf	3985,6,c	;volatile
  5240  0010FC  0E47               	movlw	71
  5241  0010FE  ECC4  F039         	call	_Delay10TCYx
  5242  001102  0E47               	movlw	71
  5243  001104  ECC4  F039         	call	_Delay10TCYx
  5244  001108  9C91               	bcf	3985,6,c	;volatile
  5245  00110A  0E47               	movlw	71
  5246  00110C  ECC4  F039         	call	_Delay10TCYx
  5247  001110  0E47               	movlw	71
  5248  001112  ECC4  F039         	call	_Delay10TCYx
  5249  001116                     l13152:
  5250  001116  502F               	movf	_ms_count3+1,w,c	;volatile
  5251  001118  E10E               	bnz	l13158
  5252  00111A  0EC9               	movlw	201
  5253  00111C  5C2E               	subwf	_ms_count3,w,c	;volatile
  5254  00111E  B0D8               	btfsc	status,0,c
  5255  001120  D00A               	goto	l13158
  5256  001122  EC74  F039         	call	_PB1pressed	;wreg free
  5257  001126  0900               	iorlw	0
  5258  001128  A4D8               	btfss	status,2,c
  5259  00112A  D005               	goto	l13158
  5260  00112C  EC60  F039         	call	_PB2pressed	;wreg free
  5261  001130  0900               	iorlw	0
  5262  001132  B4D8               	btfsc	status,2,c
  5263  001134  D7E2               	goto	l475
  5264  001136                     l13158:
  5265  001136  0E00               	movlw	0
  5266  001138  6E2F               	movwf	_ms_count3+1,c	;volatile
  5267  00113A  0E00               	movlw	0
  5268  00113C  6E2E               	movwf	_ms_count3,c	;volatile
  5269  00113E                     l13160:
  5270  00113E  502F               	movf	_ms_count3+1,w,c	;volatile
  5271  001140  E10E               	bnz	l13166
  5272  001142  0E65               	movlw	101
  5273  001144  5C2E               	subwf	_ms_count3,w,c	;volatile
  5274  001146  B0D8               	btfsc	status,0,c
  5275  001148  D00A               	goto	l13166
  5276  00114A  EC74  F039         	call	_PB1pressed	;wreg free
  5277  00114E  0900               	iorlw	0
  5278  001150  A4D8               	btfss	status,2,c
  5279  001152  D005               	goto	l13166
  5280  001154  EC60  F039         	call	_PB2pressed	;wreg free
  5281  001158  0900               	iorlw	0
  5282  00115A  B4D8               	btfsc	status,2,c
  5283  00115C  D7F0               	goto	l13160
  5284  00115E                     l13166:
  5285  00115E  0E00               	movlw	0
  5286  001160  6E2F               	movwf	_ms_count3+1,c	;volatile
  5287  001162  0E00               	movlw	0
  5288  001164  6E2E               	movwf	_ms_count3,c	;volatile
  5289  001166  EC74  F039         	call	_PB1pressed	;wreg free
  5290  00116A  0900               	iorlw	0
  5291  00116C  A4D8               	btfss	status,2,c
  5292  00116E  EF2F  F01C         	goto	l14966
  5293  001172  EC60  F039         	call	_PB2pressed	;wreg free
  5294  001176  0900               	iorlw	0
  5295  001178  A4D8               	btfss	status,2,c
  5296  00117A  EF2F  F01C         	goto	l14966
  5297  00117E  D00E               	goto	l13176
  5298  001180                     l488:
  5299  001180  8C91               	bsf	3985,6,c	;volatile
  5300  001182  0E50               	movlw	80
  5301  001184  ECC4  F039         	call	_Delay10TCYx
  5302  001188  0E50               	movlw	80
  5303  00118A  ECC4  F039         	call	_Delay10TCYx
  5304  00118E  9C91               	bcf	3985,6,c	;volatile
  5305  001190  0E50               	movlw	80
  5306  001192  ECC4  F039         	call	_Delay10TCYx
  5307  001196  0E50               	movlw	80
  5308  001198  ECC4  F039         	call	_Delay10TCYx
  5309  00119C                     l13176:
  5310  00119C  502F               	movf	_ms_count3+1,w,c	;volatile
  5311  00119E  E10E               	bnz	l13182
  5312  0011A0  0EC9               	movlw	201
  5313  0011A2  5C2E               	subwf	_ms_count3,w,c	;volatile
  5314  0011A4  B0D8               	btfsc	status,0,c
  5315  0011A6  D00A               	goto	l13182
  5316  0011A8  EC74  F039         	call	_PB1pressed	;wreg free
  5317  0011AC  0900               	iorlw	0
  5318  0011AE  A4D8               	btfss	status,2,c
  5319  0011B0  D005               	goto	l13182
  5320  0011B2  EC60  F039         	call	_PB2pressed	;wreg free
  5321  0011B6  0900               	iorlw	0
  5322  0011B8  B4D8               	btfsc	status,2,c
  5323  0011BA  D7E2               	goto	l488
  5324  0011BC                     l13182:
  5325  0011BC  0E00               	movlw	0
  5326  0011BE  6E2F               	movwf	_ms_count3+1,c	;volatile
  5327  0011C0  0E00               	movlw	0
  5328  0011C2  6E2E               	movwf	_ms_count3,c	;volatile
  5329  0011C4                     l13184:
  5330  0011C4  502F               	movf	_ms_count3+1,w,c	;volatile
  5331  0011C6  E10E               	bnz	l13190
  5332  0011C8  0E65               	movlw	101
  5333  0011CA  5C2E               	subwf	_ms_count3,w,c	;volatile
  5334  0011CC  B0D8               	btfsc	status,0,c
  5335  0011CE  D00A               	goto	l13190
  5336  0011D0  EC74  F039         	call	_PB1pressed	;wreg free
  5337  0011D4  0900               	iorlw	0
  5338  0011D6  A4D8               	btfss	status,2,c
  5339  0011D8  D005               	goto	l13190
  5340  0011DA  EC60  F039         	call	_PB2pressed	;wreg free
  5341  0011DE  0900               	iorlw	0
  5342  0011E0  B4D8               	btfsc	status,2,c
  5343  0011E2  D7F0               	goto	l13184
  5344  0011E4                     l13190:
  5345  0011E4  0E00               	movlw	0
  5346  0011E6  6E2F               	movwf	_ms_count3+1,c	;volatile
  5347  0011E8  0E00               	movlw	0
  5348  0011EA  6E2E               	movwf	_ms_count3,c	;volatile
  5349  0011EC  EC74  F039         	call	_PB1pressed	;wreg free
  5350  0011F0  0900               	iorlw	0
  5351  0011F2  A4D8               	btfss	status,2,c
  5352  0011F4  EF2F  F01C         	goto	l14966
  5353  0011F8  EC60  F039         	call	_PB2pressed	;wreg free
  5354  0011FC  0900               	iorlw	0
  5355  0011FE  A4D8               	btfss	status,2,c
  5356  001200  EF2F  F01C         	goto	l14966
  5357  001204  D00E               	goto	l13200
  5358  001206                     l501:
  5359  001206  8C91               	bsf	3985,6,c	;volatile
  5360  001208  0E59               	movlw	89
  5361  00120A  ECC4  F039         	call	_Delay10TCYx
  5362  00120E  0E59               	movlw	89
  5363  001210  ECC4  F039         	call	_Delay10TCYx
  5364  001214  9C91               	bcf	3985,6,c	;volatile
  5365  001216  0E59               	movlw	89
  5366  001218  ECC4  F039         	call	_Delay10TCYx
  5367  00121C  0E59               	movlw	89
  5368  00121E  ECC4  F039         	call	_Delay10TCYx
  5369  001222                     l13200:
  5370  001222  502F               	movf	_ms_count3+1,w,c	;volatile
  5371  001224  E10E               	bnz	l13206
  5372  001226  0EC9               	movlw	201
  5373  001228  5C2E               	subwf	_ms_count3,w,c	;volatile
  5374  00122A  B0D8               	btfsc	status,0,c
  5375  00122C  D00A               	goto	l13206
  5376  00122E  EC74  F039         	call	_PB1pressed	;wreg free
  5377  001232  0900               	iorlw	0
  5378  001234  A4D8               	btfss	status,2,c
  5379  001236  D005               	goto	l13206
  5380  001238  EC60  F039         	call	_PB2pressed	;wreg free
  5381  00123C  0900               	iorlw	0
  5382  00123E  B4D8               	btfsc	status,2,c
  5383  001240  D7E2               	goto	l501
  5384  001242                     l13206:
  5385  001242  0E00               	movlw	0
  5386  001244  6E2F               	movwf	_ms_count3+1,c	;volatile
  5387  001246  0E00               	movlw	0
  5388  001248  6E2E               	movwf	_ms_count3,c	;volatile
  5389  00124A                     l13208:
  5390  00124A  502F               	movf	_ms_count3+1,w,c	;volatile
  5391  00124C  E10E               	bnz	l13214
  5392  00124E  0E65               	movlw	101
  5393  001250  5C2E               	subwf	_ms_count3,w,c	;volatile
  5394  001252  B0D8               	btfsc	status,0,c
  5395  001254  D00A               	goto	l13214
  5396  001256  EC74  F039         	call	_PB1pressed	;wreg free
  5397  00125A  0900               	iorlw	0
  5398  00125C  A4D8               	btfss	status,2,c
  5399  00125E  D005               	goto	l13214
  5400  001260  EC60  F039         	call	_PB2pressed	;wreg free
  5401  001264  0900               	iorlw	0
  5402  001266  B4D8               	btfsc	status,2,c
  5403  001268  D7F0               	goto	l13208
  5404  00126A                     l13214:
  5405  00126A  0E00               	movlw	0
  5406  00126C  6E2F               	movwf	_ms_count3+1,c	;volatile
  5407  00126E  0E00               	movlw	0
  5408  001270  6E2E               	movwf	_ms_count3,c	;volatile
  5409  001272  EC74  F039         	call	_PB1pressed	;wreg free
  5410  001276  0900               	iorlw	0
  5411  001278  A4D8               	btfss	status,2,c
  5412  00127A  EF2F  F01C         	goto	l14966
  5413  00127E  EC60  F039         	call	_PB2pressed	;wreg free
  5414  001282  0900               	iorlw	0
  5415  001284  A4D8               	btfss	status,2,c
  5416  001286  EF2F  F01C         	goto	l14966
  5417  00128A  D00E               	goto	l13224
  5418  00128C                     l514:
  5419  00128C  8C91               	bsf	3985,6,c	;volatile
  5420  00128E  0E77               	movlw	119
  5421  001290  ECC4  F039         	call	_Delay10TCYx
  5422  001294  0E77               	movlw	119
  5423  001296  ECC4  F039         	call	_Delay10TCYx
  5424  00129A  9C91               	bcf	3985,6,c	;volatile
  5425  00129C  0E77               	movlw	119
  5426  00129E  ECC4  F039         	call	_Delay10TCYx
  5427  0012A2  0E77               	movlw	119
  5428  0012A4  ECC4  F039         	call	_Delay10TCYx
  5429  0012A8                     l13224:
  5430  0012A8  0E91               	movlw	145
  5431  0012AA  5C2E               	subwf	_ms_count3,w,c	;volatile
  5432  0012AC  0E01               	movlw	1
  5433  0012AE  582F               	subwfb	_ms_count3+1,w,c	;volatile
  5434  0012B0  B0D8               	btfsc	status,0,c
  5435  0012B2  D00A               	goto	l13230
  5436  0012B4  EC74  F039         	call	_PB1pressed	;wreg free
  5437  0012B8  0900               	iorlw	0
  5438  0012BA  A4D8               	btfss	status,2,c
  5439  0012BC  D005               	goto	l13230
  5440  0012BE  EC60  F039         	call	_PB2pressed	;wreg free
  5441  0012C2  0900               	iorlw	0
  5442  0012C4  B4D8               	btfsc	status,2,c
  5443  0012C6  D7E2               	goto	l514
  5444  0012C8                     l13230:
  5445  0012C8  0E00               	movlw	0
  5446  0012CA  6E2F               	movwf	_ms_count3+1,c	;volatile
  5447  0012CC  0E00               	movlw	0
  5448  0012CE  6E2E               	movwf	_ms_count3,c	;volatile
  5449  0012D0                     l13232:
  5450  0012D0  502F               	movf	_ms_count3+1,w,c	;volatile
  5451  0012D2  E10E               	bnz	l13238
  5452  0012D4  0EC9               	movlw	201
  5453  0012D6  5C2E               	subwf	_ms_count3,w,c	;volatile
  5454  0012D8  B0D8               	btfsc	status,0,c
  5455  0012DA  D00A               	goto	l13238
  5456  0012DC  EC74  F039         	call	_PB1pressed	;wreg free
  5457  0012E0  0900               	iorlw	0
  5458  0012E2  A4D8               	btfss	status,2,c
  5459  0012E4  D005               	goto	l13238
  5460  0012E6  EC60  F039         	call	_PB2pressed	;wreg free
  5461  0012EA  0900               	iorlw	0
  5462  0012EC  B4D8               	btfsc	status,2,c
  5463  0012EE  D7F0               	goto	l13232
  5464  0012F0                     l13238:
  5465  0012F0  0E00               	movlw	0
  5466  0012F2  6E2F               	movwf	_ms_count3+1,c	;volatile
  5467  0012F4  0E00               	movlw	0
  5468  0012F6  6E2E               	movwf	_ms_count3,c	;volatile
  5469  0012F8  EC74  F039         	call	_PB1pressed	;wreg free
  5470  0012FC  0900               	iorlw	0
  5471  0012FE  A4D8               	btfss	status,2,c
  5472  001300  EF2F  F01C         	goto	l14966
  5473  001304  EC60  F039         	call	_PB2pressed	;wreg free
  5474  001308  0900               	iorlw	0
  5475  00130A  A4D8               	btfss	status,2,c
  5476  00130C  EF2F  F01C         	goto	l14966
  5477  001310  D00E               	goto	l13248
  5478  001312                     l527:
  5479  001312  8C91               	bsf	3985,6,c	;volatile
  5480  001314  0E77               	movlw	119
  5481  001316  ECC4  F039         	call	_Delay10TCYx
  5482  00131A  0E77               	movlw	119
  5483  00131C  ECC4  F039         	call	_Delay10TCYx
  5484  001320  9C91               	bcf	3985,6,c	;volatile
  5485  001322  0E77               	movlw	119
  5486  001324  ECC4  F039         	call	_Delay10TCYx
  5487  001328  0E77               	movlw	119
  5488  00132A  ECC4  F039         	call	_Delay10TCYx
  5489  00132E                     l13248:
  5490  00132E  502F               	movf	_ms_count3+1,w,c	;volatile
  5491  001330  E10E               	bnz	l13254
  5492  001332  0E65               	movlw	101
  5493  001334  5C2E               	subwf	_ms_count3,w,c	;volatile
  5494  001336  B0D8               	btfsc	status,0,c
  5495  001338  D00A               	goto	l13254
  5496  00133A  EC74  F039         	call	_PB1pressed	;wreg free
  5497  00133E  0900               	iorlw	0
  5498  001340  A4D8               	btfss	status,2,c
  5499  001342  D005               	goto	l13254
  5500  001344  EC60  F039         	call	_PB2pressed	;wreg free
  5501  001348  0900               	iorlw	0
  5502  00134A  B4D8               	btfsc	status,2,c
  5503  00134C  D7E2               	goto	l527
  5504  00134E                     l13254:
  5505  00134E  0E00               	movlw	0
  5506  001350  6E2F               	movwf	_ms_count3+1,c	;volatile
  5507  001352  0E00               	movlw	0
  5508  001354  6E2E               	movwf	_ms_count3,c	;volatile
  5509  001356                     l13256:
  5510  001356  502F               	movf	_ms_count3+1,w,c	;volatile
  5511  001358  E10E               	bnz	l13262
  5512  00135A  0E33               	movlw	51
  5513  00135C  5C2E               	subwf	_ms_count3,w,c	;volatile
  5514  00135E  B0D8               	btfsc	status,0,c
  5515  001360  D00A               	goto	l13262
  5516  001362  EC74  F039         	call	_PB1pressed	;wreg free
  5517  001366  0900               	iorlw	0
  5518  001368  A4D8               	btfss	status,2,c
  5519  00136A  D005               	goto	l13262
  5520  00136C  EC60  F039         	call	_PB2pressed	;wreg free
  5521  001370  0900               	iorlw	0
  5522  001372  B4D8               	btfsc	status,2,c
  5523  001374  D7F0               	goto	l13256
  5524  001376                     l13262:
  5525  001376  0E00               	movlw	0
  5526  001378  6E2F               	movwf	_ms_count3+1,c	;volatile
  5527  00137A  0E00               	movlw	0
  5528  00137C  6E2E               	movwf	_ms_count3,c	;volatile
  5529  00137E  EC74  F039         	call	_PB1pressed	;wreg free
  5530  001382  0900               	iorlw	0
  5531  001384  A4D8               	btfss	status,2,c
  5532  001386  EF2F  F01C         	goto	l14966
  5533  00138A  EC60  F039         	call	_PB2pressed	;wreg free
  5534  00138E  0900               	iorlw	0
  5535  001390  A4D8               	btfss	status,2,c
  5536  001392  EF2F  F01C         	goto	l14966
  5537  001396  D00E               	goto	l13272
  5538  001398                     l540:
  5539  001398  8C91               	bsf	3985,6,c	;volatile
  5540  00139A  0E77               	movlw	119
  5541  00139C  ECC4  F039         	call	_Delay10TCYx
  5542  0013A0  0E77               	movlw	119
  5543  0013A2  ECC4  F039         	call	_Delay10TCYx
  5544  0013A6  9C91               	bcf	3985,6,c	;volatile
  5545  0013A8  0E77               	movlw	119
  5546  0013AA  ECC4  F039         	call	_Delay10TCYx
  5547  0013AE  0E77               	movlw	119
  5548  0013B0  ECC4  F039         	call	_Delay10TCYx
  5549  0013B4                     l13272:
  5550  0013B4  502F               	movf	_ms_count3+1,w,c	;volatile
  5551  0013B6  E10E               	bnz	l13278
  5552  0013B8  0E65               	movlw	101
  5553  0013BA  5C2E               	subwf	_ms_count3,w,c	;volatile
  5554  0013BC  B0D8               	btfsc	status,0,c
  5555  0013BE  D00A               	goto	l13278
  5556  0013C0  EC74  F039         	call	_PB1pressed	;wreg free
  5557  0013C4  0900               	iorlw	0
  5558  0013C6  A4D8               	btfss	status,2,c
  5559  0013C8  D005               	goto	l13278
  5560  0013CA  EC60  F039         	call	_PB2pressed	;wreg free
  5561  0013CE  0900               	iorlw	0
  5562  0013D0  B4D8               	btfsc	status,2,c
  5563  0013D2  D7E2               	goto	l540
  5564  0013D4                     l13278:
  5565  0013D4  0E00               	movlw	0
  5566  0013D6  6E2F               	movwf	_ms_count3+1,c	;volatile
  5567  0013D8  0E00               	movlw	0
  5568  0013DA  6E2E               	movwf	_ms_count3,c	;volatile
  5569  0013DC                     l13280:
  5570  0013DC  502F               	movf	_ms_count3+1,w,c	;volatile
  5571  0013DE  E10E               	bnz	l13286
  5572  0013E0  0E65               	movlw	101
  5573  0013E2  5C2E               	subwf	_ms_count3,w,c	;volatile
  5574  0013E4  B0D8               	btfsc	status,0,c
  5575  0013E6  D00A               	goto	l13286
  5576  0013E8  EC74  F039         	call	_PB1pressed	;wreg free
  5577  0013EC  0900               	iorlw	0
  5578  0013EE  A4D8               	btfss	status,2,c
  5579  0013F0  D005               	goto	l13286
  5580  0013F2  EC60  F039         	call	_PB2pressed	;wreg free
  5581  0013F6  0900               	iorlw	0
  5582  0013F8  B4D8               	btfsc	status,2,c
  5583  0013FA  D7F0               	goto	l13280
  5584  0013FC                     l13286:
  5585  0013FC  0E00               	movlw	0
  5586  0013FE  6E2F               	movwf	_ms_count3+1,c	;volatile
  5587  001400  0E00               	movlw	0
  5588  001402  6E2E               	movwf	_ms_count3,c	;volatile
  5589  001404  EC74  F039         	call	_PB1pressed	;wreg free
  5590  001408  0900               	iorlw	0
  5591  00140A  A4D8               	btfss	status,2,c
  5592  00140C  EF2F  F01C         	goto	l14966
  5593  001410  EC60  F039         	call	_PB2pressed	;wreg free
  5594  001414  0900               	iorlw	0
  5595  001416  A4D8               	btfss	status,2,c
  5596  001418  EF2F  F01C         	goto	l14966
  5597  00141C  D00E               	goto	l13296
  5598  00141E                     l553:
  5599  00141E  8C91               	bsf	3985,6,c	;volatile
  5600  001420  0E77               	movlw	119
  5601  001422  ECC4  F039         	call	_Delay10TCYx
  5602  001426  0E77               	movlw	119
  5603  001428  ECC4  F039         	call	_Delay10TCYx
  5604  00142C  9C91               	bcf	3985,6,c	;volatile
  5605  00142E  0E77               	movlw	119
  5606  001430  ECC4  F039         	call	_Delay10TCYx
  5607  001434  0E77               	movlw	119
  5608  001436  ECC4  F039         	call	_Delay10TCYx
  5609  00143A                     l13296:
  5610  00143A  502F               	movf	_ms_count3+1,w,c	;volatile
  5611  00143C  E10E               	bnz	l13302
  5612  00143E  0EC9               	movlw	201
  5613  001440  5C2E               	subwf	_ms_count3,w,c	;volatile
  5614  001442  B0D8               	btfsc	status,0,c
  5615  001444  D00A               	goto	l13302
  5616  001446  EC74  F039         	call	_PB1pressed	;wreg free
  5617  00144A  0900               	iorlw	0
  5618  00144C  A4D8               	btfss	status,2,c
  5619  00144E  D005               	goto	l13302
  5620  001450  EC60  F039         	call	_PB2pressed	;wreg free
  5621  001454  0900               	iorlw	0
  5622  001456  B4D8               	btfsc	status,2,c
  5623  001458  D7E2               	goto	l553
  5624  00145A                     l13302:
  5625  00145A  0E00               	movlw	0
  5626  00145C  6E2F               	movwf	_ms_count3+1,c	;volatile
  5627  00145E  0E00               	movlw	0
  5628  001460  6E2E               	movwf	_ms_count3,c	;volatile
  5629  001462                     l13304:
  5630  001462  502F               	movf	_ms_count3+1,w,c	;volatile
  5631  001464  E10E               	bnz	l13310
  5632  001466  0E65               	movlw	101
  5633  001468  5C2E               	subwf	_ms_count3,w,c	;volatile
  5634  00146A  B0D8               	btfsc	status,0,c
  5635  00146C  D00A               	goto	l13310
  5636  00146E  EC74  F039         	call	_PB1pressed	;wreg free
  5637  001472  0900               	iorlw	0
  5638  001474  A4D8               	btfss	status,2,c
  5639  001476  D005               	goto	l13310
  5640  001478  EC60  F039         	call	_PB2pressed	;wreg free
  5641  00147C  0900               	iorlw	0
  5642  00147E  B4D8               	btfsc	status,2,c
  5643  001480  D7F0               	goto	l13304
  5644  001482                     l13310:
  5645  001482  0E00               	movlw	0
  5646  001484  6E2F               	movwf	_ms_count3+1,c	;volatile
  5647  001486  0E00               	movlw	0
  5648  001488  6E2E               	movwf	_ms_count3,c	;volatile
  5649  00148A  EC74  F039         	call	_PB1pressed	;wreg free
  5650  00148E  0900               	iorlw	0
  5651  001490  A4D8               	btfss	status,2,c
  5652  001492  EF2F  F01C         	goto	l14966
  5653  001496  EC60  F039         	call	_PB2pressed	;wreg free
  5654  00149A  0900               	iorlw	0
  5655  00149C  A4D8               	btfss	status,2,c
  5656  00149E  EF2F  F01C         	goto	l14966
  5657  0014A2  D00E               	goto	l13320
  5658  0014A4                     l566:
  5659  0014A4  8C91               	bsf	3985,6,c	;volatile
  5660  0014A6  0E47               	movlw	71
  5661  0014A8  ECC4  F039         	call	_Delay10TCYx
  5662  0014AC  0E47               	movlw	71
  5663  0014AE  ECC4  F039         	call	_Delay10TCYx
  5664  0014B2  9C91               	bcf	3985,6,c	;volatile
  5665  0014B4  0E47               	movlw	71
  5666  0014B6  ECC4  F039         	call	_Delay10TCYx
  5667  0014BA  0E47               	movlw	71
  5668  0014BC  ECC4  F039         	call	_Delay10TCYx
  5669  0014C0                     l13320:
  5670  0014C0  502F               	movf	_ms_count3+1,w,c	;volatile
  5671  0014C2  E10E               	bnz	l13326
  5672  0014C4  0EC9               	movlw	201
  5673  0014C6  5C2E               	subwf	_ms_count3,w,c	;volatile
  5674  0014C8  B0D8               	btfsc	status,0,c
  5675  0014CA  D00A               	goto	l13326
  5676  0014CC  EC74  F039         	call	_PB1pressed	;wreg free
  5677  0014D0  0900               	iorlw	0
  5678  0014D2  A4D8               	btfss	status,2,c
  5679  0014D4  D005               	goto	l13326
  5680  0014D6  EC60  F039         	call	_PB2pressed	;wreg free
  5681  0014DA  0900               	iorlw	0
  5682  0014DC  B4D8               	btfsc	status,2,c
  5683  0014DE  D7E2               	goto	l566
  5684  0014E0                     l13326:
  5685  0014E0  0E00               	movlw	0
  5686  0014E2  6E2F               	movwf	_ms_count3+1,c	;volatile
  5687  0014E4  0E00               	movlw	0
  5688  0014E6  6E2E               	movwf	_ms_count3,c	;volatile
  5689  0014E8                     l13328:
  5690  0014E8  502F               	movf	_ms_count3+1,w,c	;volatile
  5691  0014EA  E10E               	bnz	l13334
  5692  0014EC  0E65               	movlw	101
  5693  0014EE  5C2E               	subwf	_ms_count3,w,c	;volatile
  5694  0014F0  B0D8               	btfsc	status,0,c
  5695  0014F2  D00A               	goto	l13334
  5696  0014F4  EC74  F039         	call	_PB1pressed	;wreg free
  5697  0014F8  0900               	iorlw	0
  5698  0014FA  A4D8               	btfss	status,2,c
  5699  0014FC  D005               	goto	l13334
  5700  0014FE  EC60  F039         	call	_PB2pressed	;wreg free
  5701  001502  0900               	iorlw	0
  5702  001504  B4D8               	btfsc	status,2,c
  5703  001506  D7F0               	goto	l13328
  5704  001508                     l13334:
  5705  001508  0E00               	movlw	0
  5706  00150A  6E2F               	movwf	_ms_count3+1,c	;volatile
  5707  00150C  0E00               	movlw	0
  5708  00150E  6E2E               	movwf	_ms_count3,c	;volatile
  5709  001510  EC74  F039         	call	_PB1pressed	;wreg free
  5710  001514  0900               	iorlw	0
  5711  001516  A4D8               	btfss	status,2,c
  5712  001518  EF2F  F01C         	goto	l14966
  5713  00151C  EC60  F039         	call	_PB2pressed	;wreg free
  5714  001520  0900               	iorlw	0
  5715  001522  A4D8               	btfss	status,2,c
  5716  001524  EF2F  F01C         	goto	l14966
  5717  001528  D00E               	goto	l13344
  5718  00152A                     l579:
  5719  00152A  8C91               	bsf	3985,6,c	;volatile
  5720  00152C  0E50               	movlw	80
  5721  00152E  ECC4  F039         	call	_Delay10TCYx
  5722  001532  0E50               	movlw	80
  5723  001534  ECC4  F039         	call	_Delay10TCYx
  5724  001538  9C91               	bcf	3985,6,c	;volatile
  5725  00153A  0E50               	movlw	80
  5726  00153C  ECC4  F039         	call	_Delay10TCYx
  5727  001540  0E50               	movlw	80
  5728  001542  ECC4  F039         	call	_Delay10TCYx
  5729  001546                     l13344:
  5730  001546  502F               	movf	_ms_count3+1,w,c	;volatile
  5731  001548  E10E               	bnz	l13350
  5732  00154A  0EC9               	movlw	201
  5733  00154C  5C2E               	subwf	_ms_count3,w,c	;volatile
  5734  00154E  B0D8               	btfsc	status,0,c
  5735  001550  D00A               	goto	l13350
  5736  001552  EC74  F039         	call	_PB1pressed	;wreg free
  5737  001556  0900               	iorlw	0
  5738  001558  A4D8               	btfss	status,2,c
  5739  00155A  D005               	goto	l13350
  5740  00155C  EC60  F039         	call	_PB2pressed	;wreg free
  5741  001560  0900               	iorlw	0
  5742  001562  B4D8               	btfsc	status,2,c
  5743  001564  D7E2               	goto	l579
  5744  001566                     l13350:
  5745  001566  0E00               	movlw	0
  5746  001568  6E2F               	movwf	_ms_count3+1,c	;volatile
  5747  00156A  0E00               	movlw	0
  5748  00156C  6E2E               	movwf	_ms_count3,c	;volatile
  5749  00156E                     l13352:
  5750  00156E  502F               	movf	_ms_count3+1,w,c	;volatile
  5751  001570  E10E               	bnz	l13358
  5752  001572  0E65               	movlw	101
  5753  001574  5C2E               	subwf	_ms_count3,w,c	;volatile
  5754  001576  B0D8               	btfsc	status,0,c
  5755  001578  D00A               	goto	l13358
  5756  00157A  EC74  F039         	call	_PB1pressed	;wreg free
  5757  00157E  0900               	iorlw	0
  5758  001580  A4D8               	btfss	status,2,c
  5759  001582  D005               	goto	l13358
  5760  001584  EC60  F039         	call	_PB2pressed	;wreg free
  5761  001588  0900               	iorlw	0
  5762  00158A  B4D8               	btfsc	status,2,c
  5763  00158C  D7F0               	goto	l13352
  5764  00158E                     l13358:
  5765  00158E  0E00               	movlw	0
  5766  001590  6E2F               	movwf	_ms_count3+1,c	;volatile
  5767  001592  0E00               	movlw	0
  5768  001594  6E2E               	movwf	_ms_count3,c	;volatile
  5769  001596  EC74  F039         	call	_PB1pressed	;wreg free
  5770  00159A  0900               	iorlw	0
  5771  00159C  A4D8               	btfss	status,2,c
  5772  00159E  EF2F  F01C         	goto	l14966
  5773  0015A2  EC60  F039         	call	_PB2pressed	;wreg free
  5774  0015A6  0900               	iorlw	0
  5775  0015A8  A4D8               	btfss	status,2,c
  5776  0015AA  EF2F  F01C         	goto	l14966
  5777  0015AE  D00E               	goto	l13368
  5778  0015B0                     l592:
  5779  0015B0  8C91               	bsf	3985,6,c	;volatile
  5780  0015B2  0E59               	movlw	89
  5781  0015B4  ECC4  F039         	call	_Delay10TCYx
  5782  0015B8  0E59               	movlw	89
  5783  0015BA  ECC4  F039         	call	_Delay10TCYx
  5784  0015BE  9C91               	bcf	3985,6,c	;volatile
  5785  0015C0  0E59               	movlw	89
  5786  0015C2  ECC4  F039         	call	_Delay10TCYx
  5787  0015C6  0E59               	movlw	89
  5788  0015C8  ECC4  F039         	call	_Delay10TCYx
  5789  0015CC                     l13368:
  5790  0015CC  502F               	movf	_ms_count3+1,w,c	;volatile
  5791  0015CE  E10E               	bnz	l13374
  5792  0015D0  0EC9               	movlw	201
  5793  0015D2  5C2E               	subwf	_ms_count3,w,c	;volatile
  5794  0015D4  B0D8               	btfsc	status,0,c
  5795  0015D6  D00A               	goto	l13374
  5796  0015D8  EC74  F039         	call	_PB1pressed	;wreg free
  5797  0015DC  0900               	iorlw	0
  5798  0015DE  A4D8               	btfss	status,2,c
  5799  0015E0  D005               	goto	l13374
  5800  0015E2  EC60  F039         	call	_PB2pressed	;wreg free
  5801  0015E6  0900               	iorlw	0
  5802  0015E8  B4D8               	btfsc	status,2,c
  5803  0015EA  D7E2               	goto	l592
  5804  0015EC                     l13374:
  5805  0015EC  0E00               	movlw	0
  5806  0015EE  6E2F               	movwf	_ms_count3+1,c	;volatile
  5807  0015F0  0E00               	movlw	0
  5808  0015F2  6E2E               	movwf	_ms_count3,c	;volatile
  5809  0015F4                     l13376:
  5810  0015F4  502F               	movf	_ms_count3+1,w,c	;volatile
  5811  0015F6  E10E               	bnz	l13382
  5812  0015F8  0E65               	movlw	101
  5813  0015FA  5C2E               	subwf	_ms_count3,w,c	;volatile
  5814  0015FC  B0D8               	btfsc	status,0,c
  5815  0015FE  D00A               	goto	l13382
  5816  001600  EC74  F039         	call	_PB1pressed	;wreg free
  5817  001604  0900               	iorlw	0
  5818  001606  A4D8               	btfss	status,2,c
  5819  001608  D005               	goto	l13382
  5820  00160A  EC60  F039         	call	_PB2pressed	;wreg free
  5821  00160E  0900               	iorlw	0
  5822  001610  B4D8               	btfsc	status,2,c
  5823  001612  D7F0               	goto	l13376
  5824  001614                     l13382:
  5825  001614  0E00               	movlw	0
  5826  001616  6E2F               	movwf	_ms_count3+1,c	;volatile
  5827  001618  0E00               	movlw	0
  5828  00161A  6E2E               	movwf	_ms_count3,c	;volatile
  5829  00161C  EC74  F039         	call	_PB1pressed	;wreg free
  5830  001620  0900               	iorlw	0
  5831  001622  A4D8               	btfss	status,2,c
  5832  001624  EF2F  F01C         	goto	l14966
  5833  001628  EC60  F039         	call	_PB2pressed	;wreg free
  5834  00162C  0900               	iorlw	0
  5835  00162E  A4D8               	btfss	status,2,c
  5836  001630  EF2F  F01C         	goto	l14966
  5837  001634  D00E               	goto	l13392
  5838  001636                     l605:
  5839  001636  8C91               	bsf	3985,6,c	;volatile
  5840  001638  0E6A               	movlw	106
  5841  00163A  ECC4  F039         	call	_Delay10TCYx
  5842  00163E  0E6A               	movlw	106
  5843  001640  ECC4  F039         	call	_Delay10TCYx
  5844  001644  9C91               	bcf	3985,6,c	;volatile
  5845  001646  0E6A               	movlw	106
  5846  001648  ECC4  F039         	call	_Delay10TCYx
  5847  00164C  0E6A               	movlw	106
  5848  00164E  ECC4  F039         	call	_Delay10TCYx
  5849  001652                     l13392:
  5850  001652  0E91               	movlw	145
  5851  001654  5C2E               	subwf	_ms_count3,w,c	;volatile
  5852  001656  0E01               	movlw	1
  5853  001658  582F               	subwfb	_ms_count3+1,w,c	;volatile
  5854  00165A  B0D8               	btfsc	status,0,c
  5855  00165C  D00A               	goto	l13398
  5856  00165E  EC74  F039         	call	_PB1pressed	;wreg free
  5857  001662  0900               	iorlw	0
  5858  001664  A4D8               	btfss	status,2,c
  5859  001666  D005               	goto	l13398
  5860  001668  EC60  F039         	call	_PB2pressed	;wreg free
  5861  00166C  0900               	iorlw	0
  5862  00166E  B4D8               	btfsc	status,2,c
  5863  001670  D7E2               	goto	l605
  5864  001672                     l13398:
  5865  001672  0E00               	movlw	0
  5866  001674  6E2F               	movwf	_ms_count3+1,c	;volatile
  5867  001676  0E00               	movlw	0
  5868  001678  6E2E               	movwf	_ms_count3,c	;volatile
  5869  00167A                     l13400:
  5870  00167A  502F               	movf	_ms_count3+1,w,c	;volatile
  5871  00167C  E10E               	bnz	l13406
  5872  00167E  0E65               	movlw	101
  5873  001680  5C2E               	subwf	_ms_count3,w,c	;volatile
  5874  001682  B0D8               	btfsc	status,0,c
  5875  001684  D00A               	goto	l13406
  5876  001686  EC74  F039         	call	_PB1pressed	;wreg free
  5877  00168A  0900               	iorlw	0
  5878  00168C  A4D8               	btfss	status,2,c
  5879  00168E  D005               	goto	l13406
  5880  001690  EC60  F039         	call	_PB2pressed	;wreg free
  5881  001694  0900               	iorlw	0
  5882  001696  B4D8               	btfsc	status,2,c
  5883  001698  D7F0               	goto	l13400
  5884  00169A                     l13406:
  5885  00169A  0E00               	movlw	0
  5886  00169C  6E2F               	movwf	_ms_count3+1,c	;volatile
  5887  00169E  0E00               	movlw	0
  5888  0016A0  6E2E               	movwf	_ms_count3,c	;volatile
  5889  0016A2  EC74  F039         	call	_PB1pressed	;wreg free
  5890  0016A6  0900               	iorlw	0
  5891  0016A8  A4D8               	btfss	status,2,c
  5892  0016AA  EF2F  F01C         	goto	l14966
  5893  0016AE  EC60  F039         	call	_PB2pressed	;wreg free
  5894  0016B2  0900               	iorlw	0
  5895  0016B4  A4D8               	btfss	status,2,c
  5896  0016B6  EF2F  F01C         	goto	l14966
  5897  0016BA  D001               	goto	l13412
  5898  0016BC                     l618:
  5899  0016BC  9C91               	bcf	3985,6,c	;volatile
  5900  0016BE                     l13412:
  5901  0016BE  0E91               	movlw	145
  5902  0016C0  5C2E               	subwf	_ms_count3,w,c	;volatile
  5903  0016C2  0E01               	movlw	1
  5904  0016C4  582F               	subwfb	_ms_count3+1,w,c	;volatile
  5905  0016C6  B0D8               	btfsc	status,0,c
  5906  0016C8  D00A               	goto	l13418
  5907  0016CA  EC74  F039         	call	_PB1pressed	;wreg free
  5908  0016CE  0900               	iorlw	0
  5909  0016D0  A4D8               	btfss	status,2,c
  5910  0016D2  D005               	goto	l13418
  5911  0016D4  EC60  F039         	call	_PB2pressed	;wreg free
  5912  0016D8  0900               	iorlw	0
  5913  0016DA  B4D8               	btfsc	status,2,c
  5914  0016DC  D7EF               	goto	l618
  5915  0016DE                     l13418:
  5916  0016DE  0E00               	movlw	0
  5917  0016E0  6E2F               	movwf	_ms_count3+1,c	;volatile
  5918  0016E2  0E00               	movlw	0
  5919  0016E4  6E2E               	movwf	_ms_count3,c	;volatile
  5920  0016E6  EC74  F039         	call	_PB1pressed	;wreg free
  5921  0016EA  0900               	iorlw	0
  5922  0016EC  A4D8               	btfss	status,2,c
  5923  0016EE  EF2F  F01C         	goto	l14966
  5924  0016F2  EC60  F039         	call	_PB2pressed	;wreg free
  5925  0016F6  0900               	iorlw	0
  5926  0016F8  A4D8               	btfss	status,2,c
  5927  0016FA  EF2F  F01C         	goto	l14966
  5928  0016FE  D00E               	goto	l13428
  5929  001700                     l626:
  5930  001700  8C91               	bsf	3985,6,c	;volatile
  5931  001702  0E6A               	movlw	106
  5932  001704  ECC4  F039         	call	_Delay10TCYx
  5933  001708  0E6A               	movlw	106
  5934  00170A  ECC4  F039         	call	_Delay10TCYx
  5935  00170E  9C91               	bcf	3985,6,c	;volatile
  5936  001710  0E6A               	movlw	106
  5937  001712  ECC4  F039         	call	_Delay10TCYx
  5938  001716  0E6A               	movlw	106
  5939  001718  ECC4  F039         	call	_Delay10TCYx
  5940  00171C                     l13428:
  5941  00171C  502F               	movf	_ms_count3+1,w,c	;volatile
  5942  00171E  E10E               	bnz	l13434
  5943  001720  0EC9               	movlw	201
  5944  001722  5C2E               	subwf	_ms_count3,w,c	;volatile
  5945  001724  B0D8               	btfsc	status,0,c
  5946  001726  D00A               	goto	l13434
  5947  001728  EC74  F039         	call	_PB1pressed	;wreg free
  5948  00172C  0900               	iorlw	0
  5949  00172E  A4D8               	btfss	status,2,c
  5950  001730  D005               	goto	l13434
  5951  001732  EC60  F039         	call	_PB2pressed	;wreg free
  5952  001736  0900               	iorlw	0
  5953  001738  B4D8               	btfsc	status,2,c
  5954  00173A  D7E2               	goto	l626
  5955  00173C                     l13434:
  5956  00173C  0E00               	movlw	0
  5957  00173E  6E2F               	movwf	_ms_count3+1,c	;volatile
  5958  001740  0E00               	movlw	0
  5959  001742  6E2E               	movwf	_ms_count3,c	;volatile
  5960  001744                     l13436:
  5961  001744  502F               	movf	_ms_count3+1,w,c	;volatile
  5962  001746  E10E               	bnz	l13442
  5963  001748  0E65               	movlw	101
  5964  00174A  5C2E               	subwf	_ms_count3,w,c	;volatile
  5965  00174C  B0D8               	btfsc	status,0,c
  5966  00174E  D00A               	goto	l13442
  5967  001750  EC74  F039         	call	_PB1pressed	;wreg free
  5968  001754  0900               	iorlw	0
  5969  001756  A4D8               	btfss	status,2,c
  5970  001758  D005               	goto	l13442
  5971  00175A  EC60  F039         	call	_PB2pressed	;wreg free
  5972  00175E  0900               	iorlw	0
  5973  001760  B4D8               	btfsc	status,2,c
  5974  001762  D7F0               	goto	l13436
  5975  001764                     l13442:
  5976  001764  0E00               	movlw	0
  5977  001766  6E2F               	movwf	_ms_count3+1,c	;volatile
  5978  001768  0E00               	movlw	0
  5979  00176A  6E2E               	movwf	_ms_count3,c	;volatile
  5980  00176C  EC74  F039         	call	_PB1pressed	;wreg free
  5981  001770  0900               	iorlw	0
  5982  001772  A4D8               	btfss	status,2,c
  5983  001774  EF2F  F01C         	goto	l14966
  5984  001778  EC60  F039         	call	_PB2pressed	;wreg free
  5985  00177C  0900               	iorlw	0
  5986  00177E  A4D8               	btfss	status,2,c
  5987  001780  EF2F  F01C         	goto	l14966
  5988  001784  D00E               	goto	l13452
  5989  001786                     l639:
  5990  001786  8C91               	bsf	3985,6,c	;volatile
  5991  001788  0E43               	movlw	67
  5992  00178A  ECC4  F039         	call	_Delay10TCYx
  5993  00178E  0E43               	movlw	67
  5994  001790  ECC4  F039         	call	_Delay10TCYx
  5995  001794  9C91               	bcf	3985,6,c	;volatile
  5996  001796  0E43               	movlw	67
  5997  001798  ECC4  F039         	call	_Delay10TCYx
  5998  00179C  0E43               	movlw	67
  5999  00179E  ECC4  F039         	call	_Delay10TCYx
  6000  0017A2                     l13452:
  6001  0017A2  502F               	movf	_ms_count3+1,w,c	;volatile
  6002  0017A4  E10E               	bnz	l13458
  6003  0017A6  0EC9               	movlw	201
  6004  0017A8  5C2E               	subwf	_ms_count3,w,c	;volatile
  6005  0017AA  B0D8               	btfsc	status,0,c
  6006  0017AC  D00A               	goto	l13458
  6007  0017AE  EC74  F039         	call	_PB1pressed	;wreg free
  6008  0017B2  0900               	iorlw	0
  6009  0017B4  A4D8               	btfss	status,2,c
  6010  0017B6  D005               	goto	l13458
  6011  0017B8  EC60  F039         	call	_PB2pressed	;wreg free
  6012  0017BC  0900               	iorlw	0
  6013  0017BE  B4D8               	btfsc	status,2,c
  6014  0017C0  D7E2               	goto	l639
  6015  0017C2                     l13458:
  6016  0017C2  0E00               	movlw	0
  6017  0017C4  6E2F               	movwf	_ms_count3+1,c	;volatile
  6018  0017C6  0E00               	movlw	0
  6019  0017C8  6E2E               	movwf	_ms_count3,c	;volatile
  6020  0017CA                     l13460:
  6021  0017CA  502F               	movf	_ms_count3+1,w,c	;volatile
  6022  0017CC  E10E               	bnz	l13466
  6023  0017CE  0E65               	movlw	101
  6024  0017D0  5C2E               	subwf	_ms_count3,w,c	;volatile
  6025  0017D2  B0D8               	btfsc	status,0,c
  6026  0017D4  D00A               	goto	l13466
  6027  0017D6  EC74  F039         	call	_PB1pressed	;wreg free
  6028  0017DA  0900               	iorlw	0
  6029  0017DC  A4D8               	btfss	status,2,c
  6030  0017DE  D005               	goto	l13466
  6031  0017E0  EC60  F039         	call	_PB2pressed	;wreg free
  6032  0017E4  0900               	iorlw	0
  6033  0017E6  B4D8               	btfsc	status,2,c
  6034  0017E8  D7F0               	goto	l13460
  6035  0017EA                     l13466:
  6036  0017EA  0E00               	movlw	0
  6037  0017EC  6E2F               	movwf	_ms_count3+1,c	;volatile
  6038  0017EE  0E00               	movlw	0
  6039  0017F0  6E2E               	movwf	_ms_count3,c	;volatile
  6040  0017F2  EC74  F039         	call	_PB1pressed	;wreg free
  6041  0017F6  0900               	iorlw	0
  6042  0017F8  A4D8               	btfss	status,2,c
  6043  0017FA  EF2F  F01C         	goto	l14966
  6044  0017FE  EC60  F039         	call	_PB2pressed	;wreg free
  6045  001802  0900               	iorlw	0
  6046  001804  A4D8               	btfss	status,2,c
  6047  001806  EF2F  F01C         	goto	l14966
  6048  00180A  D00E               	goto	l13476
  6049  00180C                     l652:
  6050  00180C  8C91               	bsf	3985,6,c	;volatile
  6051  00180E  0E47               	movlw	71
  6052  001810  ECC4  F039         	call	_Delay10TCYx
  6053  001814  0E47               	movlw	71
  6054  001816  ECC4  F039         	call	_Delay10TCYx
  6055  00181A  9C91               	bcf	3985,6,c	;volatile
  6056  00181C  0E47               	movlw	71
  6057  00181E  ECC4  F039         	call	_Delay10TCYx
  6058  001822  0E47               	movlw	71
  6059  001824  ECC4  F039         	call	_Delay10TCYx
  6060  001828                     l13476:
  6061  001828  502F               	movf	_ms_count3+1,w,c	;volatile
  6062  00182A  E10E               	bnz	l13482
  6063  00182C  0EC9               	movlw	201
  6064  00182E  5C2E               	subwf	_ms_count3,w,c	;volatile
  6065  001830  B0D8               	btfsc	status,0,c
  6066  001832  D00A               	goto	l13482
  6067  001834  EC74  F039         	call	_PB1pressed	;wreg free
  6068  001838  0900               	iorlw	0
  6069  00183A  A4D8               	btfss	status,2,c
  6070  00183C  D005               	goto	l13482
  6071  00183E  EC60  F039         	call	_PB2pressed	;wreg free
  6072  001842  0900               	iorlw	0
  6073  001844  B4D8               	btfsc	status,2,c
  6074  001846  D7E2               	goto	l652
  6075  001848                     l13482:
  6076  001848  0E00               	movlw	0
  6077  00184A  6E2F               	movwf	_ms_count3+1,c	;volatile
  6078  00184C  0E00               	movlw	0
  6079  00184E  6E2E               	movwf	_ms_count3,c	;volatile
  6080  001850                     l13484:
  6081  001850  502F               	movf	_ms_count3+1,w,c	;volatile
  6082  001852  E10E               	bnz	l13490
  6083  001854  0E65               	movlw	101
  6084  001856  5C2E               	subwf	_ms_count3,w,c	;volatile
  6085  001858  B0D8               	btfsc	status,0,c
  6086  00185A  D00A               	goto	l13490
  6087  00185C  EC74  F039         	call	_PB1pressed	;wreg free
  6088  001860  0900               	iorlw	0
  6089  001862  A4D8               	btfss	status,2,c
  6090  001864  D005               	goto	l13490
  6091  001866  EC60  F039         	call	_PB2pressed	;wreg free
  6092  00186A  0900               	iorlw	0
  6093  00186C  B4D8               	btfsc	status,2,c
  6094  00186E  D7F0               	goto	l13484
  6095  001870                     l13490:
  6096  001870  0E00               	movlw	0
  6097  001872  6E2F               	movwf	_ms_count3+1,c	;volatile
  6098  001874  0E00               	movlw	0
  6099  001876  6E2E               	movwf	_ms_count3,c	;volatile
  6100  001878  EC74  F039         	call	_PB1pressed	;wreg free
  6101  00187C  0900               	iorlw	0
  6102  00187E  A4D8               	btfss	status,2,c
  6103  001880  EF2F  F01C         	goto	l14966
  6104  001884  EC60  F039         	call	_PB2pressed	;wreg free
  6105  001888  0900               	iorlw	0
  6106  00188A  A4D8               	btfss	status,2,c
  6107  00188C  EF2F  F01C         	goto	l14966
  6108  001890  D00E               	goto	l13500
  6109  001892                     l665:
  6110  001892  8C91               	bsf	3985,6,c	;volatile
  6111  001894  0E50               	movlw	80
  6112  001896  ECC4  F039         	call	_Delay10TCYx
  6113  00189A  0E50               	movlw	80
  6114  00189C  ECC4  F039         	call	_Delay10TCYx
  6115  0018A0  9C91               	bcf	3985,6,c	;volatile
  6116  0018A2  0E50               	movlw	80
  6117  0018A4  ECC4  F039         	call	_Delay10TCYx
  6118  0018A8  0E50               	movlw	80
  6119  0018AA  ECC4  F039         	call	_Delay10TCYx
  6120  0018AE                     l13500:
  6121  0018AE  502F               	movf	_ms_count3+1,w,c	;volatile
  6122  0018B0  E10E               	bnz	l13506
  6123  0018B2  0EC9               	movlw	201
  6124  0018B4  5C2E               	subwf	_ms_count3,w,c	;volatile
  6125  0018B6  B0D8               	btfsc	status,0,c
  6126  0018B8  D00A               	goto	l13506
  6127  0018BA  EC74  F039         	call	_PB1pressed	;wreg free
  6128  0018BE  0900               	iorlw	0
  6129  0018C0  A4D8               	btfss	status,2,c
  6130  0018C2  D005               	goto	l13506
  6131  0018C4  EC60  F039         	call	_PB2pressed	;wreg free
  6132  0018C8  0900               	iorlw	0
  6133  0018CA  B4D8               	btfsc	status,2,c
  6134  0018CC  D7E2               	goto	l665
  6135  0018CE                     l13506:
  6136  0018CE  0E00               	movlw	0
  6137  0018D0  6E2F               	movwf	_ms_count3+1,c	;volatile
  6138  0018D2  0E00               	movlw	0
  6139  0018D4  6E2E               	movwf	_ms_count3,c	;volatile
  6140  0018D6                     l13508:
  6141  0018D6  502F               	movf	_ms_count3+1,w,c	;volatile
  6142  0018D8  E10E               	bnz	l13514
  6143  0018DA  0E65               	movlw	101
  6144  0018DC  5C2E               	subwf	_ms_count3,w,c	;volatile
  6145  0018DE  B0D8               	btfsc	status,0,c
  6146  0018E0  D00A               	goto	l13514
  6147  0018E2  EC74  F039         	call	_PB1pressed	;wreg free
  6148  0018E6  0900               	iorlw	0
  6149  0018E8  A4D8               	btfss	status,2,c
  6150  0018EA  D005               	goto	l13514
  6151  0018EC  EC60  F039         	call	_PB2pressed	;wreg free
  6152  0018F0  0900               	iorlw	0
  6153  0018F2  B4D8               	btfsc	status,2,c
  6154  0018F4  D7F0               	goto	l13508
  6155  0018F6                     l13514:
  6156  0018F6  0E00               	movlw	0
  6157  0018F8  6E2F               	movwf	_ms_count3+1,c	;volatile
  6158  0018FA  0E00               	movlw	0
  6159  0018FC  6E2E               	movwf	_ms_count3,c	;volatile
  6160  0018FE  EC74  F039         	call	_PB1pressed	;wreg free
  6161  001902  0900               	iorlw	0
  6162  001904  A4D8               	btfss	status,2,c
  6163  001906  EF2F  F01C         	goto	l14966
  6164  00190A  EC60  F039         	call	_PB2pressed	;wreg free
  6165  00190E  0900               	iorlw	0
  6166  001910  A4D8               	btfss	status,2,c
  6167  001912  EF2F  F01C         	goto	l14966
  6168  001916  D00E               	goto	l13524
  6169  001918                     l678:
  6170  001918  8C91               	bsf	3985,6,c	;volatile
  6171  00191A  0E5F               	movlw	95
  6172  00191C  ECC4  F039         	call	_Delay10TCYx
  6173  001920  0E5F               	movlw	95
  6174  001922  ECC4  F039         	call	_Delay10TCYx
  6175  001926  9C91               	bcf	3985,6,c	;volatile
  6176  001928  0E5F               	movlw	95
  6177  00192A  ECC4  F039         	call	_Delay10TCYx
  6178  00192E  0E5F               	movlw	95
  6179  001930  ECC4  F039         	call	_Delay10TCYx
  6180  001934                     l13524:
  6181  001934  0E91               	movlw	145
  6182  001936  5C2E               	subwf	_ms_count3,w,c	;volatile
  6183  001938  0E01               	movlw	1
  6184  00193A  582F               	subwfb	_ms_count3+1,w,c	;volatile
  6185  00193C  B0D8               	btfsc	status,0,c
  6186  00193E  D00A               	goto	l13530
  6187  001940  EC74  F039         	call	_PB1pressed	;wreg free
  6188  001944  0900               	iorlw	0
  6189  001946  A4D8               	btfss	status,2,c
  6190  001948  D005               	goto	l13530
  6191  00194A  EC60  F039         	call	_PB2pressed	;wreg free
  6192  00194E  0900               	iorlw	0
  6193  001950  B4D8               	btfsc	status,2,c
  6194  001952  D7E2               	goto	l678
  6195  001954                     l13530:
  6196  001954  0E00               	movlw	0
  6197  001956  6E2F               	movwf	_ms_count3+1,c	;volatile
  6198  001958  0E00               	movlw	0
  6199  00195A  6E2E               	movwf	_ms_count3,c	;volatile
  6200  00195C                     l13532:
  6201  00195C  502F               	movf	_ms_count3+1,w,c	;volatile
  6202  00195E  E10E               	bnz	l13538
  6203  001960  0E65               	movlw	101
  6204  001962  5C2E               	subwf	_ms_count3,w,c	;volatile
  6205  001964  B0D8               	btfsc	status,0,c
  6206  001966  D00A               	goto	l13538
  6207  001968  EC74  F039         	call	_PB1pressed	;wreg free
  6208  00196C  0900               	iorlw	0
  6209  00196E  A4D8               	btfss	status,2,c
  6210  001970  D005               	goto	l13538
  6211  001972  EC60  F039         	call	_PB2pressed	;wreg free
  6212  001976  0900               	iorlw	0
  6213  001978  B4D8               	btfsc	status,2,c
  6214  00197A  D7F0               	goto	l13532
  6215  00197C                     l13538:
  6216  00197C  0E00               	movlw	0
  6217  00197E  6E2F               	movwf	_ms_count3+1,c	;volatile
  6218  001980  0E00               	movlw	0
  6219  001982  6E2E               	movwf	_ms_count3,c	;volatile
  6220  001984  EC74  F039         	call	_PB1pressed	;wreg free
  6221  001988  0900               	iorlw	0
  6222  00198A  A4D8               	btfss	status,2,c
  6223  00198C  EF2F  F01C         	goto	l14966
  6224  001990  EC60  F039         	call	_PB2pressed	;wreg free
  6225  001994  0900               	iorlw	0
  6226  001996  A4D8               	btfss	status,2,c
  6227  001998  EF2F  F01C         	goto	l14966
  6228  00199C  D001               	goto	l13544
  6229  00199E                     l691:
  6230  00199E  9C91               	bcf	3985,6,c	;volatile
  6231  0019A0                     l13544:
  6232  0019A0  0E91               	movlw	145
  6233  0019A2  5C2E               	subwf	_ms_count3,w,c	;volatile
  6234  0019A4  0E01               	movlw	1
  6235  0019A6  582F               	subwfb	_ms_count3+1,w,c	;volatile
  6236  0019A8  B0D8               	btfsc	status,0,c
  6237  0019AA  D00A               	goto	l13550
  6238  0019AC  EC74  F039         	call	_PB1pressed	;wreg free
  6239  0019B0  0900               	iorlw	0
  6240  0019B2  A4D8               	btfss	status,2,c
  6241  0019B4  D005               	goto	l13550
  6242  0019B6  EC60  F039         	call	_PB2pressed	;wreg free
  6243  0019BA  0900               	iorlw	0
  6244  0019BC  B4D8               	btfsc	status,2,c
  6245  0019BE  D7EF               	goto	l691
  6246  0019C0                     l13550:
  6247  0019C0  0E00               	movlw	0
  6248  0019C2  6E2F               	movwf	_ms_count3+1,c	;volatile
  6249  0019C4  0E00               	movlw	0
  6250  0019C6  6E2E               	movwf	_ms_count3,c	;volatile
  6251  0019C8  EC74  F039         	call	_PB1pressed	;wreg free
  6252  0019CC  0900               	iorlw	0
  6253  0019CE  A4D8               	btfss	status,2,c
  6254  0019D0  EF2F  F01C         	goto	l14966
  6255  0019D4  EC60  F039         	call	_PB2pressed	;wreg free
  6256  0019D8  0900               	iorlw	0
  6257  0019DA  A4D8               	btfss	status,2,c
  6258  0019DC  EF2F  F01C         	goto	l14966
  6259  0019E0  D00E               	goto	l13560
  6260  0019E2                     l699:
  6261  0019E2  8C91               	bsf	3985,6,c	;volatile
  6262  0019E4  0E3C               	movlw	60
  6263  0019E6  ECC4  F039         	call	_Delay10TCYx
  6264  0019EA  0E3C               	movlw	60
  6265  0019EC  ECC4  F039         	call	_Delay10TCYx
  6266  0019F0  9C91               	bcf	3985,6,c	;volatile
  6267  0019F2  0E3C               	movlw	60
  6268  0019F4  ECC4  F039         	call	_Delay10TCYx
  6269  0019F8  0E3C               	movlw	60
  6270  0019FA  ECC4  F039         	call	_Delay10TCYx
  6271  0019FE                     l13560:
  6272  0019FE  502F               	movf	_ms_count3+1,w,c	;volatile
  6273  001A00  E10E               	bnz	l13566
  6274  001A02  0EC9               	movlw	201
  6275  001A04  5C2E               	subwf	_ms_count3,w,c	;volatile
  6276  001A06  B0D8               	btfsc	status,0,c
  6277  001A08  D00A               	goto	l13566
  6278  001A0A  EC74  F039         	call	_PB1pressed	;wreg free
  6279  001A0E  0900               	iorlw	0
  6280  001A10  A4D8               	btfss	status,2,c
  6281  001A12  D005               	goto	l13566
  6282  001A14  EC60  F039         	call	_PB2pressed	;wreg free
  6283  001A18  0900               	iorlw	0
  6284  001A1A  B4D8               	btfsc	status,2,c
  6285  001A1C  D7E2               	goto	l699
  6286  001A1E                     l13566:
  6287  001A1E  0E00               	movlw	0
  6288  001A20  6E2F               	movwf	_ms_count3+1,c	;volatile
  6289  001A22  0E00               	movlw	0
  6290  001A24  6E2E               	movwf	_ms_count3,c	;volatile
  6291  001A26                     l13568:
  6292  001A26  502F               	movf	_ms_count3+1,w,c	;volatile
  6293  001A28  E10E               	bnz	l13574
  6294  001A2A  0E65               	movlw	101
  6295  001A2C  5C2E               	subwf	_ms_count3,w,c	;volatile
  6296  001A2E  B0D8               	btfsc	status,0,c
  6297  001A30  D00A               	goto	l13574
  6298  001A32  EC74  F039         	call	_PB1pressed	;wreg free
  6299  001A36  0900               	iorlw	0
  6300  001A38  A4D8               	btfss	status,2,c
  6301  001A3A  D005               	goto	l13574
  6302  001A3C  EC60  F039         	call	_PB2pressed	;wreg free
  6303  001A40  0900               	iorlw	0
  6304  001A42  B4D8               	btfsc	status,2,c
  6305  001A44  D7F0               	goto	l13568
  6306  001A46                     l13574:
  6307  001A46  0E00               	movlw	0
  6308  001A48  6E2F               	movwf	_ms_count3+1,c	;volatile
  6309  001A4A  0E00               	movlw	0
  6310  001A4C  6E2E               	movwf	_ms_count3,c	;volatile
  6311  001A4E  EC74  F039         	call	_PB1pressed	;wreg free
  6312  001A52  0900               	iorlw	0
  6313  001A54  A4D8               	btfss	status,2,c
  6314  001A56  EF2F  F01C         	goto	l14966
  6315  001A5A  EC60  F039         	call	_PB2pressed	;wreg free
  6316  001A5E  0900               	iorlw	0
  6317  001A60  A4D8               	btfss	status,2,c
  6318  001A62  EF2F  F01C         	goto	l14966
  6319  001A66  D00E               	goto	l13584
  6320  001A68                     l712:
  6321  001A68  8C91               	bsf	3985,6,c	;volatile
  6322  001A6A  0E3C               	movlw	60
  6323  001A6C  ECC4  F039         	call	_Delay10TCYx
  6324  001A70  0E3C               	movlw	60
  6325  001A72  ECC4  F039         	call	_Delay10TCYx
  6326  001A76  9C91               	bcf	3985,6,c	;volatile
  6327  001A78  0E3C               	movlw	60
  6328  001A7A  ECC4  F039         	call	_Delay10TCYx
  6329  001A7E  0E3C               	movlw	60
  6330  001A80  ECC4  F039         	call	_Delay10TCYx
  6331  001A84                     l13584:
  6332  001A84  502F               	movf	_ms_count3+1,w,c	;volatile
  6333  001A86  E10E               	bnz	l13590
  6334  001A88  0EC9               	movlw	201
  6335  001A8A  5C2E               	subwf	_ms_count3,w,c	;volatile
  6336  001A8C  B0D8               	btfsc	status,0,c
  6337  001A8E  D00A               	goto	l13590
  6338  001A90  EC74  F039         	call	_PB1pressed	;wreg free
  6339  001A94  0900               	iorlw	0
  6340  001A96  A4D8               	btfss	status,2,c
  6341  001A98  D005               	goto	l13590
  6342  001A9A  EC60  F039         	call	_PB2pressed	;wreg free
  6343  001A9E  0900               	iorlw	0
  6344  001AA0  B4D8               	btfsc	status,2,c
  6345  001AA2  D7E2               	goto	l712
  6346  001AA4                     l13590:
  6347  001AA4  0E00               	movlw	0
  6348  001AA6  6E2F               	movwf	_ms_count3+1,c	;volatile
  6349  001AA8  0E00               	movlw	0
  6350  001AAA  6E2E               	movwf	_ms_count3,c	;volatile
  6351  001AAC                     l13592:
  6352  001AAC  502F               	movf	_ms_count3+1,w,c	;volatile
  6353  001AAE  E10E               	bnz	l13598
  6354  001AB0  0E65               	movlw	101
  6355  001AB2  5C2E               	subwf	_ms_count3,w,c	;volatile
  6356  001AB4  B0D8               	btfsc	status,0,c
  6357  001AB6  D00A               	goto	l13598
  6358  001AB8  EC74  F039         	call	_PB1pressed	;wreg free
  6359  001ABC  0900               	iorlw	0
  6360  001ABE  A4D8               	btfss	status,2,c
  6361  001AC0  D005               	goto	l13598
  6362  001AC2  EC60  F039         	call	_PB2pressed	;wreg free
  6363  001AC6  0900               	iorlw	0
  6364  001AC8  B4D8               	btfsc	status,2,c
  6365  001ACA  D7F0               	goto	l13592
  6366  001ACC                     l13598:
  6367  001ACC  0E00               	movlw	0
  6368  001ACE  6E2F               	movwf	_ms_count3+1,c	;volatile
  6369  001AD0  0E00               	movlw	0
  6370  001AD2  6E2E               	movwf	_ms_count3,c	;volatile
  6371  001AD4  EC74  F039         	call	_PB1pressed	;wreg free
  6372  001AD8  0900               	iorlw	0
  6373  001ADA  A4D8               	btfss	status,2,c
  6374  001ADC  EF2F  F01C         	goto	l14966
  6375  001AE0  EC60  F039         	call	_PB2pressed	;wreg free
  6376  001AE4  0900               	iorlw	0
  6377  001AE6  A4D8               	btfss	status,2,c
  6378  001AE8  EF2F  F01C         	goto	l14966
  6379  001AEC  D00E               	goto	l13608
  6380  001AEE                     l725:
  6381  001AEE  8C91               	bsf	3985,6,c	;volatile
  6382  001AF0  0E43               	movlw	67
  6383  001AF2  ECC4  F039         	call	_Delay10TCYx
  6384  001AF6  0E43               	movlw	67
  6385  001AF8  ECC4  F039         	call	_Delay10TCYx
  6386  001AFC  9C91               	bcf	3985,6,c	;volatile
  6387  001AFE  0E43               	movlw	67
  6388  001B00  ECC4  F039         	call	_Delay10TCYx
  6389  001B04  0E43               	movlw	67
  6390  001B06  ECC4  F039         	call	_Delay10TCYx
  6391  001B0A                     l13608:
  6392  001B0A  502F               	movf	_ms_count3+1,w,c	;volatile
  6393  001B0C  E10E               	bnz	l13614
  6394  001B0E  0EC9               	movlw	201
  6395  001B10  5C2E               	subwf	_ms_count3,w,c	;volatile
  6396  001B12  B0D8               	btfsc	status,0,c
  6397  001B14  D00A               	goto	l13614
  6398  001B16  EC74  F039         	call	_PB1pressed	;wreg free
  6399  001B1A  0900               	iorlw	0
  6400  001B1C  A4D8               	btfss	status,2,c
  6401  001B1E  D005               	goto	l13614
  6402  001B20  EC60  F039         	call	_PB2pressed	;wreg free
  6403  001B24  0900               	iorlw	0
  6404  001B26  B4D8               	btfsc	status,2,c
  6405  001B28  D7E2               	goto	l725
  6406  001B2A                     l13614:
  6407  001B2A  0E00               	movlw	0
  6408  001B2C  6E2F               	movwf	_ms_count3+1,c	;volatile
  6409  001B2E  0E00               	movlw	0
  6410  001B30  6E2E               	movwf	_ms_count3,c	;volatile
  6411  001B32                     l13616:
  6412  001B32  502F               	movf	_ms_count3+1,w,c	;volatile
  6413  001B34  E10E               	bnz	l13622
  6414  001B36  0E65               	movlw	101
  6415  001B38  5C2E               	subwf	_ms_count3,w,c	;volatile
  6416  001B3A  B0D8               	btfsc	status,0,c
  6417  001B3C  D00A               	goto	l13622
  6418  001B3E  EC74  F039         	call	_PB1pressed	;wreg free
  6419  001B42  0900               	iorlw	0
  6420  001B44  A4D8               	btfss	status,2,c
  6421  001B46  D005               	goto	l13622
  6422  001B48  EC60  F039         	call	_PB2pressed	;wreg free
  6423  001B4C  0900               	iorlw	0
  6424  001B4E  B4D8               	btfsc	status,2,c
  6425  001B50  D7F0               	goto	l13616
  6426  001B52                     l13622:
  6427  001B52  0E00               	movlw	0
  6428  001B54  6E2F               	movwf	_ms_count3+1,c	;volatile
  6429  001B56  0E00               	movlw	0
  6430  001B58  6E2E               	movwf	_ms_count3,c	;volatile
  6431  001B5A  EC74  F039         	call	_PB1pressed	;wreg free
  6432  001B5E  0900               	iorlw	0
  6433  001B60  A4D8               	btfss	status,2,c
  6434  001B62  EF2F  F01C         	goto	l14966
  6435  001B66  EC60  F039         	call	_PB2pressed	;wreg free
  6436  001B6A  0900               	iorlw	0
  6437  001B6C  A4D8               	btfss	status,2,c
  6438  001B6E  EF2F  F01C         	goto	l14966
  6439  001B72  D00E               	goto	l13632
  6440  001B74                     l738:
  6441  001B74  8C91               	bsf	3985,6,c	;volatile
  6442  001B76  0E50               	movlw	80
  6443  001B78  ECC4  F039         	call	_Delay10TCYx
  6444  001B7C  0E50               	movlw	80
  6445  001B7E  ECC4  F039         	call	_Delay10TCYx
  6446  001B82  9C91               	bcf	3985,6,c	;volatile
  6447  001B84  0E50               	movlw	80
  6448  001B86  ECC4  F039         	call	_Delay10TCYx
  6449  001B8A  0E50               	movlw	80
  6450  001B8C  ECC4  F039         	call	_Delay10TCYx
  6451  001B90                     l13632:
  6452  001B90  502F               	movf	_ms_count3+1,w,c	;volatile
  6453  001B92  E10E               	bnz	l13638
  6454  001B94  0EC9               	movlw	201
  6455  001B96  5C2E               	subwf	_ms_count3,w,c	;volatile
  6456  001B98  B0D8               	btfsc	status,0,c
  6457  001B9A  D00A               	goto	l13638
  6458  001B9C  EC74  F039         	call	_PB1pressed	;wreg free
  6459  001BA0  0900               	iorlw	0
  6460  001BA2  A4D8               	btfss	status,2,c
  6461  001BA4  D005               	goto	l13638
  6462  001BA6  EC60  F039         	call	_PB2pressed	;wreg free
  6463  001BAA  0900               	iorlw	0
  6464  001BAC  B4D8               	btfsc	status,2,c
  6465  001BAE  D7E2               	goto	l738
  6466  001BB0                     l13638:
  6467  001BB0  0E00               	movlw	0
  6468  001BB2  6E2F               	movwf	_ms_count3+1,c	;volatile
  6469  001BB4  0E00               	movlw	0
  6470  001BB6  6E2E               	movwf	_ms_count3,c	;volatile
  6471  001BB8                     l13640:
  6472  001BB8  502F               	movf	_ms_count3+1,w,c	;volatile
  6473  001BBA  E10E               	bnz	l13646
  6474  001BBC  0E65               	movlw	101
  6475  001BBE  5C2E               	subwf	_ms_count3,w,c	;volatile
  6476  001BC0  B0D8               	btfsc	status,0,c
  6477  001BC2  D00A               	goto	l13646
  6478  001BC4  EC74  F039         	call	_PB1pressed	;wreg free
  6479  001BC8  0900               	iorlw	0
  6480  001BCA  A4D8               	btfss	status,2,c
  6481  001BCC  D005               	goto	l13646
  6482  001BCE  EC60  F039         	call	_PB2pressed	;wreg free
  6483  001BD2  0900               	iorlw	0
  6484  001BD4  B4D8               	btfsc	status,2,c
  6485  001BD6  D7F0               	goto	l13640
  6486  001BD8                     l13646:
  6487  001BD8  0E00               	movlw	0
  6488  001BDA  6E2F               	movwf	_ms_count3+1,c	;volatile
  6489  001BDC  0E00               	movlw	0
  6490  001BDE  6E2E               	movwf	_ms_count3,c	;volatile
  6491  001BE0  EC74  F039         	call	_PB1pressed	;wreg free
  6492  001BE4  0900               	iorlw	0
  6493  001BE6  A4D8               	btfss	status,2,c
  6494  001BE8  EF2F  F01C         	goto	l14966
  6495  001BEC  EC60  F039         	call	_PB2pressed	;wreg free
  6496  001BF0  0900               	iorlw	0
  6497  001BF2  A4D8               	btfss	status,2,c
  6498  001BF4  EF2F  F01C         	goto	l14966
  6499  001BF8  D00E               	goto	l13656
  6500  001BFA                     l751:
  6501  001BFA  8C91               	bsf	3985,6,c	;volatile
  6502  001BFC  0E47               	movlw	71
  6503  001BFE  ECC4  F039         	call	_Delay10TCYx
  6504  001C02  0E47               	movlw	71
  6505  001C04  ECC4  F039         	call	_Delay10TCYx
  6506  001C08  9C91               	bcf	3985,6,c	;volatile
  6507  001C0A  0E47               	movlw	71
  6508  001C0C  ECC4  F039         	call	_Delay10TCYx
  6509  001C10  0E47               	movlw	71
  6510  001C12  ECC4  F039         	call	_Delay10TCYx
  6511  001C16                     l13656:
  6512  001C16  0E91               	movlw	145
  6513  001C18  5C2E               	subwf	_ms_count3,w,c	;volatile
  6514  001C1A  0E01               	movlw	1
  6515  001C1C  582F               	subwfb	_ms_count3+1,w,c	;volatile
  6516  001C1E  B0D8               	btfsc	status,0,c
  6517  001C20  D00A               	goto	l13662
  6518  001C22  EC74  F039         	call	_PB1pressed	;wreg free
  6519  001C26  0900               	iorlw	0
  6520  001C28  A4D8               	btfss	status,2,c
  6521  001C2A  D005               	goto	l13662
  6522  001C2C  EC60  F039         	call	_PB2pressed	;wreg free
  6523  001C30  0900               	iorlw	0
  6524  001C32  B4D8               	btfsc	status,2,c
  6525  001C34  D7E2               	goto	l751
  6526  001C36                     l13662:
  6527  001C36  0E00               	movlw	0
  6528  001C38  6E2F               	movwf	_ms_count3+1,c	;volatile
  6529  001C3A  0E00               	movlw	0
  6530  001C3C  6E2E               	movwf	_ms_count3,c	;volatile
  6531  001C3E                     l13664:
  6532  001C3E  502F               	movf	_ms_count3+1,w,c	;volatile
  6533  001C40  E10E               	bnz	l13670
  6534  001C42  0E65               	movlw	101
  6535  001C44  5C2E               	subwf	_ms_count3,w,c	;volatile
  6536  001C46  B0D8               	btfsc	status,0,c
  6537  001C48  D00A               	goto	l13670
  6538  001C4A  EC74  F039         	call	_PB1pressed	;wreg free
  6539  001C4E  0900               	iorlw	0
  6540  001C50  A4D8               	btfss	status,2,c
  6541  001C52  D005               	goto	l13670
  6542  001C54  EC60  F039         	call	_PB2pressed	;wreg free
  6543  001C58  0900               	iorlw	0
  6544  001C5A  B4D8               	btfsc	status,2,c
  6545  001C5C  D7F0               	goto	l13664
  6546  001C5E                     l13670:
  6547  001C5E  0E00               	movlw	0
  6548  001C60  6E2F               	movwf	_ms_count3+1,c	;volatile
  6549  001C62  0E00               	movlw	0
  6550  001C64  6E2E               	movwf	_ms_count3,c	;volatile
  6551  001C66  EC74  F039         	call	_PB1pressed	;wreg free
  6552  001C6A  0900               	iorlw	0
  6553  001C6C  A4D8               	btfss	status,2,c
  6554  001C6E  EF2F  F01C         	goto	l14966
  6555  001C72  EC60  F039         	call	_PB2pressed	;wreg free
  6556  001C76  0900               	iorlw	0
  6557  001C78  A4D8               	btfss	status,2,c
  6558  001C7A  EF2F  F01C         	goto	l14966
  6559  001C7E  D001               	goto	l13676
  6560  001C80                     l764:
  6561  001C80  9C91               	bcf	3985,6,c	;volatile
  6562  001C82                     l13676:
  6563  001C82  0E91               	movlw	145
  6564  001C84  5C2E               	subwf	_ms_count3,w,c	;volatile
  6565  001C86  0E01               	movlw	1
  6566  001C88  582F               	subwfb	_ms_count3+1,w,c	;volatile
  6567  001C8A  B0D8               	btfsc	status,0,c
  6568  001C8C  D00A               	goto	l13682
  6569  001C8E  EC74  F039         	call	_PB1pressed	;wreg free
  6570  001C92  0900               	iorlw	0
  6571  001C94  A4D8               	btfss	status,2,c
  6572  001C96  D005               	goto	l13682
  6573  001C98  EC60  F039         	call	_PB2pressed	;wreg free
  6574  001C9C  0900               	iorlw	0
  6575  001C9E  B4D8               	btfsc	status,2,c
  6576  001CA0  D7EF               	goto	l764
  6577  001CA2                     l13682:
  6578  001CA2  0E00               	movlw	0
  6579  001CA4  6E2F               	movwf	_ms_count3+1,c	;volatile
  6580  001CA6  0E00               	movlw	0
  6581  001CA8  6E2E               	movwf	_ms_count3,c	;volatile
  6582  001CAA  EC74  F039         	call	_PB1pressed	;wreg free
  6583  001CAE  0900               	iorlw	0
  6584  001CB0  A4D8               	btfss	status,2,c
  6585  001CB2  EF2F  F01C         	goto	l14966
  6586  001CB6  EC60  F039         	call	_PB2pressed	;wreg free
  6587  001CBA  0900               	iorlw	0
  6588  001CBC  A4D8               	btfss	status,2,c
  6589  001CBE  EF2F  F01C         	goto	l14966
  6590  001CC2  D00E               	goto	l13692
  6591  001CC4                     l772:
  6592  001CC4  8C91               	bsf	3985,6,c	;volatile
  6593  001CC6  0E77               	movlw	119
  6594  001CC8  ECC4  F039         	call	_Delay10TCYx
  6595  001CCC  0E77               	movlw	119
  6596  001CCE  ECC4  F039         	call	_Delay10TCYx
  6597  001CD2  9C91               	bcf	3985,6,c	;volatile
  6598  001CD4  0E77               	movlw	119
  6599  001CD6  ECC4  F039         	call	_Delay10TCYx
  6600  001CDA  0E77               	movlw	119
  6601  001CDC  ECC4  F039         	call	_Delay10TCYx
  6602  001CE0                     l13692:
  6603  001CE0  502F               	movf	_ms_count3+1,w,c	;volatile
  6604  001CE2  E10E               	bnz	l13698
  6605  001CE4  0EC9               	movlw	201
  6606  001CE6  5C2E               	subwf	_ms_count3,w,c	;volatile
  6607  001CE8  B0D8               	btfsc	status,0,c
  6608  001CEA  D00A               	goto	l13698
  6609  001CEC  EC74  F039         	call	_PB1pressed	;wreg free
  6610  001CF0  0900               	iorlw	0
  6611  001CF2  A4D8               	btfss	status,2,c
  6612  001CF4  D005               	goto	l13698
  6613  001CF6  EC60  F039         	call	_PB2pressed	;wreg free
  6614  001CFA  0900               	iorlw	0
  6615  001CFC  B4D8               	btfsc	status,2,c
  6616  001CFE  D7E2               	goto	l772
  6617  001D00                     l13698:
  6618  001D00  0E00               	movlw	0
  6619  001D02  6E2F               	movwf	_ms_count3+1,c	;volatile
  6620  001D04  0E00               	movlw	0
  6621  001D06  6E2E               	movwf	_ms_count3,c	;volatile
  6622  001D08                     l13700:
  6623  001D08  502F               	movf	_ms_count3+1,w,c	;volatile
  6624  001D0A  E10E               	bnz	l13706
  6625  001D0C  0E65               	movlw	101
  6626  001D0E  5C2E               	subwf	_ms_count3,w,c	;volatile
  6627  001D10  B0D8               	btfsc	status,0,c
  6628  001D12  D00A               	goto	l13706
  6629  001D14  EC74  F039         	call	_PB1pressed	;wreg free
  6630  001D18  0900               	iorlw	0
  6631  001D1A  A4D8               	btfss	status,2,c
  6632  001D1C  D005               	goto	l13706
  6633  001D1E  EC60  F039         	call	_PB2pressed	;wreg free
  6634  001D22  0900               	iorlw	0
  6635  001D24  B4D8               	btfsc	status,2,c
  6636  001D26  D7F0               	goto	l13700
  6637  001D28                     l13706:
  6638  001D28  0E00               	movlw	0
  6639  001D2A  6E2F               	movwf	_ms_count3+1,c	;volatile
  6640  001D2C  0E00               	movlw	0
  6641  001D2E  6E2E               	movwf	_ms_count3,c	;volatile
  6642  001D30  EC74  F039         	call	_PB1pressed	;wreg free
  6643  001D34  0900               	iorlw	0
  6644  001D36  A4D8               	btfss	status,2,c
  6645  001D38  EF2F  F01C         	goto	l14966
  6646  001D3C  EC60  F039         	call	_PB2pressed	;wreg free
  6647  001D40  0900               	iorlw	0
  6648  001D42  A4D8               	btfss	status,2,c
  6649  001D44  EF2F  F01C         	goto	l14966
  6650  001D48  D00E               	goto	l13716
  6651  001D4A                     l785:
  6652  001D4A  8C91               	bsf	3985,6,c	;volatile
  6653  001D4C  0E47               	movlw	71
  6654  001D4E  ECC4  F039         	call	_Delay10TCYx
  6655  001D52  0E47               	movlw	71
  6656  001D54  ECC4  F039         	call	_Delay10TCYx
  6657  001D58  9C91               	bcf	3985,6,c	;volatile
  6658  001D5A  0E47               	movlw	71
  6659  001D5C  ECC4  F039         	call	_Delay10TCYx
  6660  001D60  0E47               	movlw	71
  6661  001D62  ECC4  F039         	call	_Delay10TCYx
  6662  001D66                     l13716:
  6663  001D66  502F               	movf	_ms_count3+1,w,c	;volatile
  6664  001D68  E10E               	bnz	l13722
  6665  001D6A  0EC9               	movlw	201
  6666  001D6C  5C2E               	subwf	_ms_count3,w,c	;volatile
  6667  001D6E  B0D8               	btfsc	status,0,c
  6668  001D70  D00A               	goto	l13722
  6669  001D72  EC74  F039         	call	_PB1pressed	;wreg free
  6670  001D76  0900               	iorlw	0
  6671  001D78  A4D8               	btfss	status,2,c
  6672  001D7A  D005               	goto	l13722
  6673  001D7C  EC60  F039         	call	_PB2pressed	;wreg free
  6674  001D80  0900               	iorlw	0
  6675  001D82  B4D8               	btfsc	status,2,c
  6676  001D84  D7E2               	goto	l785
  6677  001D86                     l13722:
  6678  001D86  0E00               	movlw	0
  6679  001D88  6E2F               	movwf	_ms_count3+1,c	;volatile
  6680  001D8A  0E00               	movlw	0
  6681  001D8C  6E2E               	movwf	_ms_count3,c	;volatile
  6682  001D8E                     l13724:
  6683  001D8E  502F               	movf	_ms_count3+1,w,c	;volatile
  6684  001D90  E10E               	bnz	l13730
  6685  001D92  0E65               	movlw	101
  6686  001D94  5C2E               	subwf	_ms_count3,w,c	;volatile
  6687  001D96  B0D8               	btfsc	status,0,c
  6688  001D98  D00A               	goto	l13730
  6689  001D9A  EC74  F039         	call	_PB1pressed	;wreg free
  6690  001D9E  0900               	iorlw	0
  6691  001DA0  A4D8               	btfss	status,2,c
  6692  001DA2  D005               	goto	l13730
  6693  001DA4  EC60  F039         	call	_PB2pressed	;wreg free
  6694  001DA8  0900               	iorlw	0
  6695  001DAA  B4D8               	btfsc	status,2,c
  6696  001DAC  D7F0               	goto	l13724
  6697  001DAE                     l13730:
  6698  001DAE  0E00               	movlw	0
  6699  001DB0  6E2F               	movwf	_ms_count3+1,c	;volatile
  6700  001DB2  0E00               	movlw	0
  6701  001DB4  6E2E               	movwf	_ms_count3,c	;volatile
  6702  001DB6  EC74  F039         	call	_PB1pressed	;wreg free
  6703  001DBA  0900               	iorlw	0
  6704  001DBC  A4D8               	btfss	status,2,c
  6705  001DBE  EF2F  F01C         	goto	l14966
  6706  001DC2  EC60  F039         	call	_PB2pressed	;wreg free
  6707  001DC6  0900               	iorlw	0
  6708  001DC8  A4D8               	btfss	status,2,c
  6709  001DCA  EF2F  F01C         	goto	l14966
  6710  001DCE  D00E               	goto	l13740
  6711  001DD0                     l798:
  6712  001DD0  8C91               	bsf	3985,6,c	;volatile
  6713  001DD2  0E50               	movlw	80
  6714  001DD4  ECC4  F039         	call	_Delay10TCYx
  6715  001DD8  0E50               	movlw	80
  6716  001DDA  ECC4  F039         	call	_Delay10TCYx
  6717  001DDE  9C91               	bcf	3985,6,c	;volatile
  6718  001DE0  0E50               	movlw	80
  6719  001DE2  ECC4  F039         	call	_Delay10TCYx
  6720  001DE6  0E50               	movlw	80
  6721  001DE8  ECC4  F039         	call	_Delay10TCYx
  6722  001DEC                     l13740:
  6723  001DEC  502F               	movf	_ms_count3+1,w,c	;volatile
  6724  001DEE  E10E               	bnz	l13746
  6725  001DF0  0EC9               	movlw	201
  6726  001DF2  5C2E               	subwf	_ms_count3,w,c	;volatile
  6727  001DF4  B0D8               	btfsc	status,0,c
  6728  001DF6  D00A               	goto	l13746
  6729  001DF8  EC74  F039         	call	_PB1pressed	;wreg free
  6730  001DFC  0900               	iorlw	0
  6731  001DFE  A4D8               	btfss	status,2,c
  6732  001E00  D005               	goto	l13746
  6733  001E02  EC60  F039         	call	_PB2pressed	;wreg free
  6734  001E06  0900               	iorlw	0
  6735  001E08  B4D8               	btfsc	status,2,c
  6736  001E0A  D7E2               	goto	l798
  6737  001E0C                     l13746:
  6738  001E0C  0E00               	movlw	0
  6739  001E0E  6E2F               	movwf	_ms_count3+1,c	;volatile
  6740  001E10  0E00               	movlw	0
  6741  001E12  6E2E               	movwf	_ms_count3,c	;volatile
  6742  001E14                     l13748:
  6743  001E14  502F               	movf	_ms_count3+1,w,c	;volatile
  6744  001E16  E10E               	bnz	l13754
  6745  001E18  0E65               	movlw	101
  6746  001E1A  5C2E               	subwf	_ms_count3,w,c	;volatile
  6747  001E1C  B0D8               	btfsc	status,0,c
  6748  001E1E  D00A               	goto	l13754
  6749  001E20  EC74  F039         	call	_PB1pressed	;wreg free
  6750  001E24  0900               	iorlw	0
  6751  001E26  A4D8               	btfss	status,2,c
  6752  001E28  D005               	goto	l13754
  6753  001E2A  EC60  F039         	call	_PB2pressed	;wreg free
  6754  001E2E  0900               	iorlw	0
  6755  001E30  B4D8               	btfsc	status,2,c
  6756  001E32  D7F0               	goto	l13748
  6757  001E34                     l13754:
  6758  001E34  0E00               	movlw	0
  6759  001E36  6E2F               	movwf	_ms_count3+1,c	;volatile
  6760  001E38  0E00               	movlw	0
  6761  001E3A  6E2E               	movwf	_ms_count3,c	;volatile
  6762  001E3C  EC74  F039         	call	_PB1pressed	;wreg free
  6763  001E40  0900               	iorlw	0
  6764  001E42  A4D8               	btfss	status,2,c
  6765  001E44  EF2F  F01C         	goto	l14966
  6766  001E48  EC60  F039         	call	_PB2pressed	;wreg free
  6767  001E4C  0900               	iorlw	0
  6768  001E4E  A4D8               	btfss	status,2,c
  6769  001E50  EF2F  F01C         	goto	l14966
  6770  001E54  D00E               	goto	l13764
  6771  001E56                     l811:
  6772  001E56  8C91               	bsf	3985,6,c	;volatile
  6773  001E58  0E59               	movlw	89
  6774  001E5A  ECC4  F039         	call	_Delay10TCYx
  6775  001E5E  0E59               	movlw	89
  6776  001E60  ECC4  F039         	call	_Delay10TCYx
  6777  001E64  9C91               	bcf	3985,6,c	;volatile
  6778  001E66  0E59               	movlw	89
  6779  001E68  ECC4  F039         	call	_Delay10TCYx
  6780  001E6C  0E59               	movlw	89
  6781  001E6E  ECC4  F039         	call	_Delay10TCYx
  6782  001E72                     l13764:
  6783  001E72  502F               	movf	_ms_count3+1,w,c	;volatile
  6784  001E74  E10E               	bnz	l13770
  6785  001E76  0EC9               	movlw	201
  6786  001E78  5C2E               	subwf	_ms_count3,w,c	;volatile
  6787  001E7A  B0D8               	btfsc	status,0,c
  6788  001E7C  D00A               	goto	l13770
  6789  001E7E  EC74  F039         	call	_PB1pressed	;wreg free
  6790  001E82  0900               	iorlw	0
  6791  001E84  A4D8               	btfss	status,2,c
  6792  001E86  D005               	goto	l13770
  6793  001E88  EC60  F039         	call	_PB2pressed	;wreg free
  6794  001E8C  0900               	iorlw	0
  6795  001E8E  B4D8               	btfsc	status,2,c
  6796  001E90  D7E2               	goto	l811
  6797  001E92                     l13770:
  6798  001E92  0E00               	movlw	0
  6799  001E94  6E2F               	movwf	_ms_count3+1,c	;volatile
  6800  001E96  0E00               	movlw	0
  6801  001E98  6E2E               	movwf	_ms_count3,c	;volatile
  6802  001E9A                     l13772:
  6803  001E9A  502F               	movf	_ms_count3+1,w,c	;volatile
  6804  001E9C  E10E               	bnz	l13778
  6805  001E9E  0E65               	movlw	101
  6806  001EA0  5C2E               	subwf	_ms_count3,w,c	;volatile
  6807  001EA2  B0D8               	btfsc	status,0,c
  6808  001EA4  D00A               	goto	l13778
  6809  001EA6  EC74  F039         	call	_PB1pressed	;wreg free
  6810  001EAA  0900               	iorlw	0
  6811  001EAC  A4D8               	btfss	status,2,c
  6812  001EAE  D005               	goto	l13778
  6813  001EB0  EC60  F039         	call	_PB2pressed	;wreg free
  6814  001EB4  0900               	iorlw	0
  6815  001EB6  B4D8               	btfsc	status,2,c
  6816  001EB8  D7F0               	goto	l13772
  6817  001EBA                     l13778:
  6818  001EBA  0E00               	movlw	0
  6819  001EBC  6E2F               	movwf	_ms_count3+1,c	;volatile
  6820  001EBE  0E00               	movlw	0
  6821  001EC0  6E2E               	movwf	_ms_count3,c	;volatile
  6822  001EC2  EC74  F039         	call	_PB1pressed	;wreg free
  6823  001EC6  0900               	iorlw	0
  6824  001EC8  A4D8               	btfss	status,2,c
  6825  001ECA  EF2F  F01C         	goto	l14966
  6826  001ECE  EC60  F039         	call	_PB2pressed	;wreg free
  6827  001ED2  0900               	iorlw	0
  6828  001ED4  A4D8               	btfss	status,2,c
  6829  001ED6  EF2F  F01C         	goto	l14966
  6830  001EDA  D00E               	goto	l13788
  6831  001EDC                     l824:
  6832  001EDC  8C91               	bsf	3985,6,c	;volatile
  6833  001EDE  0E77               	movlw	119
  6834  001EE0  ECC4  F039         	call	_Delay10TCYx
  6835  001EE4  0E77               	movlw	119
  6836  001EE6  ECC4  F039         	call	_Delay10TCYx
  6837  001EEA  9C91               	bcf	3985,6,c	;volatile
  6838  001EEC  0E77               	movlw	119
  6839  001EEE  ECC4  F039         	call	_Delay10TCYx
  6840  001EF2  0E77               	movlw	119
  6841  001EF4  ECC4  F039         	call	_Delay10TCYx
  6842  001EF8                     l13788:
  6843  001EF8  0E91               	movlw	145
  6844  001EFA  5C2E               	subwf	_ms_count3,w,c	;volatile
  6845  001EFC  0E01               	movlw	1
  6846  001EFE  582F               	subwfb	_ms_count3+1,w,c	;volatile
  6847  001F00  B0D8               	btfsc	status,0,c
  6848  001F02  D00A               	goto	l13794
  6849  001F04  EC74  F039         	call	_PB1pressed	;wreg free
  6850  001F08  0900               	iorlw	0
  6851  001F0A  A4D8               	btfss	status,2,c
  6852  001F0C  D005               	goto	l13794
  6853  001F0E  EC60  F039         	call	_PB2pressed	;wreg free
  6854  001F12  0900               	iorlw	0
  6855  001F14  B4D8               	btfsc	status,2,c
  6856  001F16  D7E2               	goto	l824
  6857  001F18                     l13794:
  6858  001F18  0E00               	movlw	0
  6859  001F1A  6E2F               	movwf	_ms_count3+1,c	;volatile
  6860  001F1C  0E00               	movlw	0
  6861  001F1E  6E2E               	movwf	_ms_count3,c	;volatile
  6862  001F20                     l13796:
  6863  001F20  502F               	movf	_ms_count3+1,w,c	;volatile
  6864  001F22  E10E               	bnz	l13802
  6865  001F24  0E65               	movlw	101
  6866  001F26  5C2E               	subwf	_ms_count3,w,c	;volatile
  6867  001F28  B0D8               	btfsc	status,0,c
  6868  001F2A  D00A               	goto	l13802
  6869  001F2C  EC74  F039         	call	_PB1pressed	;wreg free
  6870  001F30  0900               	iorlw	0
  6871  001F32  A4D8               	btfss	status,2,c
  6872  001F34  D005               	goto	l13802
  6873  001F36  EC60  F039         	call	_PB2pressed	;wreg free
  6874  001F3A  0900               	iorlw	0
  6875  001F3C  B4D8               	btfsc	status,2,c
  6876  001F3E  D7F0               	goto	l13796
  6877  001F40                     l13802:
  6878  001F40  0E00               	movlw	0
  6879  001F42  6E2F               	movwf	_ms_count3+1,c	;volatile
  6880  001F44  0E00               	movlw	0
  6881  001F46  6E2E               	movwf	_ms_count3,c	;volatile
  6882  001F48  EC74  F039         	call	_PB1pressed	;wreg free
  6883  001F4C  0900               	iorlw	0
  6884  001F4E  A4D8               	btfss	status,2,c
  6885  001F50  EF2F  F01C         	goto	l14966
  6886  001F54  EC60  F039         	call	_PB2pressed	;wreg free
  6887  001F58  0900               	iorlw	0
  6888  001F5A  A4D8               	btfss	status,2,c
  6889  001F5C  EF2F  F01C         	goto	l14966
  6890  001F60  D001               	goto	l13808
  6891  001F62                     l837:
  6892  001F62  9C91               	bcf	3985,6,c	;volatile
  6893  001F64                     l13808:
  6894  001F64  0E91               	movlw	145
  6895  001F66  5C2E               	subwf	_ms_count3,w,c	;volatile
  6896  001F68  0E01               	movlw	1
  6897  001F6A  582F               	subwfb	_ms_count3+1,w,c	;volatile
  6898  001F6C  B0D8               	btfsc	status,0,c
  6899  001F6E  D00A               	goto	l13814
  6900  001F70  EC74  F039         	call	_PB1pressed	;wreg free
  6901  001F74  0900               	iorlw	0
  6902  001F76  A4D8               	btfss	status,2,c
  6903  001F78  D005               	goto	l13814
  6904  001F7A  EC60  F039         	call	_PB2pressed	;wreg free
  6905  001F7E  0900               	iorlw	0
  6906  001F80  B4D8               	btfsc	status,2,c
  6907  001F82  D7EF               	goto	l837
  6908  001F84                     l13814:
  6909  001F84  0E00               	movlw	0
  6910  001F86  6E2F               	movwf	_ms_count3+1,c	;volatile
  6911  001F88  0E00               	movlw	0
  6912  001F8A  6E2E               	movwf	_ms_count3,c	;volatile
  6913  001F8C  EC74  F039         	call	_PB1pressed	;wreg free
  6914  001F90  0900               	iorlw	0
  6915  001F92  A4D8               	btfss	status,2,c
  6916  001F94  EF2F  F01C         	goto	l14966
  6917  001F98  EC60  F039         	call	_PB2pressed	;wreg free
  6918  001F9C  0900               	iorlw	0
  6919  001F9E  A4D8               	btfss	status,2,c
  6920  001FA0  EF2F  F01C         	goto	l14966
  6921  001FA4  D00E               	goto	l13824
  6922  001FA6                     l845:
  6923  001FA6  8C91               	bsf	3985,6,c	;volatile
  6924  001FA8  0E77               	movlw	119
  6925  001FAA  ECC4  F039         	call	_Delay10TCYx
  6926  001FAE  0E77               	movlw	119
  6927  001FB0  ECC4  F039         	call	_Delay10TCYx
  6928  001FB4  9C91               	bcf	3985,6,c	;volatile
  6929  001FB6  0E77               	movlw	119
  6930  001FB8  ECC4  F039         	call	_Delay10TCYx
  6931  001FBC  0E77               	movlw	119
  6932  001FBE  ECC4  F039         	call	_Delay10TCYx
  6933  001FC2                     l13824:
  6934  001FC2  502F               	movf	_ms_count3+1,w,c	;volatile
  6935  001FC4  E10E               	bnz	l13830
  6936  001FC6  0EC9               	movlw	201
  6937  001FC8  5C2E               	subwf	_ms_count3,w,c	;volatile
  6938  001FCA  B0D8               	btfsc	status,0,c
  6939  001FCC  D00A               	goto	l13830
  6940  001FCE  EC74  F039         	call	_PB1pressed	;wreg free
  6941  001FD2  0900               	iorlw	0
  6942  001FD4  A4D8               	btfss	status,2,c
  6943  001FD6  D005               	goto	l13830
  6944  001FD8  EC60  F039         	call	_PB2pressed	;wreg free
  6945  001FDC  0900               	iorlw	0
  6946  001FDE  B4D8               	btfsc	status,2,c
  6947  001FE0  D7E2               	goto	l845
  6948  001FE2                     l13830:
  6949  001FE2  0E00               	movlw	0
  6950  001FE4  6E2F               	movwf	_ms_count3+1,c	;volatile
  6951  001FE6  0E00               	movlw	0
  6952  001FE8  6E2E               	movwf	_ms_count3,c	;volatile
  6953  001FEA                     l13832:
  6954  001FEA  502F               	movf	_ms_count3+1,w,c	;volatile
  6955  001FEC  E10E               	bnz	l13838
  6956  001FEE  0E65               	movlw	101
  6957  001FF0  5C2E               	subwf	_ms_count3,w,c	;volatile
  6958  001FF2  B0D8               	btfsc	status,0,c
  6959  001FF4  D00A               	goto	l13838
  6960  001FF6  EC74  F039         	call	_PB1pressed	;wreg free
  6961  001FFA  0900               	iorlw	0
  6962  001FFC  A4D8               	btfss	status,2,c
  6963  001FFE  D005               	goto	l13838
  6964  002000  EC60  F039         	call	_PB2pressed	;wreg free
  6965  002004  0900               	iorlw	0
  6966  002006  B4D8               	btfsc	status,2,c
  6967  002008  D7F0               	goto	l13832
  6968  00200A                     l13838:
  6969  00200A  0E00               	movlw	0
  6970  00200C  6E2F               	movwf	_ms_count3+1,c	;volatile
  6971  00200E  0E00               	movlw	0
  6972  002010  6E2E               	movwf	_ms_count3,c	;volatile
  6973  002012  EC74  F039         	call	_PB1pressed	;wreg free
  6974  002016  0900               	iorlw	0
  6975  002018  A4D8               	btfss	status,2,c
  6976  00201A  EF2F  F01C         	goto	l14966
  6977  00201E  EC60  F039         	call	_PB2pressed	;wreg free
  6978  002022  0900               	iorlw	0
  6979  002024  A4D8               	btfss	status,2,c
  6980  002026  EF2F  F01C         	goto	l14966
  6981  00202A  D00E               	goto	l13848
  6982  00202C                     l858:
  6983  00202C  8C91               	bsf	3985,6,c	;volatile
  6984  00202E  0E47               	movlw	71
  6985  002030  ECC4  F039         	call	_Delay10TCYx
  6986  002034  0E47               	movlw	71
  6987  002036  ECC4  F039         	call	_Delay10TCYx
  6988  00203A  9C91               	bcf	3985,6,c	;volatile
  6989  00203C  0E47               	movlw	71
  6990  00203E  ECC4  F039         	call	_Delay10TCYx
  6991  002042  0E47               	movlw	71
  6992  002044  ECC4  F039         	call	_Delay10TCYx
  6993  002048                     l13848:
  6994  002048  502F               	movf	_ms_count3+1,w,c	;volatile
  6995  00204A  E10E               	bnz	l13854
  6996  00204C  0EC9               	movlw	201
  6997  00204E  5C2E               	subwf	_ms_count3,w,c	;volatile
  6998  002050  B0D8               	btfsc	status,0,c
  6999  002052  D00A               	goto	l13854
  7000  002054  EC74  F039         	call	_PB1pressed	;wreg free
  7001  002058  0900               	iorlw	0
  7002  00205A  A4D8               	btfss	status,2,c
  7003  00205C  D005               	goto	l13854
  7004  00205E  EC60  F039         	call	_PB2pressed	;wreg free
  7005  002062  0900               	iorlw	0
  7006  002064  B4D8               	btfsc	status,2,c
  7007  002066  D7E2               	goto	l858
  7008  002068                     l13854:
  7009  002068  0E00               	movlw	0
  7010  00206A  6E2F               	movwf	_ms_count3+1,c	;volatile
  7011  00206C  0E00               	movlw	0
  7012  00206E  6E2E               	movwf	_ms_count3,c	;volatile
  7013  002070                     l13856:
  7014  002070  502F               	movf	_ms_count3+1,w,c	;volatile
  7015  002072  E10E               	bnz	l13862
  7016  002074  0E65               	movlw	101
  7017  002076  5C2E               	subwf	_ms_count3,w,c	;volatile
  7018  002078  B0D8               	btfsc	status,0,c
  7019  00207A  D00A               	goto	l13862
  7020  00207C  EC74  F039         	call	_PB1pressed	;wreg free
  7021  002080  0900               	iorlw	0
  7022  002082  A4D8               	btfss	status,2,c
  7023  002084  D005               	goto	l13862
  7024  002086  EC60  F039         	call	_PB2pressed	;wreg free
  7025  00208A  0900               	iorlw	0
  7026  00208C  B4D8               	btfsc	status,2,c
  7027  00208E  D7F0               	goto	l13856
  7028  002090                     l13862:
  7029  002090  0E00               	movlw	0
  7030  002092  6E2F               	movwf	_ms_count3+1,c	;volatile
  7031  002094  0E00               	movlw	0
  7032  002096  6E2E               	movwf	_ms_count3,c	;volatile
  7033  002098  EC74  F039         	call	_PB1pressed	;wreg free
  7034  00209C  0900               	iorlw	0
  7035  00209E  A4D8               	btfss	status,2,c
  7036  0020A0  EF2F  F01C         	goto	l14966
  7037  0020A4  EC60  F039         	call	_PB2pressed	;wreg free
  7038  0020A8  0900               	iorlw	0
  7039  0020AA  A4D8               	btfss	status,2,c
  7040  0020AC  EF2F  F01C         	goto	l14966
  7041  0020B0  D00E               	goto	l13872
  7042  0020B2                     l871:
  7043  0020B2  8C91               	bsf	3985,6,c	;volatile
  7044  0020B4  0E50               	movlw	80
  7045  0020B6  ECC4  F039         	call	_Delay10TCYx
  7046  0020BA  0E50               	movlw	80
  7047  0020BC  ECC4  F039         	call	_Delay10TCYx
  7048  0020C0  9C91               	bcf	3985,6,c	;volatile
  7049  0020C2  0E50               	movlw	80
  7050  0020C4  ECC4  F039         	call	_Delay10TCYx
  7051  0020C8  0E50               	movlw	80
  7052  0020CA  ECC4  F039         	call	_Delay10TCYx
  7053  0020CE                     l13872:
  7054  0020CE  502F               	movf	_ms_count3+1,w,c	;volatile
  7055  0020D0  E10E               	bnz	l13878
  7056  0020D2  0EC9               	movlw	201
  7057  0020D4  5C2E               	subwf	_ms_count3,w,c	;volatile
  7058  0020D6  B0D8               	btfsc	status,0,c
  7059  0020D8  D00A               	goto	l13878
  7060  0020DA  EC74  F039         	call	_PB1pressed	;wreg free
  7061  0020DE  0900               	iorlw	0
  7062  0020E0  A4D8               	btfss	status,2,c
  7063  0020E2  D005               	goto	l13878
  7064  0020E4  EC60  F039         	call	_PB2pressed	;wreg free
  7065  0020E8  0900               	iorlw	0
  7066  0020EA  B4D8               	btfsc	status,2,c
  7067  0020EC  D7E2               	goto	l871
  7068  0020EE                     l13878:
  7069  0020EE  0E00               	movlw	0
  7070  0020F0  6E2F               	movwf	_ms_count3+1,c	;volatile
  7071  0020F2  0E00               	movlw	0
  7072  0020F4  6E2E               	movwf	_ms_count3,c	;volatile
  7073  0020F6                     l13880:
  7074  0020F6  502F               	movf	_ms_count3+1,w,c	;volatile
  7075  0020F8  E10E               	bnz	l13886
  7076  0020FA  0E65               	movlw	101
  7077  0020FC  5C2E               	subwf	_ms_count3,w,c	;volatile
  7078  0020FE  B0D8               	btfsc	status,0,c
  7079  002100  D00A               	goto	l13886
  7080  002102  EC74  F039         	call	_PB1pressed	;wreg free
  7081  002106  0900               	iorlw	0
  7082  002108  A4D8               	btfss	status,2,c
  7083  00210A  D005               	goto	l13886
  7084  00210C  EC60  F039         	call	_PB2pressed	;wreg free
  7085  002110  0900               	iorlw	0
  7086  002112  B4D8               	btfsc	status,2,c
  7087  002114  D7F0               	goto	l13880
  7088  002116                     l13886:
  7089  002116  0E00               	movlw	0
  7090  002118  6E2F               	movwf	_ms_count3+1,c	;volatile
  7091  00211A  0E00               	movlw	0
  7092  00211C  6E2E               	movwf	_ms_count3,c	;volatile
  7093  00211E  EC74  F039         	call	_PB1pressed	;wreg free
  7094  002122  0900               	iorlw	0
  7095  002124  A4D8               	btfss	status,2,c
  7096  002126  EF2F  F01C         	goto	l14966
  7097  00212A  EC60  F039         	call	_PB2pressed	;wreg free
  7098  00212E  0900               	iorlw	0
  7099  002130  A4D8               	btfss	status,2,c
  7100  002132  EF2F  F01C         	goto	l14966
  7101  002136  D00E               	goto	l13896
  7102  002138                     l884:
  7103  002138  8C91               	bsf	3985,6,c	;volatile
  7104  00213A  0E59               	movlw	89
  7105  00213C  ECC4  F039         	call	_Delay10TCYx
  7106  002140  0E59               	movlw	89
  7107  002142  ECC4  F039         	call	_Delay10TCYx
  7108  002146  9C91               	bcf	3985,6,c	;volatile
  7109  002148  0E59               	movlw	89
  7110  00214A  ECC4  F039         	call	_Delay10TCYx
  7111  00214E  0E59               	movlw	89
  7112  002150  ECC4  F039         	call	_Delay10TCYx
  7113  002154                     l13896:
  7114  002154  502F               	movf	_ms_count3+1,w,c	;volatile
  7115  002156  E10E               	bnz	l13902
  7116  002158  0EC9               	movlw	201
  7117  00215A  5C2E               	subwf	_ms_count3,w,c	;volatile
  7118  00215C  B0D8               	btfsc	status,0,c
  7119  00215E  D00A               	goto	l13902
  7120  002160  EC74  F039         	call	_PB1pressed	;wreg free
  7121  002164  0900               	iorlw	0
  7122  002166  A4D8               	btfss	status,2,c
  7123  002168  D005               	goto	l13902
  7124  00216A  EC60  F039         	call	_PB2pressed	;wreg free
  7125  00216E  0900               	iorlw	0
  7126  002170  B4D8               	btfsc	status,2,c
  7127  002172  D7E2               	goto	l884
  7128  002174                     l13902:
  7129  002174  0E00               	movlw	0
  7130  002176  6E2F               	movwf	_ms_count3+1,c	;volatile
  7131  002178  0E00               	movlw	0
  7132  00217A  6E2E               	movwf	_ms_count3,c	;volatile
  7133  00217C                     l13904:
  7134  00217C  502F               	movf	_ms_count3+1,w,c	;volatile
  7135  00217E  E10E               	bnz	l13910
  7136  002180  0E65               	movlw	101
  7137  002182  5C2E               	subwf	_ms_count3,w,c	;volatile
  7138  002184  B0D8               	btfsc	status,0,c
  7139  002186  D00A               	goto	l13910
  7140  002188  EC74  F039         	call	_PB1pressed	;wreg free
  7141  00218C  0900               	iorlw	0
  7142  00218E  A4D8               	btfss	status,2,c
  7143  002190  D005               	goto	l13910
  7144  002192  EC60  F039         	call	_PB2pressed	;wreg free
  7145  002196  0900               	iorlw	0
  7146  002198  B4D8               	btfsc	status,2,c
  7147  00219A  D7F0               	goto	l13904
  7148  00219C                     l13910:
  7149  00219C  0E00               	movlw	0
  7150  00219E  6E2F               	movwf	_ms_count3+1,c	;volatile
  7151  0021A0  0E00               	movlw	0
  7152  0021A2  6E2E               	movwf	_ms_count3,c	;volatile
  7153  0021A4  EC74  F039         	call	_PB1pressed	;wreg free
  7154  0021A8  0900               	iorlw	0
  7155  0021AA  A4D8               	btfss	status,2,c
  7156  0021AC  EF2F  F01C         	goto	l14966
  7157  0021B0  EC60  F039         	call	_PB2pressed	;wreg free
  7158  0021B4  0900               	iorlw	0
  7159  0021B6  A4D8               	btfss	status,2,c
  7160  0021B8  EF2F  F01C         	goto	l14966
  7161  0021BC  D00E               	goto	l13920
  7162  0021BE                     l897:
  7163  0021BE  8C91               	bsf	3985,6,c	;volatile
  7164  0021C0  0E6A               	movlw	106
  7165  0021C2  ECC4  F039         	call	_Delay10TCYx
  7166  0021C6  0E6A               	movlw	106
  7167  0021C8  ECC4  F039         	call	_Delay10TCYx
  7168  0021CC  9C91               	bcf	3985,6,c	;volatile
  7169  0021CE  0E6A               	movlw	106
  7170  0021D0  ECC4  F039         	call	_Delay10TCYx
  7171  0021D4  0E6A               	movlw	106
  7172  0021D6  ECC4  F039         	call	_Delay10TCYx
  7173  0021DA                     l13920:
  7174  0021DA  0E91               	movlw	145
  7175  0021DC  5C2E               	subwf	_ms_count3,w,c	;volatile
  7176  0021DE  0E01               	movlw	1
  7177  0021E0  582F               	subwfb	_ms_count3+1,w,c	;volatile
  7178  0021E2  B0D8               	btfsc	status,0,c
  7179  0021E4  D00A               	goto	l13926
  7180  0021E6  EC74  F039         	call	_PB1pressed	;wreg free
  7181  0021EA  0900               	iorlw	0
  7182  0021EC  A4D8               	btfss	status,2,c
  7183  0021EE  D005               	goto	l13926
  7184  0021F0  EC60  F039         	call	_PB2pressed	;wreg free
  7185  0021F4  0900               	iorlw	0
  7186  0021F6  B4D8               	btfsc	status,2,c
  7187  0021F8  D7E2               	goto	l897
  7188  0021FA                     l13926:
  7189  0021FA  0E00               	movlw	0
  7190  0021FC  6E2F               	movwf	_ms_count3+1,c	;volatile
  7191  0021FE  0E00               	movlw	0
  7192  002200  6E2E               	movwf	_ms_count3,c	;volatile
  7193  002202                     l13928:
  7194  002202  502F               	movf	_ms_count3+1,w,c	;volatile
  7195  002204  E10E               	bnz	l13934
  7196  002206  0E65               	movlw	101
  7197  002208  5C2E               	subwf	_ms_count3,w,c	;volatile
  7198  00220A  B0D8               	btfsc	status,0,c
  7199  00220C  D00A               	goto	l13934
  7200  00220E  EC74  F039         	call	_PB1pressed	;wreg free
  7201  002212  0900               	iorlw	0
  7202  002214  A4D8               	btfss	status,2,c
  7203  002216  D005               	goto	l13934
  7204  002218  EC60  F039         	call	_PB2pressed	;wreg free
  7205  00221C  0900               	iorlw	0
  7206  00221E  B4D8               	btfsc	status,2,c
  7207  002220  D7F0               	goto	l13928
  7208  002222                     l13934:
  7209  002222  0E00               	movlw	0
  7210  002224  6E2F               	movwf	_ms_count3+1,c	;volatile
  7211  002226  0E00               	movlw	0
  7212  002228  6E2E               	movwf	_ms_count3,c	;volatile
  7213  00222A  EC74  F039         	call	_PB1pressed	;wreg free
  7214  00222E  0900               	iorlw	0
  7215  002230  A4D8               	btfss	status,2,c
  7216  002232  EF2F  F01C         	goto	l14966
  7217  002236  EC60  F039         	call	_PB2pressed	;wreg free
  7218  00223A  0900               	iorlw	0
  7219  00223C  A4D8               	btfss	status,2,c
  7220  00223E  EF2F  F01C         	goto	l14966
  7221  002242  D001               	goto	l13940
  7222  002244                     l910:
  7223  002244  9C91               	bcf	3985,6,c	;volatile
  7224  002246                     l13940:
  7225  002246  0E91               	movlw	145
  7226  002248  5C2E               	subwf	_ms_count3,w,c	;volatile
  7227  00224A  0E01               	movlw	1
  7228  00224C  582F               	subwfb	_ms_count3+1,w,c	;volatile
  7229  00224E  B0D8               	btfsc	status,0,c
  7230  002250  D00A               	goto	l13946
  7231  002252  EC74  F039         	call	_PB1pressed	;wreg free
  7232  002256  0900               	iorlw	0
  7233  002258  A4D8               	btfss	status,2,c
  7234  00225A  D005               	goto	l13946
  7235  00225C  EC60  F039         	call	_PB2pressed	;wreg free
  7236  002260  0900               	iorlw	0
  7237  002262  B4D8               	btfsc	status,2,c
  7238  002264  D7EF               	goto	l910
  7239  002266                     l13946:
  7240  002266  0E00               	movlw	0
  7241  002268  6E2F               	movwf	_ms_count3+1,c	;volatile
  7242  00226A  0E00               	movlw	0
  7243  00226C  6E2E               	movwf	_ms_count3,c	;volatile
  7244  00226E  EC74  F039         	call	_PB1pressed	;wreg free
  7245  002272  0900               	iorlw	0
  7246  002274  A4D8               	btfss	status,2,c
  7247  002276  EF2F  F01C         	goto	l14966
  7248  00227A  EC60  F039         	call	_PB2pressed	;wreg free
  7249  00227E  0900               	iorlw	0
  7250  002280  A4D8               	btfss	status,2,c
  7251  002282  EF2F  F01C         	goto	l14966
  7252  002286  D00E               	goto	l13956
  7253  002288                     l918:
  7254  002288  8C91               	bsf	3985,6,c	;volatile
  7255  00228A  0E6A               	movlw	106
  7256  00228C  ECC4  F039         	call	_Delay10TCYx
  7257  002290  0E6A               	movlw	106
  7258  002292  ECC4  F039         	call	_Delay10TCYx
  7259  002296  9C91               	bcf	3985,6,c	;volatile
  7260  002298  0E6A               	movlw	106
  7261  00229A  ECC4  F039         	call	_Delay10TCYx
  7262  00229E  0E6A               	movlw	106
  7263  0022A0  ECC4  F039         	call	_Delay10TCYx
  7264  0022A4                     l13956:
  7265  0022A4  502F               	movf	_ms_count3+1,w,c	;volatile
  7266  0022A6  E10E               	bnz	l13962
  7267  0022A8  0EC9               	movlw	201
  7268  0022AA  5C2E               	subwf	_ms_count3,w,c	;volatile
  7269  0022AC  B0D8               	btfsc	status,0,c
  7270  0022AE  D00A               	goto	l13962
  7271  0022B0  EC74  F039         	call	_PB1pressed	;wreg free
  7272  0022B4  0900               	iorlw	0
  7273  0022B6  A4D8               	btfss	status,2,c
  7274  0022B8  D005               	goto	l13962
  7275  0022BA  EC60  F039         	call	_PB2pressed	;wreg free
  7276  0022BE  0900               	iorlw	0
  7277  0022C0  B4D8               	btfsc	status,2,c
  7278  0022C2  D7E2               	goto	l918
  7279  0022C4                     l13962:
  7280  0022C4  0E00               	movlw	0
  7281  0022C6  6E2F               	movwf	_ms_count3+1,c	;volatile
  7282  0022C8  0E00               	movlw	0
  7283  0022CA  6E2E               	movwf	_ms_count3,c	;volatile
  7284  0022CC                     l13964:
  7285  0022CC  502F               	movf	_ms_count3+1,w,c	;volatile
  7286  0022CE  E10E               	bnz	l13970
  7287  0022D0  0E65               	movlw	101
  7288  0022D2  5C2E               	subwf	_ms_count3,w,c	;volatile
  7289  0022D4  B0D8               	btfsc	status,0,c
  7290  0022D6  D00A               	goto	l13970
  7291  0022D8  EC74  F039         	call	_PB1pressed	;wreg free
  7292  0022DC  0900               	iorlw	0
  7293  0022DE  A4D8               	btfss	status,2,c
  7294  0022E0  D005               	goto	l13970
  7295  0022E2  EC60  F039         	call	_PB2pressed	;wreg free
  7296  0022E6  0900               	iorlw	0
  7297  0022E8  B4D8               	btfsc	status,2,c
  7298  0022EA  D7F0               	goto	l13964
  7299  0022EC                     l13970:
  7300  0022EC  0E00               	movlw	0
  7301  0022EE  6E2F               	movwf	_ms_count3+1,c	;volatile
  7302  0022F0  0E00               	movlw	0
  7303  0022F2  6E2E               	movwf	_ms_count3,c	;volatile
  7304  0022F4  EC74  F039         	call	_PB1pressed	;wreg free
  7305  0022F8  0900               	iorlw	0
  7306  0022FA  A4D8               	btfss	status,2,c
  7307  0022FC  EF2F  F01C         	goto	l14966
  7308  002300  EC60  F039         	call	_PB2pressed	;wreg free
  7309  002304  0900               	iorlw	0
  7310  002306  A4D8               	btfss	status,2,c
  7311  002308  EF2F  F01C         	goto	l14966
  7312  00230C  D00E               	goto	l13980
  7313  00230E                     l931:
  7314  00230E  8C91               	bsf	3985,6,c	;volatile
  7315  002310  0E6A               	movlw	106
  7316  002312  ECC4  F039         	call	_Delay10TCYx
  7317  002316  0E6A               	movlw	106
  7318  002318  ECC4  F039         	call	_Delay10TCYx
  7319  00231C  9C91               	bcf	3985,6,c	;volatile
  7320  00231E  0E6A               	movlw	106
  7321  002320  ECC4  F039         	call	_Delay10TCYx
  7322  002324  0E6A               	movlw	106
  7323  002326  ECC4  F039         	call	_Delay10TCYx
  7324  00232A                     l13980:
  7325  00232A  502F               	movf	_ms_count3+1,w,c	;volatile
  7326  00232C  E10E               	bnz	l13986
  7327  00232E  0EC9               	movlw	201
  7328  002330  5C2E               	subwf	_ms_count3,w,c	;volatile
  7329  002332  B0D8               	btfsc	status,0,c
  7330  002334  D00A               	goto	l13986
  7331  002336  EC74  F039         	call	_PB1pressed	;wreg free
  7332  00233A  0900               	iorlw	0
  7333  00233C  A4D8               	btfss	status,2,c
  7334  00233E  D005               	goto	l13986
  7335  002340  EC60  F039         	call	_PB2pressed	;wreg free
  7336  002344  0900               	iorlw	0
  7337  002346  B4D8               	btfsc	status,2,c
  7338  002348  D7E2               	goto	l931
  7339  00234A                     l13986:
  7340  00234A  0E00               	movlw	0
  7341  00234C  6E2F               	movwf	_ms_count3+1,c	;volatile
  7342  00234E  0E00               	movlw	0
  7343  002350  6E2E               	movwf	_ms_count3,c	;volatile
  7344  002352                     l13988:
  7345  002352  502F               	movf	_ms_count3+1,w,c	;volatile
  7346  002354  E10E               	bnz	l13994
  7347  002356  0E65               	movlw	101
  7348  002358  5C2E               	subwf	_ms_count3,w,c	;volatile
  7349  00235A  B0D8               	btfsc	status,0,c
  7350  00235C  D00A               	goto	l13994
  7351  00235E  EC74  F039         	call	_PB1pressed	;wreg free
  7352  002362  0900               	iorlw	0
  7353  002364  A4D8               	btfss	status,2,c
  7354  002366  D005               	goto	l13994
  7355  002368  EC60  F039         	call	_PB2pressed	;wreg free
  7356  00236C  0900               	iorlw	0
  7357  00236E  B4D8               	btfsc	status,2,c
  7358  002370  D7F0               	goto	l13988
  7359  002372                     l13994:
  7360  002372  0E00               	movlw	0
  7361  002374  6E2F               	movwf	_ms_count3+1,c	;volatile
  7362  002376  0E00               	movlw	0
  7363  002378  6E2E               	movwf	_ms_count3,c	;volatile
  7364  00237A  EC74  F039         	call	_PB1pressed	;wreg free
  7365  00237E  0900               	iorlw	0
  7366  002380  A4D8               	btfss	status,2,c
  7367  002382  EF2F  F01C         	goto	l14966
  7368  002386  EC60  F039         	call	_PB2pressed	;wreg free
  7369  00238A  0900               	iorlw	0
  7370  00238C  A4D8               	btfss	status,2,c
  7371  00238E  EF2F  F01C         	goto	l14966
  7372  002392  D00E               	goto	l14004
  7373  002394                     l944:
  7374  002394  8C91               	bsf	3985,6,c	;volatile
  7375  002396  0E43               	movlw	67
  7376  002398  ECC4  F039         	call	_Delay10TCYx
  7377  00239C  0E43               	movlw	67
  7378  00239E  ECC4  F039         	call	_Delay10TCYx
  7379  0023A2  9C91               	bcf	3985,6,c	;volatile
  7380  0023A4  0E43               	movlw	67
  7381  0023A6  ECC4  F039         	call	_Delay10TCYx
  7382  0023AA  0E43               	movlw	67
  7383  0023AC  ECC4  F039         	call	_Delay10TCYx
  7384  0023B0                     l14004:
  7385  0023B0  502F               	movf	_ms_count3+1,w,c	;volatile
  7386  0023B2  E10E               	bnz	l14010
  7387  0023B4  0EC9               	movlw	201
  7388  0023B6  5C2E               	subwf	_ms_count3,w,c	;volatile
  7389  0023B8  B0D8               	btfsc	status,0,c
  7390  0023BA  D00A               	goto	l14010
  7391  0023BC  EC74  F039         	call	_PB1pressed	;wreg free
  7392  0023C0  0900               	iorlw	0
  7393  0023C2  A4D8               	btfss	status,2,c
  7394  0023C4  D005               	goto	l14010
  7395  0023C6  EC60  F039         	call	_PB2pressed	;wreg free
  7396  0023CA  0900               	iorlw	0
  7397  0023CC  B4D8               	btfsc	status,2,c
  7398  0023CE  D7E2               	goto	l944
  7399  0023D0                     l14010:
  7400  0023D0  0E00               	movlw	0
  7401  0023D2  6E2F               	movwf	_ms_count3+1,c	;volatile
  7402  0023D4  0E00               	movlw	0
  7403  0023D6  6E2E               	movwf	_ms_count3,c	;volatile
  7404  0023D8                     l14012:
  7405  0023D8  502F               	movf	_ms_count3+1,w,c	;volatile
  7406  0023DA  E10E               	bnz	l14018
  7407  0023DC  0E65               	movlw	101
  7408  0023DE  5C2E               	subwf	_ms_count3,w,c	;volatile
  7409  0023E0  B0D8               	btfsc	status,0,c
  7410  0023E2  D00A               	goto	l14018
  7411  0023E4  EC74  F039         	call	_PB1pressed	;wreg free
  7412  0023E8  0900               	iorlw	0
  7413  0023EA  A4D8               	btfss	status,2,c
  7414  0023EC  D005               	goto	l14018
  7415  0023EE  EC60  F039         	call	_PB2pressed	;wreg free
  7416  0023F2  0900               	iorlw	0
  7417  0023F4  B4D8               	btfsc	status,2,c
  7418  0023F6  D7F0               	goto	l14012
  7419  0023F8                     l14018:
  7420  0023F8  0E00               	movlw	0
  7421  0023FA  6E2F               	movwf	_ms_count3+1,c	;volatile
  7422  0023FC  0E00               	movlw	0
  7423  0023FE  6E2E               	movwf	_ms_count3,c	;volatile
  7424  002400  EC74  F039         	call	_PB1pressed	;wreg free
  7425  002404  0900               	iorlw	0
  7426  002406  A4D8               	btfss	status,2,c
  7427  002408  EF2F  F01C         	goto	l14966
  7428  00240C  EC60  F039         	call	_PB2pressed	;wreg free
  7429  002410  0900               	iorlw	0
  7430  002412  A4D8               	btfss	status,2,c
  7431  002414  EF2F  F01C         	goto	l14966
  7432  002418  D00E               	goto	l14028
  7433  00241A                     l957:
  7434  00241A  8C91               	bsf	3985,6,c	;volatile
  7435  00241C  0E47               	movlw	71
  7436  00241E  ECC4  F039         	call	_Delay10TCYx
  7437  002422  0E47               	movlw	71
  7438  002424  ECC4  F039         	call	_Delay10TCYx
  7439  002428  9C91               	bcf	3985,6,c	;volatile
  7440  00242A  0E47               	movlw	71
  7441  00242C  ECC4  F039         	call	_Delay10TCYx
  7442  002430  0E47               	movlw	71
  7443  002432  ECC4  F039         	call	_Delay10TCYx
  7444  002436                     l14028:
  7445  002436  502F               	movf	_ms_count3+1,w,c	;volatile
  7446  002438  E10E               	bnz	l14034
  7447  00243A  0EC9               	movlw	201
  7448  00243C  5C2E               	subwf	_ms_count3,w,c	;volatile
  7449  00243E  B0D8               	btfsc	status,0,c
  7450  002440  D00A               	goto	l14034
  7451  002442  EC74  F039         	call	_PB1pressed	;wreg free
  7452  002446  0900               	iorlw	0
  7453  002448  A4D8               	btfss	status,2,c
  7454  00244A  D005               	goto	l14034
  7455  00244C  EC60  F039         	call	_PB2pressed	;wreg free
  7456  002450  0900               	iorlw	0
  7457  002452  B4D8               	btfsc	status,2,c
  7458  002454  D7E2               	goto	l957
  7459  002456                     l14034:
  7460  002456  0E00               	movlw	0
  7461  002458  6E2F               	movwf	_ms_count3+1,c	;volatile
  7462  00245A  0E00               	movlw	0
  7463  00245C  6E2E               	movwf	_ms_count3,c	;volatile
  7464  00245E                     l14036:
  7465  00245E  502F               	movf	_ms_count3+1,w,c	;volatile
  7466  002460  E10E               	bnz	l14042
  7467  002462  0E65               	movlw	101
  7468  002464  5C2E               	subwf	_ms_count3,w,c	;volatile
  7469  002466  B0D8               	btfsc	status,0,c
  7470  002468  D00A               	goto	l14042
  7471  00246A  EC74  F039         	call	_PB1pressed	;wreg free
  7472  00246E  0900               	iorlw	0
  7473  002470  A4D8               	btfss	status,2,c
  7474  002472  D005               	goto	l14042
  7475  002474  EC60  F039         	call	_PB2pressed	;wreg free
  7476  002478  0900               	iorlw	0
  7477  00247A  B4D8               	btfsc	status,2,c
  7478  00247C  D7F0               	goto	l14036
  7479  00247E                     l14042:
  7480  00247E  0E00               	movlw	0
  7481  002480  6E2F               	movwf	_ms_count3+1,c	;volatile
  7482  002482  0E00               	movlw	0
  7483  002484  6E2E               	movwf	_ms_count3,c	;volatile
  7484  002486  EC74  F039         	call	_PB1pressed	;wreg free
  7485  00248A  0900               	iorlw	0
  7486  00248C  A4D8               	btfss	status,2,c
  7487  00248E  EF2F  F01C         	goto	l14966
  7488  002492  EC60  F039         	call	_PB2pressed	;wreg free
  7489  002496  0900               	iorlw	0
  7490  002498  A4D8               	btfss	status,2,c
  7491  00249A  EF2F  F01C         	goto	l14966
  7492  00249E  D00E               	goto	l14052
  7493  0024A0                     l970:
  7494  0024A0  8C91               	bsf	3985,6,c	;volatile
  7495  0024A2  0E50               	movlw	80
  7496  0024A4  ECC4  F039         	call	_Delay10TCYx
  7497  0024A8  0E50               	movlw	80
  7498  0024AA  ECC4  F039         	call	_Delay10TCYx
  7499  0024AE  9C91               	bcf	3985,6,c	;volatile
  7500  0024B0  0E50               	movlw	80
  7501  0024B2  ECC4  F039         	call	_Delay10TCYx
  7502  0024B6  0E50               	movlw	80
  7503  0024B8  ECC4  F039         	call	_Delay10TCYx
  7504  0024BC                     l14052:
  7505  0024BC  502F               	movf	_ms_count3+1,w,c	;volatile
  7506  0024BE  E10E               	bnz	l14058
  7507  0024C0  0EC9               	movlw	201
  7508  0024C2  5C2E               	subwf	_ms_count3,w,c	;volatile
  7509  0024C4  B0D8               	btfsc	status,0,c
  7510  0024C6  D00A               	goto	l14058
  7511  0024C8  EC74  F039         	call	_PB1pressed	;wreg free
  7512  0024CC  0900               	iorlw	0
  7513  0024CE  A4D8               	btfss	status,2,c
  7514  0024D0  D005               	goto	l14058
  7515  0024D2  EC60  F039         	call	_PB2pressed	;wreg free
  7516  0024D6  0900               	iorlw	0
  7517  0024D8  B4D8               	btfsc	status,2,c
  7518  0024DA  D7E2               	goto	l970
  7519  0024DC                     l14058:
  7520  0024DC  0E00               	movlw	0
  7521  0024DE  6E2F               	movwf	_ms_count3+1,c	;volatile
  7522  0024E0  0E00               	movlw	0
  7523  0024E2  6E2E               	movwf	_ms_count3,c	;volatile
  7524  0024E4                     l14060:
  7525  0024E4  502F               	movf	_ms_count3+1,w,c	;volatile
  7526  0024E6  E10E               	bnz	l14066
  7527  0024E8  0E65               	movlw	101
  7528  0024EA  5C2E               	subwf	_ms_count3,w,c	;volatile
  7529  0024EC  B0D8               	btfsc	status,0,c
  7530  0024EE  D00A               	goto	l14066
  7531  0024F0  EC74  F039         	call	_PB1pressed	;wreg free
  7532  0024F4  0900               	iorlw	0
  7533  0024F6  A4D8               	btfss	status,2,c
  7534  0024F8  D005               	goto	l14066
  7535  0024FA  EC60  F039         	call	_PB2pressed	;wreg free
  7536  0024FE  0900               	iorlw	0
  7537  002500  B4D8               	btfsc	status,2,c
  7538  002502  D7F0               	goto	l14060
  7539  002504                     l14066:
  7540  002504  0E00               	movlw	0
  7541  002506  6E2F               	movwf	_ms_count3+1,c	;volatile
  7542  002508  0E00               	movlw	0
  7543  00250A  6E2E               	movwf	_ms_count3,c	;volatile
  7544  00250C  EC74  F039         	call	_PB1pressed	;wreg free
  7545  002510  0900               	iorlw	0
  7546  002512  A4D8               	btfss	status,2,c
  7547  002514  EF2F  F01C         	goto	l14966
  7548  002518  EC60  F039         	call	_PB2pressed	;wreg free
  7549  00251C  0900               	iorlw	0
  7550  00251E  A4D8               	btfss	status,2,c
  7551  002520  EF2F  F01C         	goto	l14966
  7552  002524  D00E               	goto	l14076
  7553  002526                     l983:
  7554  002526  8C91               	bsf	3985,6,c	;volatile
  7555  002528  0E3C               	movlw	60
  7556  00252A  ECC4  F039         	call	_Delay10TCYx
  7557  00252E  0E3C               	movlw	60
  7558  002530  ECC4  F039         	call	_Delay10TCYx
  7559  002534  9C91               	bcf	3985,6,c	;volatile
  7560  002536  0E3C               	movlw	60
  7561  002538  ECC4  F039         	call	_Delay10TCYx
  7562  00253C  0E3C               	movlw	60
  7563  00253E  ECC4  F039         	call	_Delay10TCYx
  7564  002542                     l14076:
  7565  002542  502F               	movf	_ms_count3+1,w,c	;volatile
  7566  002544  E10E               	bnz	l14082
  7567  002546  0EC9               	movlw	201
  7568  002548  5C2E               	subwf	_ms_count3,w,c	;volatile
  7569  00254A  B0D8               	btfsc	status,0,c
  7570  00254C  D00A               	goto	l14082
  7571  00254E  EC74  F039         	call	_PB1pressed	;wreg free
  7572  002552  0900               	iorlw	0
  7573  002554  A4D8               	btfss	status,2,c
  7574  002556  D005               	goto	l14082
  7575  002558  EC60  F039         	call	_PB2pressed	;wreg free
  7576  00255C  0900               	iorlw	0
  7577  00255E  B4D8               	btfsc	status,2,c
  7578  002560  D7E2               	goto	l983
  7579  002562                     l14082:
  7580  002562  0E00               	movlw	0
  7581  002564  6E2F               	movwf	_ms_count3+1,c	;volatile
  7582  002566  0E00               	movlw	0
  7583  002568  6E2E               	movwf	_ms_count3,c	;volatile
  7584  00256A                     l14084:
  7585  00256A  502F               	movf	_ms_count3+1,w,c	;volatile
  7586  00256C  E10E               	bnz	l14090
  7587  00256E  0E65               	movlw	101
  7588  002570  5C2E               	subwf	_ms_count3,w,c	;volatile
  7589  002572  B0D8               	btfsc	status,0,c
  7590  002574  D00A               	goto	l14090
  7591  002576  EC74  F039         	call	_PB1pressed	;wreg free
  7592  00257A  0900               	iorlw	0
  7593  00257C  A4D8               	btfss	status,2,c
  7594  00257E  D005               	goto	l14090
  7595  002580  EC60  F039         	call	_PB2pressed	;wreg free
  7596  002584  0900               	iorlw	0
  7597  002586  B4D8               	btfsc	status,2,c
  7598  002588  D7F0               	goto	l14084
  7599  00258A                     l14090:
  7600  00258A  0E00               	movlw	0
  7601  00258C  6E2F               	movwf	_ms_count3+1,c	;volatile
  7602  00258E  0E00               	movlw	0
  7603  002590  6E2E               	movwf	_ms_count3,c	;volatile
  7604  002592  EC74  F039         	call	_PB1pressed	;wreg free
  7605  002596  0900               	iorlw	0
  7606  002598  A4D8               	btfss	status,2,c
  7607  00259A  EF2F  F01C         	goto	l14966
  7608  00259E  EC60  F039         	call	_PB2pressed	;wreg free
  7609  0025A2  0900               	iorlw	0
  7610  0025A4  A4D8               	btfss	status,2,c
  7611  0025A6  EF2F  F01C         	goto	l14966
  7612  0025AA  D00E               	goto	l14100
  7613  0025AC                     l996:
  7614  0025AC  8C91               	bsf	3985,6,c	;volatile
  7615  0025AE  0E3C               	movlw	60
  7616  0025B0  ECC4  F039         	call	_Delay10TCYx
  7617  0025B4  0E3C               	movlw	60
  7618  0025B6  ECC4  F039         	call	_Delay10TCYx
  7619  0025BA  9C91               	bcf	3985,6,c	;volatile
  7620  0025BC  0E3C               	movlw	60
  7621  0025BE  ECC4  F039         	call	_Delay10TCYx
  7622  0025C2  0E3C               	movlw	60
  7623  0025C4  ECC4  F039         	call	_Delay10TCYx
  7624  0025C8                     l14100:
  7625  0025C8  502F               	movf	_ms_count3+1,w,c	;volatile
  7626  0025CA  E10E               	bnz	l14106
  7627  0025CC  0EC9               	movlw	201
  7628  0025CE  5C2E               	subwf	_ms_count3,w,c	;volatile
  7629  0025D0  B0D8               	btfsc	status,0,c
  7630  0025D2  D00A               	goto	l14106
  7631  0025D4  EC74  F039         	call	_PB1pressed	;wreg free
  7632  0025D8  0900               	iorlw	0
  7633  0025DA  A4D8               	btfss	status,2,c
  7634  0025DC  D005               	goto	l14106
  7635  0025DE  EC60  F039         	call	_PB2pressed	;wreg free
  7636  0025E2  0900               	iorlw	0
  7637  0025E4  B4D8               	btfsc	status,2,c
  7638  0025E6  D7E2               	goto	l996
  7639  0025E8                     l14106:
  7640  0025E8  0E00               	movlw	0
  7641  0025EA  6E2F               	movwf	_ms_count3+1,c	;volatile
  7642  0025EC  0E00               	movlw	0
  7643  0025EE  6E2E               	movwf	_ms_count3,c	;volatile
  7644  0025F0                     l14108:
  7645  0025F0  502F               	movf	_ms_count3+1,w,c	;volatile
  7646  0025F2  E10E               	bnz	l14114
  7647  0025F4  0E65               	movlw	101
  7648  0025F6  5C2E               	subwf	_ms_count3,w,c	;volatile
  7649  0025F8  B0D8               	btfsc	status,0,c
  7650  0025FA  D00A               	goto	l14114
  7651  0025FC  EC74  F039         	call	_PB1pressed	;wreg free
  7652  002600  0900               	iorlw	0
  7653  002602  A4D8               	btfss	status,2,c
  7654  002604  D005               	goto	l14114
  7655  002606  EC60  F039         	call	_PB2pressed	;wreg free
  7656  00260A  0900               	iorlw	0
  7657  00260C  B4D8               	btfsc	status,2,c
  7658  00260E  D7F0               	goto	l14108
  7659  002610                     l14114:
  7660  002610  0E00               	movlw	0
  7661  002612  6E2F               	movwf	_ms_count3+1,c	;volatile
  7662  002614  0E00               	movlw	0
  7663  002616  6E2E               	movwf	_ms_count3,c	;volatile
  7664  002618  EC74  F039         	call	_PB1pressed	;wreg free
  7665  00261C  0900               	iorlw	0
  7666  00261E  A4D8               	btfss	status,2,c
  7667  002620  EF2F  F01C         	goto	l14966
  7668  002624  EC60  F039         	call	_PB2pressed	;wreg free
  7669  002628  0900               	iorlw	0
  7670  00262A  A4D8               	btfss	status,2,c
  7671  00262C  EF2F  F01C         	goto	l14966
  7672  002630  D00E               	goto	l14124
  7673  002632                     l1009:
  7674  002632  8C91               	bsf	3985,6,c	;volatile
  7675  002634  0E3C               	movlw	60
  7676  002636  ECC4  F039         	call	_Delay10TCYx
  7677  00263A  0E3C               	movlw	60
  7678  00263C  ECC4  F039         	call	_Delay10TCYx
  7679  002640  9C91               	bcf	3985,6,c	;volatile
  7680  002642  0E3C               	movlw	60
  7681  002644  ECC4  F039         	call	_Delay10TCYx
  7682  002648  0E3C               	movlw	60
  7683  00264A  ECC4  F039         	call	_Delay10TCYx
  7684  00264E                     l14124:
  7685  00264E  502F               	movf	_ms_count3+1,w,c	;volatile
  7686  002650  E10E               	bnz	l14130
  7687  002652  0EC9               	movlw	201
  7688  002654  5C2E               	subwf	_ms_count3,w,c	;volatile
  7689  002656  B0D8               	btfsc	status,0,c
  7690  002658  D00A               	goto	l14130
  7691  00265A  EC74  F039         	call	_PB1pressed	;wreg free
  7692  00265E  0900               	iorlw	0
  7693  002660  A4D8               	btfss	status,2,c
  7694  002662  D005               	goto	l14130
  7695  002664  EC60  F039         	call	_PB2pressed	;wreg free
  7696  002668  0900               	iorlw	0
  7697  00266A  B4D8               	btfsc	status,2,c
  7698  00266C  D7E2               	goto	l1009
  7699  00266E                     l14130:
  7700  00266E  0E00               	movlw	0
  7701  002670  6E2F               	movwf	_ms_count3+1,c	;volatile
  7702  002672  0E00               	movlw	0
  7703  002674  6E2E               	movwf	_ms_count3,c	;volatile
  7704  002676                     l14132:
  7705  002676  502F               	movf	_ms_count3+1,w,c	;volatile
  7706  002678  E10E               	bnz	l14138
  7707  00267A  0E65               	movlw	101
  7708  00267C  5C2E               	subwf	_ms_count3,w,c	;volatile
  7709  00267E  B0D8               	btfsc	status,0,c
  7710  002680  D00A               	goto	l14138
  7711  002682  EC74  F039         	call	_PB1pressed	;wreg free
  7712  002686  0900               	iorlw	0
  7713  002688  A4D8               	btfss	status,2,c
  7714  00268A  D005               	goto	l14138
  7715  00268C  EC60  F039         	call	_PB2pressed	;wreg free
  7716  002690  0900               	iorlw	0
  7717  002692  B4D8               	btfsc	status,2,c
  7718  002694  D7F0               	goto	l14132
  7719  002696                     l14138:
  7720  002696  0E00               	movlw	0
  7721  002698  6E2F               	movwf	_ms_count3+1,c	;volatile
  7722  00269A  0E00               	movlw	0
  7723  00269C  6E2E               	movwf	_ms_count3,c	;volatile
  7724  00269E  EC74  F039         	call	_PB1pressed	;wreg free
  7725  0026A2  0900               	iorlw	0
  7726  0026A4  A4D8               	btfss	status,2,c
  7727  0026A6  EF2F  F01C         	goto	l14966
  7728  0026AA  EC60  F039         	call	_PB2pressed	;wreg free
  7729  0026AE  0900               	iorlw	0
  7730  0026B0  A4D8               	btfss	status,2,c
  7731  0026B2  EF2F  F01C         	goto	l14966
  7732  0026B6  D00E               	goto	l14148
  7733  0026B8                     l1022:
  7734  0026B8  8C91               	bsf	3985,6,c	;volatile
  7735  0026BA  0E3C               	movlw	60
  7736  0026BC  ECC4  F039         	call	_Delay10TCYx
  7737  0026C0  0E3C               	movlw	60
  7738  0026C2  ECC4  F039         	call	_Delay10TCYx
  7739  0026C6  9C91               	bcf	3985,6,c	;volatile
  7740  0026C8  0E3C               	movlw	60
  7741  0026CA  ECC4  F039         	call	_Delay10TCYx
  7742  0026CE  0E3C               	movlw	60
  7743  0026D0  ECC4  F039         	call	_Delay10TCYx
  7744  0026D4                     l14148:
  7745  0026D4  502F               	movf	_ms_count3+1,w,c	;volatile
  7746  0026D6  E10E               	bnz	l14154
  7747  0026D8  0E65               	movlw	101
  7748  0026DA  5C2E               	subwf	_ms_count3,w,c	;volatile
  7749  0026DC  B0D8               	btfsc	status,0,c
  7750  0026DE  D00A               	goto	l14154
  7751  0026E0  EC74  F039         	call	_PB1pressed	;wreg free
  7752  0026E4  0900               	iorlw	0
  7753  0026E6  A4D8               	btfss	status,2,c
  7754  0026E8  D005               	goto	l14154
  7755  0026EA  EC60  F039         	call	_PB2pressed	;wreg free
  7756  0026EE  0900               	iorlw	0
  7757  0026F0  B4D8               	btfsc	status,2,c
  7758  0026F2  D7E2               	goto	l1022
  7759  0026F4                     l14154:
  7760  0026F4  0E00               	movlw	0
  7761  0026F6  6E2F               	movwf	_ms_count3+1,c	;volatile
  7762  0026F8  0E00               	movlw	0
  7763  0026FA  6E2E               	movwf	_ms_count3,c	;volatile
  7764  0026FC                     l14156:
  7765  0026FC  502F               	movf	_ms_count3+1,w,c	;volatile
  7766  0026FE  E10E               	bnz	l14162
  7767  002700  0E33               	movlw	51
  7768  002702  5C2E               	subwf	_ms_count3,w,c	;volatile
  7769  002704  B0D8               	btfsc	status,0,c
  7770  002706  D00A               	goto	l14162
  7771  002708  EC74  F039         	call	_PB1pressed	;wreg free
  7772  00270C  0900               	iorlw	0
  7773  00270E  A4D8               	btfss	status,2,c
  7774  002710  D005               	goto	l14162
  7775  002712  EC60  F039         	call	_PB2pressed	;wreg free
  7776  002716  0900               	iorlw	0
  7777  002718  B4D8               	btfsc	status,2,c
  7778  00271A  D7F0               	goto	l14156
  7779  00271C                     l14162:
  7780  00271C  0E00               	movlw	0
  7781  00271E  6E2F               	movwf	_ms_count3+1,c	;volatile
  7782  002720  0E00               	movlw	0
  7783  002722  6E2E               	movwf	_ms_count3,c	;volatile
  7784  002724  EC74  F039         	call	_PB1pressed	;wreg free
  7785  002728  0900               	iorlw	0
  7786  00272A  A4D8               	btfss	status,2,c
  7787  00272C  EF2F  F01C         	goto	l14966
  7788  002730  EC60  F039         	call	_PB2pressed	;wreg free
  7789  002734  0900               	iorlw	0
  7790  002736  A4D8               	btfss	status,2,c
  7791  002738  EF2F  F01C         	goto	l14966
  7792  00273C  D00E               	goto	l14172
  7793  00273E                     l1035:
  7794  00273E  8C91               	bsf	3985,6,c	;volatile
  7795  002740  0E3C               	movlw	60
  7796  002742  ECC4  F039         	call	_Delay10TCYx
  7797  002746  0E3C               	movlw	60
  7798  002748  ECC4  F039         	call	_Delay10TCYx
  7799  00274C  9C91               	bcf	3985,6,c	;volatile
  7800  00274E  0E3C               	movlw	60
  7801  002750  ECC4  F039         	call	_Delay10TCYx
  7802  002754  0E3C               	movlw	60
  7803  002756  ECC4  F039         	call	_Delay10TCYx
  7804  00275A                     l14172:
  7805  00275A  502F               	movf	_ms_count3+1,w,c	;volatile
  7806  00275C  E10E               	bnz	l14178
  7807  00275E  0E65               	movlw	101
  7808  002760  5C2E               	subwf	_ms_count3,w,c	;volatile
  7809  002762  B0D8               	btfsc	status,0,c
  7810  002764  D00A               	goto	l14178
  7811  002766  EC74  F039         	call	_PB1pressed	;wreg free
  7812  00276A  0900               	iorlw	0
  7813  00276C  A4D8               	btfss	status,2,c
  7814  00276E  D005               	goto	l14178
  7815  002770  EC60  F039         	call	_PB2pressed	;wreg free
  7816  002774  0900               	iorlw	0
  7817  002776  B4D8               	btfsc	status,2,c
  7818  002778  D7E2               	goto	l1035
  7819  00277A                     l14178:
  7820  00277A  0E00               	movlw	0
  7821  00277C  6E2F               	movwf	_ms_count3+1,c	;volatile
  7822  00277E  0E00               	movlw	0
  7823  002780  6E2E               	movwf	_ms_count3,c	;volatile
  7824  002782                     l14180:
  7825  002782  502F               	movf	_ms_count3+1,w,c	;volatile
  7826  002784  E10E               	bnz	l14186
  7827  002786  0E65               	movlw	101
  7828  002788  5C2E               	subwf	_ms_count3,w,c	;volatile
  7829  00278A  B0D8               	btfsc	status,0,c
  7830  00278C  D00A               	goto	l14186
  7831  00278E  EC74  F039         	call	_PB1pressed	;wreg free
  7832  002792  0900               	iorlw	0
  7833  002794  A4D8               	btfss	status,2,c
  7834  002796  D005               	goto	l14186
  7835  002798  EC60  F039         	call	_PB2pressed	;wreg free
  7836  00279C  0900               	iorlw	0
  7837  00279E  B4D8               	btfsc	status,2,c
  7838  0027A0  D7F0               	goto	l14180
  7839  0027A2                     l14186:
  7840  0027A2  0E00               	movlw	0
  7841  0027A4  6E2F               	movwf	_ms_count3+1,c	;volatile
  7842  0027A6  0E00               	movlw	0
  7843  0027A8  6E2E               	movwf	_ms_count3,c	;volatile
  7844  0027AA  EC74  F039         	call	_PB1pressed	;wreg free
  7845  0027AE  0900               	iorlw	0
  7846  0027B0  A4D8               	btfss	status,2,c
  7847  0027B2  EF2F  F01C         	goto	l14966
  7848  0027B6  EC60  F039         	call	_PB2pressed	;wreg free
  7849  0027BA  0900               	iorlw	0
  7850  0027BC  A4D8               	btfss	status,2,c
  7851  0027BE  EF2F  F01C         	goto	l14966
  7852  0027C2  D00E               	goto	l14196
  7853  0027C4                     l1048:
  7854  0027C4  8C91               	bsf	3985,6,c	;volatile
  7855  0027C6  0E35               	movlw	53
  7856  0027C8  ECC4  F039         	call	_Delay10TCYx
  7857  0027CC  0E35               	movlw	53
  7858  0027CE  ECC4  F039         	call	_Delay10TCYx
  7859  0027D2  9C91               	bcf	3985,6,c	;volatile
  7860  0027D4  0E35               	movlw	53
  7861  0027D6  ECC4  F039         	call	_Delay10TCYx
  7862  0027DA  0E35               	movlw	53
  7863  0027DC  ECC4  F039         	call	_Delay10TCYx
  7864  0027E0                     l14196:
  7865  0027E0  502F               	movf	_ms_count3+1,w,c	;volatile
  7866  0027E2  E10E               	bnz	l14202
  7867  0027E4  0EC9               	movlw	201
  7868  0027E6  5C2E               	subwf	_ms_count3,w,c	;volatile
  7869  0027E8  B0D8               	btfsc	status,0,c
  7870  0027EA  D00A               	goto	l14202
  7871  0027EC  EC74  F039         	call	_PB1pressed	;wreg free
  7872  0027F0  0900               	iorlw	0
  7873  0027F2  A4D8               	btfss	status,2,c
  7874  0027F4  D005               	goto	l14202
  7875  0027F6  EC60  F039         	call	_PB2pressed	;wreg free
  7876  0027FA  0900               	iorlw	0
  7877  0027FC  B4D8               	btfsc	status,2,c
  7878  0027FE  D7E2               	goto	l1048
  7879  002800                     l14202:
  7880  002800  0E00               	movlw	0
  7881  002802  6E2F               	movwf	_ms_count3+1,c	;volatile
  7882  002804  0E00               	movlw	0
  7883  002806  6E2E               	movwf	_ms_count3,c	;volatile
  7884  002808                     l14204:
  7885  002808  502F               	movf	_ms_count3+1,w,c	;volatile
  7886  00280A  E10E               	bnz	l14210
  7887  00280C  0E65               	movlw	101
  7888  00280E  5C2E               	subwf	_ms_count3,w,c	;volatile
  7889  002810  B0D8               	btfsc	status,0,c
  7890  002812  D00A               	goto	l14210
  7891  002814  EC74  F039         	call	_PB1pressed	;wreg free
  7892  002818  0900               	iorlw	0
  7893  00281A  A4D8               	btfss	status,2,c
  7894  00281C  D005               	goto	l14210
  7895  00281E  EC60  F039         	call	_PB2pressed	;wreg free
  7896  002822  0900               	iorlw	0
  7897  002824  B4D8               	btfsc	status,2,c
  7898  002826  D7F0               	goto	l14204
  7899  002828                     l14210:
  7900  002828  0E00               	movlw	0
  7901  00282A  6E2F               	movwf	_ms_count3+1,c	;volatile
  7902  00282C  0E00               	movlw	0
  7903  00282E  6E2E               	movwf	_ms_count3,c	;volatile
  7904  002830  EC74  F039         	call	_PB1pressed	;wreg free
  7905  002834  0900               	iorlw	0
  7906  002836  A4D8               	btfss	status,2,c
  7907  002838  EF2F  F01C         	goto	l14966
  7908  00283C  EC60  F039         	call	_PB2pressed	;wreg free
  7909  002840  0900               	iorlw	0
  7910  002842  A4D8               	btfss	status,2,c
  7911  002844  EF2F  F01C         	goto	l14966
  7912  002848  D00E               	goto	l14220
  7913  00284A                     l1061:
  7914  00284A  8C91               	bsf	3985,6,c	;volatile
  7915  00284C  0E3C               	movlw	60
  7916  00284E  ECC4  F039         	call	_Delay10TCYx
  7917  002852  0E3C               	movlw	60
  7918  002854  ECC4  F039         	call	_Delay10TCYx
  7919  002858  9C91               	bcf	3985,6,c	;volatile
  7920  00285A  0E3C               	movlw	60
  7921  00285C  ECC4  F039         	call	_Delay10TCYx
  7922  002860  0E3C               	movlw	60
  7923  002862  ECC4  F039         	call	_Delay10TCYx
  7924  002866                     l14220:
  7925  002866  502F               	movf	_ms_count3+1,w,c	;volatile
  7926  002868  E10E               	bnz	l14226
  7927  00286A  0EC9               	movlw	201
  7928  00286C  5C2E               	subwf	_ms_count3,w,c	;volatile
  7929  00286E  B0D8               	btfsc	status,0,c
  7930  002870  D00A               	goto	l14226
  7931  002872  EC74  F039         	call	_PB1pressed	;wreg free
  7932  002876  0900               	iorlw	0
  7933  002878  A4D8               	btfss	status,2,c
  7934  00287A  D005               	goto	l14226
  7935  00287C  EC60  F039         	call	_PB2pressed	;wreg free
  7936  002880  0900               	iorlw	0
  7937  002882  B4D8               	btfsc	status,2,c
  7938  002884  D7E2               	goto	l1061
  7939  002886                     l14226:
  7940  002886  0E00               	movlw	0
  7941  002888  6E2F               	movwf	_ms_count3+1,c	;volatile
  7942  00288A  0E00               	movlw	0
  7943  00288C  6E2E               	movwf	_ms_count3,c	;volatile
  7944  00288E                     l14228:
  7945  00288E  502F               	movf	_ms_count3+1,w,c	;volatile
  7946  002890  E10E               	bnz	l14234
  7947  002892  0E65               	movlw	101
  7948  002894  5C2E               	subwf	_ms_count3,w,c	;volatile
  7949  002896  B0D8               	btfsc	status,0,c
  7950  002898  D00A               	goto	l14234
  7951  00289A  EC74  F039         	call	_PB1pressed	;wreg free
  7952  00289E  0900               	iorlw	0
  7953  0028A0  A4D8               	btfss	status,2,c
  7954  0028A2  D005               	goto	l14234
  7955  0028A4  EC60  F039         	call	_PB2pressed	;wreg free
  7956  0028A8  0900               	iorlw	0
  7957  0028AA  B4D8               	btfsc	status,2,c
  7958  0028AC  D7F0               	goto	l14228
  7959  0028AE                     l14234:
  7960  0028AE  0E00               	movlw	0
  7961  0028B0  6E2F               	movwf	_ms_count3+1,c	;volatile
  7962  0028B2  0E00               	movlw	0
  7963  0028B4  6E2E               	movwf	_ms_count3,c	;volatile
  7964  0028B6  EC74  F039         	call	_PB1pressed	;wreg free
  7965  0028BA  0900               	iorlw	0
  7966  0028BC  A4D8               	btfss	status,2,c
  7967  0028BE  EF2F  F01C         	goto	l14966
  7968  0028C2  EC60  F039         	call	_PB2pressed	;wreg free
  7969  0028C6  0900               	iorlw	0
  7970  0028C8  A4D8               	btfss	status,2,c
  7971  0028CA  EF2F  F01C         	goto	l14966
  7972  0028CE  D00E               	goto	l14244
  7973  0028D0                     l1074:
  7974  0028D0  8C91               	bsf	3985,6,c	;volatile
  7975  0028D2  0E43               	movlw	67
  7976  0028D4  ECC4  F039         	call	_Delay10TCYx
  7977  0028D8  0E43               	movlw	67
  7978  0028DA  ECC4  F039         	call	_Delay10TCYx
  7979  0028DE  9C91               	bcf	3985,6,c	;volatile
  7980  0028E0  0E43               	movlw	67
  7981  0028E2  ECC4  F039         	call	_Delay10TCYx
  7982  0028E6  0E43               	movlw	67
  7983  0028E8  ECC4  F039         	call	_Delay10TCYx
  7984  0028EC                     l14244:
  7985  0028EC  502F               	movf	_ms_count3+1,w,c	;volatile
  7986  0028EE  E10E               	bnz	l14250
  7987  0028F0  0EC9               	movlw	201
  7988  0028F2  5C2E               	subwf	_ms_count3,w,c	;volatile
  7989  0028F4  B0D8               	btfsc	status,0,c
  7990  0028F6  D00A               	goto	l14250
  7991  0028F8  EC74  F039         	call	_PB1pressed	;wreg free
  7992  0028FC  0900               	iorlw	0
  7993  0028FE  A4D8               	btfss	status,2,c
  7994  002900  D005               	goto	l14250
  7995  002902  EC60  F039         	call	_PB2pressed	;wreg free
  7996  002906  0900               	iorlw	0
  7997  002908  B4D8               	btfsc	status,2,c
  7998  00290A  D7E2               	goto	l1074
  7999  00290C                     l14250:
  8000  00290C  0E00               	movlw	0
  8001  00290E  6E2F               	movwf	_ms_count3+1,c	;volatile
  8002  002910  0E00               	movlw	0
  8003  002912  6E2E               	movwf	_ms_count3,c	;volatile
  8004  002914                     l14252:
  8005  002914  502F               	movf	_ms_count3+1,w,c	;volatile
  8006  002916  E10E               	bnz	l14258
  8007  002918  0E65               	movlw	101
  8008  00291A  5C2E               	subwf	_ms_count3,w,c	;volatile
  8009  00291C  B0D8               	btfsc	status,0,c
  8010  00291E  D00A               	goto	l14258
  8011  002920  EC74  F039         	call	_PB1pressed	;wreg free
  8012  002924  0900               	iorlw	0
  8013  002926  A4D8               	btfss	status,2,c
  8014  002928  D005               	goto	l14258
  8015  00292A  EC60  F039         	call	_PB2pressed	;wreg free
  8016  00292E  0900               	iorlw	0
  8017  002930  B4D8               	btfsc	status,2,c
  8018  002932  D7F0               	goto	l14252
  8019  002934                     l14258:
  8020  002934  0E00               	movlw	0
  8021  002936  6E2F               	movwf	_ms_count3+1,c	;volatile
  8022  002938  0E00               	movlw	0
  8023  00293A  6E2E               	movwf	_ms_count3,c	;volatile
  8024  00293C  EC74  F039         	call	_PB1pressed	;wreg free
  8025  002940  0900               	iorlw	0
  8026  002942  A4D8               	btfss	status,2,c
  8027  002944  EF2F  F01C         	goto	l14966
  8028  002948  EC60  F039         	call	_PB2pressed	;wreg free
  8029  00294C  0900               	iorlw	0
  8030  00294E  A4D8               	btfss	status,2,c
  8031  002950  EF2F  F01C         	goto	l14966
  8032  002954  D00E               	goto	l14268
  8033  002956                     l1087:
  8034  002956  8C91               	bsf	3985,6,c	;volatile
  8035  002958  0E50               	movlw	80
  8036  00295A  ECC4  F039         	call	_Delay10TCYx
  8037  00295E  0E50               	movlw	80
  8038  002960  ECC4  F039         	call	_Delay10TCYx
  8039  002964  9C91               	bcf	3985,6,c	;volatile
  8040  002966  0E50               	movlw	80
  8041  002968  ECC4  F039         	call	_Delay10TCYx
  8042  00296C  0E50               	movlw	80
  8043  00296E  ECC4  F039         	call	_Delay10TCYx
  8044  002972                     l14268:
  8045  002972  502F               	movf	_ms_count3+1,w,c	;volatile
  8046  002974  E10E               	bnz	l14274
  8047  002976  0EC9               	movlw	201
  8048  002978  5C2E               	subwf	_ms_count3,w,c	;volatile
  8049  00297A  B0D8               	btfsc	status,0,c
  8050  00297C  D00A               	goto	l14274
  8051  00297E  EC74  F039         	call	_PB1pressed	;wreg free
  8052  002982  0900               	iorlw	0
  8053  002984  A4D8               	btfss	status,2,c
  8054  002986  D005               	goto	l14274
  8055  002988  EC60  F039         	call	_PB2pressed	;wreg free
  8056  00298C  0900               	iorlw	0
  8057  00298E  B4D8               	btfsc	status,2,c
  8058  002990  D7E2               	goto	l1087
  8059  002992                     l14274:
  8060  002992  0E00               	movlw	0
  8061  002994  6E2F               	movwf	_ms_count3+1,c	;volatile
  8062  002996  0E00               	movlw	0
  8063  002998  6E2E               	movwf	_ms_count3,c	;volatile
  8064  00299A                     l14276:
  8065  00299A  502F               	movf	_ms_count3+1,w,c	;volatile
  8066  00299C  E10E               	bnz	l14282
  8067  00299E  0E65               	movlw	101
  8068  0029A0  5C2E               	subwf	_ms_count3,w,c	;volatile
  8069  0029A2  B0D8               	btfsc	status,0,c
  8070  0029A4  D00A               	goto	l14282
  8071  0029A6  EC74  F039         	call	_PB1pressed	;wreg free
  8072  0029AA  0900               	iorlw	0
  8073  0029AC  A4D8               	btfss	status,2,c
  8074  0029AE  D005               	goto	l14282
  8075  0029B0  EC60  F039         	call	_PB2pressed	;wreg free
  8076  0029B4  0900               	iorlw	0
  8077  0029B6  B4D8               	btfsc	status,2,c
  8078  0029B8  D7F0               	goto	l14276
  8079  0029BA                     l14282:
  8080  0029BA  0E00               	movlw	0
  8081  0029BC  6E2F               	movwf	_ms_count3+1,c	;volatile
  8082  0029BE  0E00               	movlw	0
  8083  0029C0  6E2E               	movwf	_ms_count3,c	;volatile
  8084  0029C2  EC74  F039         	call	_PB1pressed	;wreg free
  8085  0029C6  0900               	iorlw	0
  8086  0029C8  A4D8               	btfss	status,2,c
  8087  0029CA  EF2F  F01C         	goto	l14966
  8088  0029CE  EC60  F039         	call	_PB2pressed	;wreg free
  8089  0029D2  0900               	iorlw	0
  8090  0029D4  A4D8               	btfss	status,2,c
  8091  0029D6  EF2F  F01C         	goto	l14966
  8092  0029DA  D00E               	goto	l14292
  8093  0029DC                     l1100:
  8094  0029DC  8C91               	bsf	3985,6,c	;volatile
  8095  0029DE  0E59               	movlw	89
  8096  0029E0  ECC4  F039         	call	_Delay10TCYx
  8097  0029E4  0E59               	movlw	89
  8098  0029E6  ECC4  F039         	call	_Delay10TCYx
  8099  0029EA  9C91               	bcf	3985,6,c	;volatile
  8100  0029EC  0E59               	movlw	89
  8101  0029EE  ECC4  F039         	call	_Delay10TCYx
  8102  0029F2  0E59               	movlw	89
  8103  0029F4  ECC4  F039         	call	_Delay10TCYx
  8104  0029F8                     l14292:
  8105  0029F8  0E91               	movlw	145
  8106  0029FA  5C2E               	subwf	_ms_count3,w,c	;volatile
  8107  0029FC  0E01               	movlw	1
  8108  0029FE  582F               	subwfb	_ms_count3+1,w,c	;volatile
  8109  002A00  B0D8               	btfsc	status,0,c
  8110  002A02  D00A               	goto	l14298
  8111  002A04  EC74  F039         	call	_PB1pressed	;wreg free
  8112  002A08  0900               	iorlw	0
  8113  002A0A  A4D8               	btfss	status,2,c
  8114  002A0C  D005               	goto	l14298
  8115  002A0E  EC60  F039         	call	_PB2pressed	;wreg free
  8116  002A12  0900               	iorlw	0
  8117  002A14  B4D8               	btfsc	status,2,c
  8118  002A16  D7E2               	goto	l1100
  8119  002A18                     l14298:
  8120  002A18  0E00               	movlw	0
  8121  002A1A  6E2F               	movwf	_ms_count3+1,c	;volatile
  8122  002A1C  0E00               	movlw	0
  8123  002A1E  6E2E               	movwf	_ms_count3,c	;volatile
  8124  002A20                     l14300:
  8125  002A20  502F               	movf	_ms_count3+1,w,c	;volatile
  8126  002A22  E10E               	bnz	l14306
  8127  002A24  0EC9               	movlw	201
  8128  002A26  5C2E               	subwf	_ms_count3,w,c	;volatile
  8129  002A28  B0D8               	btfsc	status,0,c
  8130  002A2A  D00A               	goto	l14306
  8131  002A2C  EC74  F039         	call	_PB1pressed	;wreg free
  8132  002A30  0900               	iorlw	0
  8133  002A32  A4D8               	btfss	status,2,c
  8134  002A34  D005               	goto	l14306
  8135  002A36  EC60  F039         	call	_PB2pressed	;wreg free
  8136  002A3A  0900               	iorlw	0
  8137  002A3C  B4D8               	btfsc	status,2,c
  8138  002A3E  D7F0               	goto	l14300
  8139  002A40                     l14306:
  8140  002A40  0E00               	movlw	0
  8141  002A42  6E2F               	movwf	_ms_count3+1,c	;volatile
  8142  002A44  0E00               	movlw	0
  8143  002A46  6E2E               	movwf	_ms_count3,c	;volatile
  8144  002A48  EC74  F039         	call	_PB1pressed	;wreg free
  8145  002A4C  0900               	iorlw	0
  8146  002A4E  A4D8               	btfss	status,2,c
  8147  002A50  EF2F  F01C         	goto	l14966
  8148  002A54  EC60  F039         	call	_PB2pressed	;wreg free
  8149  002A58  0900               	iorlw	0
  8150  002A5A  A4D8               	btfss	status,2,c
  8151  002A5C  EF2F  F01C         	goto	l14966
  8152  002A60  D00E               	goto	l14316
  8153  002A62                     l1113:
  8154  002A62  8C91               	bsf	3985,6,c	;volatile
  8155  002A64  0E3C               	movlw	60
  8156  002A66  ECC4  F039         	call	_Delay10TCYx
  8157  002A6A  0E3C               	movlw	60
  8158  002A6C  ECC4  F039         	call	_Delay10TCYx
  8159  002A70  9C91               	bcf	3985,6,c	;volatile
  8160  002A72  0E3C               	movlw	60
  8161  002A74  ECC4  F039         	call	_Delay10TCYx
  8162  002A78  0E3C               	movlw	60
  8163  002A7A  ECC4  F039         	call	_Delay10TCYx
  8164  002A7E                     l14316:
  8165  002A7E  0E91               	movlw	145
  8166  002A80  5C2E               	subwf	_ms_count3,w,c	;volatile
  8167  002A82  0E01               	movlw	1
  8168  002A84  582F               	subwfb	_ms_count3+1,w,c	;volatile
  8169  002A86  B0D8               	btfsc	status,0,c
  8170  002A88  D00A               	goto	l14322
  8171  002A8A  EC74  F039         	call	_PB1pressed	;wreg free
  8172  002A8E  0900               	iorlw	0
  8173  002A90  A4D8               	btfss	status,2,c
  8174  002A92  D005               	goto	l14322
  8175  002A94  EC60  F039         	call	_PB2pressed	;wreg free
  8176  002A98  0900               	iorlw	0
  8177  002A9A  B4D8               	btfsc	status,2,c
  8178  002A9C  D7E2               	goto	l1113
  8179  002A9E                     l14322:
  8180  002A9E  0E00               	movlw	0
  8181  002AA0  6E2F               	movwf	_ms_count3+1,c	;volatile
  8182  002AA2  0E00               	movlw	0
  8183  002AA4  6E2E               	movwf	_ms_count3,c	;volatile
  8184  002AA6                     l14324:
  8185  002AA6  502F               	movf	_ms_count3+1,w,c	;volatile
  8186  002AA8  E10E               	bnz	l14330
  8187  002AAA  0E65               	movlw	101
  8188  002AAC  5C2E               	subwf	_ms_count3,w,c	;volatile
  8189  002AAE  B0D8               	btfsc	status,0,c
  8190  002AB0  D00A               	goto	l14330
  8191  002AB2  EC74  F039         	call	_PB1pressed	;wreg free
  8192  002AB6  0900               	iorlw	0
  8193  002AB8  A4D8               	btfss	status,2,c
  8194  002ABA  D005               	goto	l14330
  8195  002ABC  EC60  F039         	call	_PB2pressed	;wreg free
  8196  002AC0  0900               	iorlw	0
  8197  002AC2  B4D8               	btfsc	status,2,c
  8198  002AC4  D7F0               	goto	l14324
  8199  002AC6                     l14330:
  8200  002AC6  0E00               	movlw	0
  8201  002AC8  6E2F               	movwf	_ms_count3+1,c	;volatile
  8202  002ACA  0E00               	movlw	0
  8203  002ACC  6E2E               	movwf	_ms_count3,c	;volatile
  8204  002ACE  EC74  F039         	call	_PB1pressed	;wreg free
  8205  002AD2  0900               	iorlw	0
  8206  002AD4  A4D8               	btfss	status,2,c
  8207  002AD6  EF2F  F01C         	goto	l14966
  8208  002ADA  EC60  F039         	call	_PB2pressed	;wreg free
  8209  002ADE  0900               	iorlw	0
  8210  002AE0  A4D8               	btfss	status,2,c
  8211  002AE2  EF2F  F01C         	goto	l14966
  8212  002AE6  D00E               	goto	l14340
  8213  002AE8                     l1126:
  8214  002AE8  8C91               	bsf	3985,6,c	;volatile
  8215  002AEA  0E47               	movlw	71
  8216  002AEC  ECC4  F039         	call	_Delay10TCYx
  8217  002AF0  0E47               	movlw	71
  8218  002AF2  ECC4  F039         	call	_Delay10TCYx
  8219  002AF6  9C91               	bcf	3985,6,c	;volatile
  8220  002AF8  0E47               	movlw	71
  8221  002AFA  ECC4  F039         	call	_Delay10TCYx
  8222  002AFE  0E47               	movlw	71
  8223  002B00  ECC4  F039         	call	_Delay10TCYx
  8224  002B04                     l14340:
  8225  002B04  502F               	movf	_ms_count3+1,w,c	;volatile
  8226  002B06  E10E               	bnz	l14346
  8227  002B08  0EC9               	movlw	201
  8228  002B0A  5C2E               	subwf	_ms_count3,w,c	;volatile
  8229  002B0C  B0D8               	btfsc	status,0,c
  8230  002B0E  D00A               	goto	l14346
  8231  002B10  EC74  F039         	call	_PB1pressed	;wreg free
  8232  002B14  0900               	iorlw	0
  8233  002B16  A4D8               	btfss	status,2,c
  8234  002B18  D005               	goto	l14346
  8235  002B1A  EC60  F039         	call	_PB2pressed	;wreg free
  8236  002B1E  0900               	iorlw	0
  8237  002B20  B4D8               	btfsc	status,2,c
  8238  002B22  D7E2               	goto	l1126
  8239  002B24                     l14346:
  8240  002B24  0E00               	movlw	0
  8241  002B26  6E2F               	movwf	_ms_count3+1,c	;volatile
  8242  002B28  0E00               	movlw	0
  8243  002B2A  6E2E               	movwf	_ms_count3,c	;volatile
  8244  002B2C                     l14348:
  8245  002B2C  502F               	movf	_ms_count3+1,w,c	;volatile
  8246  002B2E  E10E               	bnz	l14354
  8247  002B30  0E65               	movlw	101
  8248  002B32  5C2E               	subwf	_ms_count3,w,c	;volatile
  8249  002B34  B0D8               	btfsc	status,0,c
  8250  002B36  D00A               	goto	l14354
  8251  002B38  EC74  F039         	call	_PB1pressed	;wreg free
  8252  002B3C  0900               	iorlw	0
  8253  002B3E  A4D8               	btfss	status,2,c
  8254  002B40  D005               	goto	l14354
  8255  002B42  EC60  F039         	call	_PB2pressed	;wreg free
  8256  002B46  0900               	iorlw	0
  8257  002B48  B4D8               	btfsc	status,2,c
  8258  002B4A  D7F0               	goto	l14348
  8259  002B4C                     l14354:
  8260  002B4C  0E00               	movlw	0
  8261  002B4E  6E2F               	movwf	_ms_count3+1,c	;volatile
  8262  002B50  0E00               	movlw	0
  8263  002B52  6E2E               	movwf	_ms_count3,c	;volatile
  8264  002B54  EC74  F039         	call	_PB1pressed	;wreg free
  8265  002B58  0900               	iorlw	0
  8266  002B5A  A4D8               	btfss	status,2,c
  8267  002B5C  EF2F  F01C         	goto	l14966
  8268  002B60  EC60  F039         	call	_PB2pressed	;wreg free
  8269  002B64  0900               	iorlw	0
  8270  002B66  A4D8               	btfss	status,2,c
  8271  002B68  EF2F  F01C         	goto	l14966
  8272  002B6C  D00E               	goto	l14364
  8273  002B6E                     l1139:
  8274  002B6E  8C91               	bsf	3985,6,c	;volatile
  8275  002B70  0E47               	movlw	71
  8276  002B72  ECC4  F039         	call	_Delay10TCYx
  8277  002B76  0E47               	movlw	71
  8278  002B78  ECC4  F039         	call	_Delay10TCYx
  8279  002B7C  9C91               	bcf	3985,6,c	;volatile
  8280  002B7E  0E47               	movlw	71
  8281  002B80  ECC4  F039         	call	_Delay10TCYx
  8282  002B84  0E47               	movlw	71
  8283  002B86  ECC4  F039         	call	_Delay10TCYx
  8284  002B8A                     l14364:
  8285  002B8A  502F               	movf	_ms_count3+1,w,c	;volatile
  8286  002B8C  E10E               	bnz	l14370
  8287  002B8E  0EC9               	movlw	201
  8288  002B90  5C2E               	subwf	_ms_count3,w,c	;volatile
  8289  002B92  B0D8               	btfsc	status,0,c
  8290  002B94  D00A               	goto	l14370
  8291  002B96  EC74  F039         	call	_PB1pressed	;wreg free
  8292  002B9A  0900               	iorlw	0
  8293  002B9C  A4D8               	btfss	status,2,c
  8294  002B9E  D005               	goto	l14370
  8295  002BA0  EC60  F039         	call	_PB2pressed	;wreg free
  8296  002BA4  0900               	iorlw	0
  8297  002BA6  B4D8               	btfsc	status,2,c
  8298  002BA8  D7E2               	goto	l1139
  8299  002BAA                     l14370:
  8300  002BAA  0E00               	movlw	0
  8301  002BAC  6E2F               	movwf	_ms_count3+1,c	;volatile
  8302  002BAE  0E00               	movlw	0
  8303  002BB0  6E2E               	movwf	_ms_count3,c	;volatile
  8304  002BB2                     l14372:
  8305  002BB2  502F               	movf	_ms_count3+1,w,c	;volatile
  8306  002BB4  E10E               	bnz	l14378
  8307  002BB6  0E65               	movlw	101
  8308  002BB8  5C2E               	subwf	_ms_count3,w,c	;volatile
  8309  002BBA  B0D8               	btfsc	status,0,c
  8310  002BBC  D00A               	goto	l14378
  8311  002BBE  EC74  F039         	call	_PB1pressed	;wreg free
  8312  002BC2  0900               	iorlw	0
  8313  002BC4  A4D8               	btfss	status,2,c
  8314  002BC6  D005               	goto	l14378
  8315  002BC8  EC60  F039         	call	_PB2pressed	;wreg free
  8316  002BCC  0900               	iorlw	0
  8317  002BCE  B4D8               	btfsc	status,2,c
  8318  002BD0  D7F0               	goto	l14372
  8319  002BD2                     l14378:
  8320  002BD2  0E00               	movlw	0
  8321  002BD4  6E2F               	movwf	_ms_count3+1,c	;volatile
  8322  002BD6  0E00               	movlw	0
  8323  002BD8  6E2E               	movwf	_ms_count3,c	;volatile
  8324  002BDA  EC74  F039         	call	_PB1pressed	;wreg free
  8325  002BDE  0900               	iorlw	0
  8326  002BE0  A4D8               	btfss	status,2,c
  8327  002BE2  EF2F  F01C         	goto	l14966
  8328  002BE6  EC60  F039         	call	_PB2pressed	;wreg free
  8329  002BEA  0900               	iorlw	0
  8330  002BEC  A4D8               	btfss	status,2,c
  8331  002BEE  EF2F  F01C         	goto	l14966
  8332  002BF2  D00E               	goto	l14388
  8333  002BF4                     l1152:
  8334  002BF4  8C91               	bsf	3985,6,c	;volatile
  8335  002BF6  0E47               	movlw	71
  8336  002BF8  ECC4  F039         	call	_Delay10TCYx
  8337  002BFC  0E47               	movlw	71
  8338  002BFE  ECC4  F039         	call	_Delay10TCYx
  8339  002C02  9C91               	bcf	3985,6,c	;volatile
  8340  002C04  0E47               	movlw	71
  8341  002C06  ECC4  F039         	call	_Delay10TCYx
  8342  002C0A  0E47               	movlw	71
  8343  002C0C  ECC4  F039         	call	_Delay10TCYx
  8344  002C10                     l14388:
  8345  002C10  0E91               	movlw	145
  8346  002C12  5C2E               	subwf	_ms_count3,w,c	;volatile
  8347  002C14  0E01               	movlw	1
  8348  002C16  582F               	subwfb	_ms_count3+1,w,c	;volatile
  8349  002C18  B0D8               	btfsc	status,0,c
  8350  002C1A  D00A               	goto	l14394
  8351  002C1C  EC74  F039         	call	_PB1pressed	;wreg free
  8352  002C20  0900               	iorlw	0
  8353  002C22  A4D8               	btfss	status,2,c
  8354  002C24  D005               	goto	l14394
  8355  002C26  EC60  F039         	call	_PB2pressed	;wreg free
  8356  002C2A  0900               	iorlw	0
  8357  002C2C  B4D8               	btfsc	status,2,c
  8358  002C2E  D7E2               	goto	l1152
  8359  002C30                     l14394:
  8360  002C30  0E00               	movlw	0
  8361  002C32  6E2F               	movwf	_ms_count3+1,c	;volatile
  8362  002C34  0E00               	movlw	0
  8363  002C36  6E2E               	movwf	_ms_count3,c	;volatile
  8364  002C38                     l14396:
  8365  002C38  502F               	movf	_ms_count3+1,w,c	;volatile
  8366  002C3A  E10E               	bnz	l14402
  8367  002C3C  0E65               	movlw	101
  8368  002C3E  5C2E               	subwf	_ms_count3,w,c	;volatile
  8369  002C40  B0D8               	btfsc	status,0,c
  8370  002C42  D00A               	goto	l14402
  8371  002C44  EC74  F039         	call	_PB1pressed	;wreg free
  8372  002C48  0900               	iorlw	0
  8373  002C4A  A4D8               	btfss	status,2,c
  8374  002C4C  D005               	goto	l14402
  8375  002C4E  EC60  F039         	call	_PB2pressed	;wreg free
  8376  002C52  0900               	iorlw	0
  8377  002C54  B4D8               	btfsc	status,2,c
  8378  002C56  D7F0               	goto	l14396
  8379  002C58                     l14402:
  8380  002C58  0E00               	movlw	0
  8381  002C5A  6E2F               	movwf	_ms_count3+1,c	;volatile
  8382  002C5C  0E00               	movlw	0
  8383  002C5E  6E2E               	movwf	_ms_count3,c	;volatile
  8384  002C60  EC74  F039         	call	_PB1pressed	;wreg free
  8385  002C64  0900               	iorlw	0
  8386  002C66  A4D8               	btfss	status,2,c
  8387  002C68  EF2F  F01C         	goto	l14966
  8388  002C6C  EC60  F039         	call	_PB2pressed	;wreg free
  8389  002C70  0900               	iorlw	0
  8390  002C72  A4D8               	btfss	status,2,c
  8391  002C74  EF2F  F01C         	goto	l14966
  8392  002C78  D00E               	goto	l14412
  8393  002C7A                     l1165:
  8394  002C7A  8C91               	bsf	3985,6,c	;volatile
  8395  002C7C  0E47               	movlw	71
  8396  002C7E  ECC4  F039         	call	_Delay10TCYx
  8397  002C82  0E47               	movlw	71
  8398  002C84  ECC4  F039         	call	_Delay10TCYx
  8399  002C88  9C91               	bcf	3985,6,c	;volatile
  8400  002C8A  0E47               	movlw	71
  8401  002C8C  ECC4  F039         	call	_Delay10TCYx
  8402  002C90  0E47               	movlw	71
  8403  002C92  ECC4  F039         	call	_Delay10TCYx
  8404  002C96                     l14412:
  8405  002C96  502F               	movf	_ms_count3+1,w,c	;volatile
  8406  002C98  E10E               	bnz	l14418
  8407  002C9A  0EC9               	movlw	201
  8408  002C9C  5C2E               	subwf	_ms_count3,w,c	;volatile
  8409  002C9E  B0D8               	btfsc	status,0,c
  8410  002CA0  D00A               	goto	l14418
  8411  002CA2  EC74  F039         	call	_PB1pressed	;wreg free
  8412  002CA6  0900               	iorlw	0
  8413  002CA8  A4D8               	btfss	status,2,c
  8414  002CAA  D005               	goto	l14418
  8415  002CAC  EC60  F039         	call	_PB2pressed	;wreg free
  8416  002CB0  0900               	iorlw	0
  8417  002CB2  B4D8               	btfsc	status,2,c
  8418  002CB4  D7E2               	goto	l1165
  8419  002CB6                     l14418:
  8420  002CB6  0E00               	movlw	0
  8421  002CB8  6E2F               	movwf	_ms_count3+1,c	;volatile
  8422  002CBA  0E00               	movlw	0
  8423  002CBC  6E2E               	movwf	_ms_count3,c	;volatile
  8424  002CBE                     l14420:
  8425  002CBE  502F               	movf	_ms_count3+1,w,c	;volatile
  8426  002CC0  E10E               	bnz	l14426
  8427  002CC2  0E65               	movlw	101
  8428  002CC4  5C2E               	subwf	_ms_count3,w,c	;volatile
  8429  002CC6  B0D8               	btfsc	status,0,c
  8430  002CC8  D00A               	goto	l14426
  8431  002CCA  EC74  F039         	call	_PB1pressed	;wreg free
  8432  002CCE  0900               	iorlw	0
  8433  002CD0  A4D8               	btfss	status,2,c
  8434  002CD2  D005               	goto	l14426
  8435  002CD4  EC60  F039         	call	_PB2pressed	;wreg free
  8436  002CD8  0900               	iorlw	0
  8437  002CDA  B4D8               	btfsc	status,2,c
  8438  002CDC  D7F0               	goto	l14420
  8439  002CDE                     l14426:
  8440  002CDE  0E00               	movlw	0
  8441  002CE0  6E2F               	movwf	_ms_count3+1,c	;volatile
  8442  002CE2  0E00               	movlw	0
  8443  002CE4  6E2E               	movwf	_ms_count3,c	;volatile
  8444  002CE6  EC74  F039         	call	_PB1pressed	;wreg free
  8445  002CEA  0900               	iorlw	0
  8446  002CEC  A4D8               	btfss	status,2,c
  8447  002CEE  EF2F  F01C         	goto	l14966
  8448  002CF2  EC60  F039         	call	_PB2pressed	;wreg free
  8449  002CF6  0900               	iorlw	0
  8450  002CF8  A4D8               	btfss	status,2,c
  8451  002CFA  EF2F  F01C         	goto	l14966
  8452  002CFE  D00E               	goto	l14436
  8453  002D00                     l1178:
  8454  002D00  8C91               	bsf	3985,6,c	;volatile
  8455  002D02  0E47               	movlw	71
  8456  002D04  ECC4  F039         	call	_Delay10TCYx
  8457  002D08  0E47               	movlw	71
  8458  002D0A  ECC4  F039         	call	_Delay10TCYx
  8459  002D0E  9C91               	bcf	3985,6,c	;volatile
  8460  002D10  0E47               	movlw	71
  8461  002D12  ECC4  F039         	call	_Delay10TCYx
  8462  002D16  0E47               	movlw	71
  8463  002D18  ECC4  F039         	call	_Delay10TCYx
  8464  002D1C                     l14436:
  8465  002D1C  502F               	movf	_ms_count3+1,w,c	;volatile
  8466  002D1E  E10E               	bnz	l14442
  8467  002D20  0EC9               	movlw	201
  8468  002D22  5C2E               	subwf	_ms_count3,w,c	;volatile
  8469  002D24  B0D8               	btfsc	status,0,c
  8470  002D26  D00A               	goto	l14442
  8471  002D28  EC74  F039         	call	_PB1pressed	;wreg free
  8472  002D2C  0900               	iorlw	0
  8473  002D2E  A4D8               	btfss	status,2,c
  8474  002D30  D005               	goto	l14442
  8475  002D32  EC60  F039         	call	_PB2pressed	;wreg free
  8476  002D36  0900               	iorlw	0
  8477  002D38  B4D8               	btfsc	status,2,c
  8478  002D3A  D7E2               	goto	l1178
  8479  002D3C                     l14442:
  8480  002D3C  0E00               	movlw	0
  8481  002D3E  6E2F               	movwf	_ms_count3+1,c	;volatile
  8482  002D40  0E00               	movlw	0
  8483  002D42  6E2E               	movwf	_ms_count3,c	;volatile
  8484  002D44                     l14444:
  8485  002D44  502F               	movf	_ms_count3+1,w,c	;volatile
  8486  002D46  E10E               	bnz	l14450
  8487  002D48  0E65               	movlw	101
  8488  002D4A  5C2E               	subwf	_ms_count3,w,c	;volatile
  8489  002D4C  B0D8               	btfsc	status,0,c
  8490  002D4E  D00A               	goto	l14450
  8491  002D50  EC74  F039         	call	_PB1pressed	;wreg free
  8492  002D54  0900               	iorlw	0
  8493  002D56  A4D8               	btfss	status,2,c
  8494  002D58  D005               	goto	l14450
  8495  002D5A  EC60  F039         	call	_PB2pressed	;wreg free
  8496  002D5E  0900               	iorlw	0
  8497  002D60  B4D8               	btfsc	status,2,c
  8498  002D62  D7F0               	goto	l14444
  8499  002D64                     l14450:
  8500  002D64  0E00               	movlw	0
  8501  002D66  6E2F               	movwf	_ms_count3+1,c	;volatile
  8502  002D68  0E00               	movlw	0
  8503  002D6A  6E2E               	movwf	_ms_count3,c	;volatile
  8504  002D6C  EC74  F039         	call	_PB1pressed	;wreg free
  8505  002D70  0900               	iorlw	0
  8506  002D72  A4D8               	btfss	status,2,c
  8507  002D74  EF2F  F01C         	goto	l14966
  8508  002D78  EC60  F039         	call	_PB2pressed	;wreg free
  8509  002D7C  0900               	iorlw	0
  8510  002D7E  A4D8               	btfss	status,2,c
  8511  002D80  EF2F  F01C         	goto	l14966
  8512  002D84  D00E               	goto	l14460
  8513  002D86                     l1191:
  8514  002D86  8C91               	bsf	3985,6,c	;volatile
  8515  002D88  0E47               	movlw	71
  8516  002D8A  ECC4  F039         	call	_Delay10TCYx
  8517  002D8E  0E47               	movlw	71
  8518  002D90  ECC4  F039         	call	_Delay10TCYx
  8519  002D94  9C91               	bcf	3985,6,c	;volatile
  8520  002D96  0E47               	movlw	71
  8521  002D98  ECC4  F039         	call	_Delay10TCYx
  8522  002D9C  0E47               	movlw	71
  8523  002D9E  ECC4  F039         	call	_Delay10TCYx
  8524  002DA2                     l14460:
  8525  002DA2  0E91               	movlw	145
  8526  002DA4  5C2E               	subwf	_ms_count3,w,c	;volatile
  8527  002DA6  0E01               	movlw	1
  8528  002DA8  582F               	subwfb	_ms_count3+1,w,c	;volatile
  8529  002DAA  B0D8               	btfsc	status,0,c
  8530  002DAC  D00A               	goto	l14466
  8531  002DAE  EC74  F039         	call	_PB1pressed	;wreg free
  8532  002DB2  0900               	iorlw	0
  8533  002DB4  A4D8               	btfss	status,2,c
  8534  002DB6  D005               	goto	l14466
  8535  002DB8  EC60  F039         	call	_PB2pressed	;wreg free
  8536  002DBC  0900               	iorlw	0
  8537  002DBE  B4D8               	btfsc	status,2,c
  8538  002DC0  D7E2               	goto	l1191
  8539  002DC2                     l14466:
  8540  002DC2  0E00               	movlw	0
  8541  002DC4  6E2F               	movwf	_ms_count3+1,c	;volatile
  8542  002DC6  0E00               	movlw	0
  8543  002DC8  6E2E               	movwf	_ms_count3,c	;volatile
  8544  002DCA                     l14468:
  8545  002DCA  502F               	movf	_ms_count3+1,w,c	;volatile
  8546  002DCC  E10E               	bnz	l14474
  8547  002DCE  0E65               	movlw	101
  8548  002DD0  5C2E               	subwf	_ms_count3,w,c	;volatile
  8549  002DD2  B0D8               	btfsc	status,0,c
  8550  002DD4  D00A               	goto	l14474
  8551  002DD6  EC74  F039         	call	_PB1pressed	;wreg free
  8552  002DDA  0900               	iorlw	0
  8553  002DDC  A4D8               	btfss	status,2,c
  8554  002DDE  D005               	goto	l14474
  8555  002DE0  EC60  F039         	call	_PB2pressed	;wreg free
  8556  002DE4  0900               	iorlw	0
  8557  002DE6  B4D8               	btfsc	status,2,c
  8558  002DE8  D7F0               	goto	l14468
  8559  002DEA                     l14474:
  8560  002DEA  0E00               	movlw	0
  8561  002DEC  6E2F               	movwf	_ms_count3+1,c	;volatile
  8562  002DEE  0E00               	movlw	0
  8563  002DF0  6E2E               	movwf	_ms_count3,c	;volatile
  8564  002DF2  EC74  F039         	call	_PB1pressed	;wreg free
  8565  002DF6  0900               	iorlw	0
  8566  002DF8  A4D8               	btfss	status,2,c
  8567  002DFA  EF2F  F01C         	goto	l14966
  8568  002DFE  EC60  F039         	call	_PB2pressed	;wreg free
  8569  002E02  0900               	iorlw	0
  8570  002E04  A4D8               	btfss	status,2,c
  8571  002E06  EF2F  F01C         	goto	l14966
  8572  002E0A  D00E               	goto	l14484
  8573  002E0C                     l1204:
  8574  002E0C  8C91               	bsf	3985,6,c	;volatile
  8575  002E0E  0E47               	movlw	71
  8576  002E10  ECC4  F039         	call	_Delay10TCYx
  8577  002E14  0E47               	movlw	71
  8578  002E16  ECC4  F039         	call	_Delay10TCYx
  8579  002E1A  9C91               	bcf	3985,6,c	;volatile
  8580  002E1C  0E47               	movlw	71
  8581  002E1E  ECC4  F039         	call	_Delay10TCYx
  8582  002E22  0E47               	movlw	71
  8583  002E24  ECC4  F039         	call	_Delay10TCYx
  8584  002E28                     l14484:
  8585  002E28  502F               	movf	_ms_count3+1,w,c	;volatile
  8586  002E2A  E10E               	bnz	l14490
  8587  002E2C  0EC9               	movlw	201
  8588  002E2E  5C2E               	subwf	_ms_count3,w,c	;volatile
  8589  002E30  B0D8               	btfsc	status,0,c
  8590  002E32  D00A               	goto	l14490
  8591  002E34  EC74  F039         	call	_PB1pressed	;wreg free
  8592  002E38  0900               	iorlw	0
  8593  002E3A  A4D8               	btfss	status,2,c
  8594  002E3C  D005               	goto	l14490
  8595  002E3E  EC60  F039         	call	_PB2pressed	;wreg free
  8596  002E42  0900               	iorlw	0
  8597  002E44  B4D8               	btfsc	status,2,c
  8598  002E46  D7E2               	goto	l1204
  8599  002E48                     l14490:
  8600  002E48  0E00               	movlw	0
  8601  002E4A  6E2F               	movwf	_ms_count3+1,c	;volatile
  8602  002E4C  0E00               	movlw	0
  8603  002E4E  6E2E               	movwf	_ms_count3,c	;volatile
  8604  002E50                     l14492:
  8605  002E50  502F               	movf	_ms_count3+1,w,c	;volatile
  8606  002E52  E10E               	bnz	l14498
  8607  002E54  0E65               	movlw	101
  8608  002E56  5C2E               	subwf	_ms_count3,w,c	;volatile
  8609  002E58  B0D8               	btfsc	status,0,c
  8610  002E5A  D00A               	goto	l14498
  8611  002E5C  EC74  F039         	call	_PB1pressed	;wreg free
  8612  002E60  0900               	iorlw	0
  8613  002E62  A4D8               	btfss	status,2,c
  8614  002E64  D005               	goto	l14498
  8615  002E66  EC60  F039         	call	_PB2pressed	;wreg free
  8616  002E6A  0900               	iorlw	0
  8617  002E6C  B4D8               	btfsc	status,2,c
  8618  002E6E  D7F0               	goto	l14492
  8619  002E70                     l14498:
  8620  002E70  0E00               	movlw	0
  8621  002E72  6E2F               	movwf	_ms_count3+1,c	;volatile
  8622  002E74  0E00               	movlw	0
  8623  002E76  6E2E               	movwf	_ms_count3,c	;volatile
  8624  002E78  EC74  F039         	call	_PB1pressed	;wreg free
  8625  002E7C  0900               	iorlw	0
  8626  002E7E  A4D8               	btfss	status,2,c
  8627  002E80  EF2F  F01C         	goto	l14966
  8628  002E84  EC60  F039         	call	_PB2pressed	;wreg free
  8629  002E88  0900               	iorlw	0
  8630  002E8A  A4D8               	btfss	status,2,c
  8631  002E8C  EF2F  F01C         	goto	l14966
  8632  002E90  D00E               	goto	l14508
  8633  002E92                     l1217:
  8634  002E92  8C91               	bsf	3985,6,c	;volatile
  8635  002E94  0E3C               	movlw	60
  8636  002E96  ECC4  F039         	call	_Delay10TCYx
  8637  002E9A  0E3C               	movlw	60
  8638  002E9C  ECC4  F039         	call	_Delay10TCYx
  8639  002EA0  9C91               	bcf	3985,6,c	;volatile
  8640  002EA2  0E3C               	movlw	60
  8641  002EA4  ECC4  F039         	call	_Delay10TCYx
  8642  002EA8  0E3C               	movlw	60
  8643  002EAA  ECC4  F039         	call	_Delay10TCYx
  8644  002EAE                     l14508:
  8645  002EAE  502F               	movf	_ms_count3+1,w,c	;volatile
  8646  002EB0  E10E               	bnz	l14514
  8647  002EB2  0EC9               	movlw	201
  8648  002EB4  5C2E               	subwf	_ms_count3,w,c	;volatile
  8649  002EB6  B0D8               	btfsc	status,0,c
  8650  002EB8  D00A               	goto	l14514
  8651  002EBA  EC74  F039         	call	_PB1pressed	;wreg free
  8652  002EBE  0900               	iorlw	0
  8653  002EC0  A4D8               	btfss	status,2,c
  8654  002EC2  D005               	goto	l14514
  8655  002EC4  EC60  F039         	call	_PB2pressed	;wreg free
  8656  002EC8  0900               	iorlw	0
  8657  002ECA  B4D8               	btfsc	status,2,c
  8658  002ECC  D7E2               	goto	l1217
  8659  002ECE                     l14514:
  8660  002ECE  0E00               	movlw	0
  8661  002ED0  6E2F               	movwf	_ms_count3+1,c	;volatile
  8662  002ED2  0E00               	movlw	0
  8663  002ED4  6E2E               	movwf	_ms_count3,c	;volatile
  8664  002ED6                     l14516:
  8665  002ED6  502F               	movf	_ms_count3+1,w,c	;volatile
  8666  002ED8  E10E               	bnz	l14522
  8667  002EDA  0E33               	movlw	51
  8668  002EDC  5C2E               	subwf	_ms_count3,w,c	;volatile
  8669  002EDE  B0D8               	btfsc	status,0,c
  8670  002EE0  D00A               	goto	l14522
  8671  002EE2  EC74  F039         	call	_PB1pressed	;wreg free
  8672  002EE6  0900               	iorlw	0
  8673  002EE8  A4D8               	btfss	status,2,c
  8674  002EEA  D005               	goto	l14522
  8675  002EEC  EC60  F039         	call	_PB2pressed	;wreg free
  8676  002EF0  0900               	iorlw	0
  8677  002EF2  B4D8               	btfsc	status,2,c
  8678  002EF4  D7F0               	goto	l14516
  8679  002EF6                     l14522:
  8680  002EF6  0E00               	movlw	0
  8681  002EF8  6E2F               	movwf	_ms_count3+1,c	;volatile
  8682  002EFA  0E00               	movlw	0
  8683  002EFC  6E2E               	movwf	_ms_count3,c	;volatile
  8684  002EFE  EC74  F039         	call	_PB1pressed	;wreg free
  8685  002F02  0900               	iorlw	0
  8686  002F04  A4D8               	btfss	status,2,c
  8687  002F06  EF2F  F01C         	goto	l14966
  8688  002F0A  EC60  F039         	call	_PB2pressed	;wreg free
  8689  002F0E  0900               	iorlw	0
  8690  002F10  A4D8               	btfss	status,2,c
  8691  002F12  EF2F  F01C         	goto	l14966
  8692  002F16  D00E               	goto	l14532
  8693  002F18                     l1230:
  8694  002F18  8C91               	bsf	3985,6,c	;volatile
  8695  002F1A  0E59               	movlw	89
  8696  002F1C  ECC4  F039         	call	_Delay10TCYx
  8697  002F20  0E59               	movlw	89
  8698  002F22  ECC4  F039         	call	_Delay10TCYx
  8699  002F26  9C91               	bcf	3985,6,c	;volatile
  8700  002F28  0E59               	movlw	89
  8701  002F2A  ECC4  F039         	call	_Delay10TCYx
  8702  002F2E  0E59               	movlw	89
  8703  002F30  ECC4  F039         	call	_Delay10TCYx
  8704  002F34                     l14532:
  8705  002F34  502F               	movf	_ms_count3+1,w,c	;volatile
  8706  002F36  E10E               	bnz	l14538
  8707  002F38  0EC9               	movlw	201
  8708  002F3A  5C2E               	subwf	_ms_count3,w,c	;volatile
  8709  002F3C  B0D8               	btfsc	status,0,c
  8710  002F3E  D00A               	goto	l14538
  8711  002F40  EC74  F039         	call	_PB1pressed	;wreg free
  8712  002F44  0900               	iorlw	0
  8713  002F46  A4D8               	btfss	status,2,c
  8714  002F48  D005               	goto	l14538
  8715  002F4A  EC60  F039         	call	_PB2pressed	;wreg free
  8716  002F4E  0900               	iorlw	0
  8717  002F50  B4D8               	btfsc	status,2,c
  8718  002F52  D7E2               	goto	l1230
  8719  002F54                     l14538:
  8720  002F54  0E00               	movlw	0
  8721  002F56  6E2F               	movwf	_ms_count3+1,c	;volatile
  8722  002F58  0E00               	movlw	0
  8723  002F5A  6E2E               	movwf	_ms_count3,c	;volatile
  8724  002F5C                     l14540:
  8725  002F5C  502F               	movf	_ms_count3+1,w,c	;volatile
  8726  002F5E  E10E               	bnz	l14546
  8727  002F60  0E65               	movlw	101
  8728  002F62  5C2E               	subwf	_ms_count3,w,c	;volatile
  8729  002F64  B0D8               	btfsc	status,0,c
  8730  002F66  D00A               	goto	l14546
  8731  002F68  EC74  F039         	call	_PB1pressed	;wreg free
  8732  002F6C  0900               	iorlw	0
  8733  002F6E  A4D8               	btfss	status,2,c
  8734  002F70  D005               	goto	l14546
  8735  002F72  EC60  F039         	call	_PB2pressed	;wreg free
  8736  002F76  0900               	iorlw	0
  8737  002F78  B4D8               	btfsc	status,2,c
  8738  002F7A  D7F0               	goto	l14540
  8739  002F7C                     l14546:
  8740  002F7C  0E00               	movlw	0
  8741  002F7E  6E2F               	movwf	_ms_count3+1,c	;volatile
  8742  002F80  0E00               	movlw	0
  8743  002F82  6E2E               	movwf	_ms_count3,c	;volatile
  8744  002F84  EC74  F039         	call	_PB1pressed	;wreg free
  8745  002F88  0900               	iorlw	0
  8746  002F8A  A4D8               	btfss	status,2,c
  8747  002F8C  EF2F  F01C         	goto	l14966
  8748  002F90  EC60  F039         	call	_PB2pressed	;wreg free
  8749  002F94  0900               	iorlw	0
  8750  002F96  A4D8               	btfss	status,2,c
  8751  002F98  EF2F  F01C         	goto	l14966
  8752  002F9C  D00E               	goto	l14556
  8753  002F9E                     l1243:
  8754  002F9E  8C91               	bsf	3985,6,c	;volatile
  8755  002FA0  0E50               	movlw	80
  8756  002FA2  ECC4  F039         	call	_Delay10TCYx
  8757  002FA6  0E50               	movlw	80
  8758  002FA8  ECC4  F039         	call	_Delay10TCYx
  8759  002FAC  9C91               	bcf	3985,6,c	;volatile
  8760  002FAE  0E50               	movlw	80
  8761  002FB0  ECC4  F039         	call	_Delay10TCYx
  8762  002FB4  0E50               	movlw	80
  8763  002FB6  ECC4  F039         	call	_Delay10TCYx
  8764  002FBA                     l14556:
  8765  002FBA  502F               	movf	_ms_count3+1,w,c	;volatile
  8766  002FBC  E10E               	bnz	l14562
  8767  002FBE  0EC9               	movlw	201
  8768  002FC0  5C2E               	subwf	_ms_count3,w,c	;volatile
  8769  002FC2  B0D8               	btfsc	status,0,c
  8770  002FC4  D00A               	goto	l14562
  8771  002FC6  EC74  F039         	call	_PB1pressed	;wreg free
  8772  002FCA  0900               	iorlw	0
  8773  002FCC  A4D8               	btfss	status,2,c
  8774  002FCE  D005               	goto	l14562
  8775  002FD0  EC60  F039         	call	_PB2pressed	;wreg free
  8776  002FD4  0900               	iorlw	0
  8777  002FD6  B4D8               	btfsc	status,2,c
  8778  002FD8  D7E2               	goto	l1243
  8779  002FDA                     l14562:
  8780  002FDA  0E00               	movlw	0
  8781  002FDC  6E2F               	movwf	_ms_count3+1,c	;volatile
  8782  002FDE  0E00               	movlw	0
  8783  002FE0  6E2E               	movwf	_ms_count3,c	;volatile
  8784  002FE2                     l14564:
  8785  002FE2  502F               	movf	_ms_count3+1,w,c	;volatile
  8786  002FE4  E10E               	bnz	l14570
  8787  002FE6  0E65               	movlw	101
  8788  002FE8  5C2E               	subwf	_ms_count3,w,c	;volatile
  8789  002FEA  B0D8               	btfsc	status,0,c
  8790  002FEC  D00A               	goto	l14570
  8791  002FEE  EC74  F039         	call	_PB1pressed	;wreg free
  8792  002FF2  0900               	iorlw	0
  8793  002FF4  A4D8               	btfss	status,2,c
  8794  002FF6  D005               	goto	l14570
  8795  002FF8  EC60  F039         	call	_PB2pressed	;wreg free
  8796  002FFC  0900               	iorlw	0
  8797  002FFE  B4D8               	btfsc	status,2,c
  8798  003000  D7F0               	goto	l14564
  8799  003002                     l14570:
  8800  003002  0E00               	movlw	0
  8801  003004  6E2F               	movwf	_ms_count3+1,c	;volatile
  8802  003006  0E00               	movlw	0
  8803  003008  6E2E               	movwf	_ms_count3,c	;volatile
  8804  00300A  EC74  F039         	call	_PB1pressed	;wreg free
  8805  00300E  0900               	iorlw	0
  8806  003010  A4D8               	btfss	status,2,c
  8807  003012  EF2F  F01C         	goto	l14966
  8808  003016  EC60  F039         	call	_PB2pressed	;wreg free
  8809  00301A  0900               	iorlw	0
  8810  00301C  A4D8               	btfss	status,2,c
  8811  00301E  EF2F  F01C         	goto	l14966
  8812  003022  D00E               	goto	l14580
  8813  003024                     l1256:
  8814  003024  8C91               	bsf	3985,6,c	;volatile
  8815  003026  0E47               	movlw	71
  8816  003028  ECC4  F039         	call	_Delay10TCYx
  8817  00302C  0E47               	movlw	71
  8818  00302E  ECC4  F039         	call	_Delay10TCYx
  8819  003032  9C91               	bcf	3985,6,c	;volatile
  8820  003034  0E47               	movlw	71
  8821  003036  ECC4  F039         	call	_Delay10TCYx
  8822  00303A  0E47               	movlw	71
  8823  00303C  ECC4  F039         	call	_Delay10TCYx
  8824  003040                     l14580:
  8825  003040  0E21               	movlw	33
  8826  003042  5C2E               	subwf	_ms_count3,w,c	;volatile
  8827  003044  0E03               	movlw	3
  8828  003046  582F               	subwfb	_ms_count3+1,w,c	;volatile
  8829  003048  B0D8               	btfsc	status,0,c
  8830  00304A  D00A               	goto	l14586
  8831  00304C  EC74  F039         	call	_PB1pressed	;wreg free
  8832  003050  0900               	iorlw	0
  8833  003052  A4D8               	btfss	status,2,c
  8834  003054  D005               	goto	l14586
  8835  003056  EC60  F039         	call	_PB2pressed	;wreg free
  8836  00305A  0900               	iorlw	0
  8837  00305C  B4D8               	btfsc	status,2,c
  8838  00305E  D7E2               	goto	l1256
  8839  003060                     l14586:
  8840  003060  0E00               	movlw	0
  8841  003062  6E2F               	movwf	_ms_count3+1,c	;volatile
  8842  003064  0E00               	movlw	0
  8843  003066  6E2E               	movwf	_ms_count3,c	;volatile
  8844  003068                     l14588:
  8845  003068  502F               	movf	_ms_count3+1,w,c	;volatile
  8846  00306A  E10E               	bnz	l14594
  8847  00306C  0E65               	movlw	101
  8848  00306E  5C2E               	subwf	_ms_count3,w,c	;volatile
  8849  003070  B0D8               	btfsc	status,0,c
  8850  003072  D00A               	goto	l14594
  8851  003074  EC74  F039         	call	_PB1pressed	;wreg free
  8852  003078  0900               	iorlw	0
  8853  00307A  A4D8               	btfss	status,2,c
  8854  00307C  D005               	goto	l14594
  8855  00307E  EC60  F039         	call	_PB2pressed	;wreg free
  8856  003082  0900               	iorlw	0
  8857  003084  B4D8               	btfsc	status,2,c
  8858  003086  D7F0               	goto	l14588
  8859  003088                     l14594:
  8860  003088  0E00               	movlw	0
  8861  00308A  6E2F               	movwf	_ms_count3+1,c	;volatile
  8862  00308C  0E00               	movlw	0
  8863  00308E  6E2E               	movwf	_ms_count3,c	;volatile
  8864  003090  EC74  F039         	call	_PB1pressed	;wreg free
  8865  003094  0900               	iorlw	0
  8866  003096  A4D8               	btfss	status,2,c
  8867  003098  D3E2               	goto	l14966
  8868  00309A  EC60  F039         	call	_PB2pressed	;wreg free
  8869  00309E  0900               	iorlw	0
  8870  0030A0  A4D8               	btfss	status,2,c
  8871  0030A2  D3DD               	goto	l14966
  8872  0030A4  D00E               	goto	l14604
  8873  0030A6                     l1269:
  8874  0030A6  8C91               	bsf	3985,6,c	;volatile
  8875  0030A8  0E43               	movlw	67
  8876  0030AA  ECC4  F039         	call	_Delay10TCYx
  8877  0030AE  0E43               	movlw	67
  8878  0030B0  ECC4  F039         	call	_Delay10TCYx
  8879  0030B4  9C91               	bcf	3985,6,c	;volatile
  8880  0030B6  0E43               	movlw	67
  8881  0030B8  ECC4  F039         	call	_Delay10TCYx
  8882  0030BC  0E43               	movlw	67
  8883  0030BE  ECC4  F039         	call	_Delay10TCYx
  8884  0030C2                     l14604:
  8885  0030C2  502F               	movf	_ms_count3+1,w,c	;volatile
  8886  0030C4  E10E               	bnz	l14610
  8887  0030C6  0EC9               	movlw	201
  8888  0030C8  5C2E               	subwf	_ms_count3,w,c	;volatile
  8889  0030CA  B0D8               	btfsc	status,0,c
  8890  0030CC  D00A               	goto	l14610
  8891  0030CE  EC74  F039         	call	_PB1pressed	;wreg free
  8892  0030D2  0900               	iorlw	0
  8893  0030D4  A4D8               	btfss	status,2,c
  8894  0030D6  D005               	goto	l14610
  8895  0030D8  EC60  F039         	call	_PB2pressed	;wreg free
  8896  0030DC  0900               	iorlw	0
  8897  0030DE  B4D8               	btfsc	status,2,c
  8898  0030E0  D7E2               	goto	l1269
  8899  0030E2                     l14610:
  8900  0030E2  0E00               	movlw	0
  8901  0030E4  6E2F               	movwf	_ms_count3+1,c	;volatile
  8902  0030E6  0E00               	movlw	0
  8903  0030E8  6E2E               	movwf	_ms_count3,c	;volatile
  8904  0030EA                     l14612:
  8905  0030EA  502F               	movf	_ms_count3+1,w,c	;volatile
  8906  0030EC  E10E               	bnz	l14618
  8907  0030EE  0E65               	movlw	101
  8908  0030F0  5C2E               	subwf	_ms_count3,w,c	;volatile
  8909  0030F2  B0D8               	btfsc	status,0,c
  8910  0030F4  D00A               	goto	l14618
  8911  0030F6  EC74  F039         	call	_PB1pressed	;wreg free
  8912  0030FA  0900               	iorlw	0
  8913  0030FC  A4D8               	btfss	status,2,c
  8914  0030FE  D005               	goto	l14618
  8915  003100  EC60  F039         	call	_PB2pressed	;wreg free
  8916  003104  0900               	iorlw	0
  8917  003106  B4D8               	btfsc	status,2,c
  8918  003108  D7F0               	goto	l14612
  8919  00310A                     l14618:
  8920  00310A  0E00               	movlw	0
  8921  00310C  6E2F               	movwf	_ms_count3+1,c	;volatile
  8922  00310E  0E00               	movlw	0
  8923  003110  6E2E               	movwf	_ms_count3,c	;volatile
  8924  003112  EC74  F039         	call	_PB1pressed	;wreg free
  8925  003116  0900               	iorlw	0
  8926  003118  A4D8               	btfss	status,2,c
  8927  00311A  D3A1               	goto	l14966
  8928  00311C  EC60  F039         	call	_PB2pressed	;wreg free
  8929  003120  0900               	iorlw	0
  8930  003122  A4D8               	btfss	status,2,c
  8931  003124  D39C               	goto	l14966
  8932  003126  D00E               	goto	l14628
  8933  003128                     l1282:
  8934  003128  8C91               	bsf	3985,6,c	;volatile
  8935  00312A  0E43               	movlw	67
  8936  00312C  ECC4  F039         	call	_Delay10TCYx
  8937  003130  0E43               	movlw	67
  8938  003132  ECC4  F039         	call	_Delay10TCYx
  8939  003136  9C91               	bcf	3985,6,c	;volatile
  8940  003138  0E43               	movlw	67
  8941  00313A  ECC4  F039         	call	_Delay10TCYx
  8942  00313E  0E43               	movlw	67
  8943  003140  ECC4  F039         	call	_Delay10TCYx
  8944  003144                     l14628:
  8945  003144  502F               	movf	_ms_count3+1,w,c	;volatile
  8946  003146  E10E               	bnz	l14634
  8947  003148  0EC9               	movlw	201
  8948  00314A  5C2E               	subwf	_ms_count3,w,c	;volatile
  8949  00314C  B0D8               	btfsc	status,0,c
  8950  00314E  D00A               	goto	l14634
  8951  003150  EC74  F039         	call	_PB1pressed	;wreg free
  8952  003154  0900               	iorlw	0
  8953  003156  A4D8               	btfss	status,2,c
  8954  003158  D005               	goto	l14634
  8955  00315A  EC60  F039         	call	_PB2pressed	;wreg free
  8956  00315E  0900               	iorlw	0
  8957  003160  B4D8               	btfsc	status,2,c
  8958  003162  D7E2               	goto	l1282
  8959  003164                     l14634:
  8960  003164  0E00               	movlw	0
  8961  003166  6E2F               	movwf	_ms_count3+1,c	;volatile
  8962  003168  0E00               	movlw	0
  8963  00316A  6E2E               	movwf	_ms_count3,c	;volatile
  8964  00316C                     l14636:
  8965  00316C  502F               	movf	_ms_count3+1,w,c	;volatile
  8966  00316E  E10E               	bnz	l14642
  8967  003170  0E65               	movlw	101
  8968  003172  5C2E               	subwf	_ms_count3,w,c	;volatile
  8969  003174  B0D8               	btfsc	status,0,c
  8970  003176  D00A               	goto	l14642
  8971  003178  EC74  F039         	call	_PB1pressed	;wreg free
  8972  00317C  0900               	iorlw	0
  8973  00317E  A4D8               	btfss	status,2,c
  8974  003180  D005               	goto	l14642
  8975  003182  EC60  F039         	call	_PB2pressed	;wreg free
  8976  003186  0900               	iorlw	0
  8977  003188  B4D8               	btfsc	status,2,c
  8978  00318A  D7F0               	goto	l14636
  8979  00318C                     l14642:
  8980  00318C  0E00               	movlw	0
  8981  00318E  6E2F               	movwf	_ms_count3+1,c	;volatile
  8982  003190  0E00               	movlw	0
  8983  003192  6E2E               	movwf	_ms_count3,c	;volatile
  8984  003194  EC74  F039         	call	_PB1pressed	;wreg free
  8985  003198  0900               	iorlw	0
  8986  00319A  A4D8               	btfss	status,2,c
  8987  00319C  D360               	goto	l14966
  8988  00319E  EC60  F039         	call	_PB2pressed	;wreg free
  8989  0031A2  0900               	iorlw	0
  8990  0031A4  A4D8               	btfss	status,2,c
  8991  0031A6  D35B               	goto	l14966
  8992  0031A8  D00E               	goto	l14652
  8993  0031AA                     l1295:
  8994  0031AA  8C91               	bsf	3985,6,c	;volatile
  8995  0031AC  0E43               	movlw	67
  8996  0031AE  ECC4  F039         	call	_Delay10TCYx
  8997  0031B2  0E43               	movlw	67
  8998  0031B4  ECC4  F039         	call	_Delay10TCYx
  8999  0031B8  9C91               	bcf	3985,6,c	;volatile
  9000  0031BA  0E43               	movlw	67
  9001  0031BC  ECC4  F039         	call	_Delay10TCYx
  9002  0031C0  0E43               	movlw	67
  9003  0031C2  ECC4  F039         	call	_Delay10TCYx
  9004  0031C6                     l14652:
  9005  0031C6  502F               	movf	_ms_count3+1,w,c	;volatile
  9006  0031C8  E10E               	bnz	l14658
  9007  0031CA  0EC9               	movlw	201
  9008  0031CC  5C2E               	subwf	_ms_count3,w,c	;volatile
  9009  0031CE  B0D8               	btfsc	status,0,c
  9010  0031D0  D00A               	goto	l14658
  9011  0031D2  EC74  F039         	call	_PB1pressed	;wreg free
  9012  0031D6  0900               	iorlw	0
  9013  0031D8  A4D8               	btfss	status,2,c
  9014  0031DA  D005               	goto	l14658
  9015  0031DC  EC60  F039         	call	_PB2pressed	;wreg free
  9016  0031E0  0900               	iorlw	0
  9017  0031E2  B4D8               	btfsc	status,2,c
  9018  0031E4  D7E2               	goto	l1295
  9019  0031E6                     l14658:
  9020  0031E6  0E00               	movlw	0
  9021  0031E8  6E2F               	movwf	_ms_count3+1,c	;volatile
  9022  0031EA  0E00               	movlw	0
  9023  0031EC  6E2E               	movwf	_ms_count3,c	;volatile
  9024  0031EE                     l14660:
  9025  0031EE  502F               	movf	_ms_count3+1,w,c	;volatile
  9026  0031F0  E10E               	bnz	l14666
  9027  0031F2  0E65               	movlw	101
  9028  0031F4  5C2E               	subwf	_ms_count3,w,c	;volatile
  9029  0031F6  B0D8               	btfsc	status,0,c
  9030  0031F8  D00A               	goto	l14666
  9031  0031FA  EC74  F039         	call	_PB1pressed	;wreg free
  9032  0031FE  0900               	iorlw	0
  9033  003200  A4D8               	btfss	status,2,c
  9034  003202  D005               	goto	l14666
  9035  003204  EC60  F039         	call	_PB2pressed	;wreg free
  9036  003208  0900               	iorlw	0
  9037  00320A  B4D8               	btfsc	status,2,c
  9038  00320C  D7F0               	goto	l14660
  9039  00320E                     l14666:
  9040  00320E  0E00               	movlw	0
  9041  003210  6E2F               	movwf	_ms_count3+1,c	;volatile
  9042  003212  0E00               	movlw	0
  9043  003214  6E2E               	movwf	_ms_count3,c	;volatile
  9044  003216  EC74  F039         	call	_PB1pressed	;wreg free
  9045  00321A  0900               	iorlw	0
  9046  00321C  A4D8               	btfss	status,2,c
  9047  00321E  D31F               	goto	l14966
  9048  003220  EC60  F039         	call	_PB2pressed	;wreg free
  9049  003224  0900               	iorlw	0
  9050  003226  A4D8               	btfss	status,2,c
  9051  003228  D31A               	goto	l14966
  9052  00322A  D00E               	goto	l14676
  9053  00322C                     l1308:
  9054  00322C  8C91               	bsf	3985,6,c	;volatile
  9055  00322E  0E43               	movlw	67
  9056  003230  ECC4  F039         	call	_Delay10TCYx
  9057  003234  0E43               	movlw	67
  9058  003236  ECC4  F039         	call	_Delay10TCYx
  9059  00323A  9C91               	bcf	3985,6,c	;volatile
  9060  00323C  0E43               	movlw	67
  9061  00323E  ECC4  F039         	call	_Delay10TCYx
  9062  003242  0E43               	movlw	67
  9063  003244  ECC4  F039         	call	_Delay10TCYx
  9064  003248                     l14676:
  9065  003248  502F               	movf	_ms_count3+1,w,c	;volatile
  9066  00324A  E10E               	bnz	l14682
  9067  00324C  0EC9               	movlw	201
  9068  00324E  5C2E               	subwf	_ms_count3,w,c	;volatile
  9069  003250  B0D8               	btfsc	status,0,c
  9070  003252  D00A               	goto	l14682
  9071  003254  EC74  F039         	call	_PB1pressed	;wreg free
  9072  003258  0900               	iorlw	0
  9073  00325A  A4D8               	btfss	status,2,c
  9074  00325C  D005               	goto	l14682
  9075  00325E  EC60  F039         	call	_PB2pressed	;wreg free
  9076  003262  0900               	iorlw	0
  9077  003264  B4D8               	btfsc	status,2,c
  9078  003266  D7E2               	goto	l1308
  9079  003268                     l14682:
  9080  003268  0E00               	movlw	0
  9081  00326A  6E2F               	movwf	_ms_count3+1,c	;volatile
  9082  00326C  0E00               	movlw	0
  9083  00326E  6E2E               	movwf	_ms_count3,c	;volatile
  9084  003270                     l14684:
  9085  003270  502F               	movf	_ms_count3+1,w,c	;volatile
  9086  003272  E10E               	bnz	l14690
  9087  003274  0E65               	movlw	101
  9088  003276  5C2E               	subwf	_ms_count3,w,c	;volatile
  9089  003278  B0D8               	btfsc	status,0,c
  9090  00327A  D00A               	goto	l14690
  9091  00327C  EC74  F039         	call	_PB1pressed	;wreg free
  9092  003280  0900               	iorlw	0
  9093  003282  A4D8               	btfss	status,2,c
  9094  003284  D005               	goto	l14690
  9095  003286  EC60  F039         	call	_PB2pressed	;wreg free
  9096  00328A  0900               	iorlw	0
  9097  00328C  B4D8               	btfsc	status,2,c
  9098  00328E  D7F0               	goto	l14684
  9099  003290                     l14690:
  9100  003290  0E00               	movlw	0
  9101  003292  6E2F               	movwf	_ms_count3+1,c	;volatile
  9102  003294  0E00               	movlw	0
  9103  003296  6E2E               	movwf	_ms_count3,c	;volatile
  9104  003298  EC74  F039         	call	_PB1pressed	;wreg free
  9105  00329C  0900               	iorlw	0
  9106  00329E  A4D8               	btfss	status,2,c
  9107  0032A0  D2DE               	goto	l14966
  9108  0032A2  EC60  F039         	call	_PB2pressed	;wreg free
  9109  0032A6  0900               	iorlw	0
  9110  0032A8  A4D8               	btfss	status,2,c
  9111  0032AA  D2D9               	goto	l14966
  9112  0032AC  D00E               	goto	l14700
  9113  0032AE                     l1321:
  9114  0032AE  8C91               	bsf	3985,6,c	;volatile
  9115  0032B0  0E47               	movlw	71
  9116  0032B2  ECC4  F039         	call	_Delay10TCYx
  9117  0032B6  0E47               	movlw	71
  9118  0032B8  ECC4  F039         	call	_Delay10TCYx
  9119  0032BC  9C91               	bcf	3985,6,c	;volatile
  9120  0032BE  0E47               	movlw	71
  9121  0032C0  ECC4  F039         	call	_Delay10TCYx
  9122  0032C4  0E47               	movlw	71
  9123  0032C6  ECC4  F039         	call	_Delay10TCYx
  9124  0032CA                     l14700:
  9125  0032CA  502F               	movf	_ms_count3+1,w,c	;volatile
  9126  0032CC  E10E               	bnz	l14706
  9127  0032CE  0EC9               	movlw	201
  9128  0032D0  5C2E               	subwf	_ms_count3,w,c	;volatile
  9129  0032D2  B0D8               	btfsc	status,0,c
  9130  0032D4  D00A               	goto	l14706
  9131  0032D6  EC74  F039         	call	_PB1pressed	;wreg free
  9132  0032DA  0900               	iorlw	0
  9133  0032DC  A4D8               	btfss	status,2,c
  9134  0032DE  D005               	goto	l14706
  9135  0032E0  EC60  F039         	call	_PB2pressed	;wreg free
  9136  0032E4  0900               	iorlw	0
  9137  0032E6  B4D8               	btfsc	status,2,c
  9138  0032E8  D7E2               	goto	l1321
  9139  0032EA                     l14706:
  9140  0032EA  0E00               	movlw	0
  9141  0032EC  6E2F               	movwf	_ms_count3+1,c	;volatile
  9142  0032EE  0E00               	movlw	0
  9143  0032F0  6E2E               	movwf	_ms_count3,c	;volatile
  9144  0032F2                     l14708:
  9145  0032F2  502F               	movf	_ms_count3+1,w,c	;volatile
  9146  0032F4  E10E               	bnz	l14714
  9147  0032F6  0E65               	movlw	101
  9148  0032F8  5C2E               	subwf	_ms_count3,w,c	;volatile
  9149  0032FA  B0D8               	btfsc	status,0,c
  9150  0032FC  D00A               	goto	l14714
  9151  0032FE  EC74  F039         	call	_PB1pressed	;wreg free
  9152  003302  0900               	iorlw	0
  9153  003304  A4D8               	btfss	status,2,c
  9154  003306  D005               	goto	l14714
  9155  003308  EC60  F039         	call	_PB2pressed	;wreg free
  9156  00330C  0900               	iorlw	0
  9157  00330E  B4D8               	btfsc	status,2,c
  9158  003310  D7F0               	goto	l14708
  9159  003312                     l14714:
  9160  003312  0E00               	movlw	0
  9161  003314  6E2F               	movwf	_ms_count3+1,c	;volatile
  9162  003316  0E00               	movlw	0
  9163  003318  6E2E               	movwf	_ms_count3,c	;volatile
  9164  00331A  EC74  F039         	call	_PB1pressed	;wreg free
  9165  00331E  0900               	iorlw	0
  9166  003320  A4D8               	btfss	status,2,c
  9167  003322  D29D               	goto	l14966
  9168  003324  EC60  F039         	call	_PB2pressed	;wreg free
  9169  003328  0900               	iorlw	0
  9170  00332A  A4D8               	btfss	status,2,c
  9171  00332C  D298               	goto	l14966
  9172  00332E  D00E               	goto	l14724
  9173  003330                     l1334:
  9174  003330  8C91               	bsf	3985,6,c	;volatile
  9175  003332  0E47               	movlw	71
  9176  003334  ECC4  F039         	call	_Delay10TCYx
  9177  003338  0E47               	movlw	71
  9178  00333A  ECC4  F039         	call	_Delay10TCYx
  9179  00333E  9C91               	bcf	3985,6,c	;volatile
  9180  003340  0E47               	movlw	71
  9181  003342  ECC4  F039         	call	_Delay10TCYx
  9182  003346  0E47               	movlw	71
  9183  003348  ECC4  F039         	call	_Delay10TCYx
  9184  00334C                     l14724:
  9185  00334C  502F               	movf	_ms_count3+1,w,c	;volatile
  9186  00334E  E10E               	bnz	l14730
  9187  003350  0EC9               	movlw	201
  9188  003352  5C2E               	subwf	_ms_count3,w,c	;volatile
  9189  003354  B0D8               	btfsc	status,0,c
  9190  003356  D00A               	goto	l14730
  9191  003358  EC74  F039         	call	_PB1pressed	;wreg free
  9192  00335C  0900               	iorlw	0
  9193  00335E  A4D8               	btfss	status,2,c
  9194  003360  D005               	goto	l14730
  9195  003362  EC60  F039         	call	_PB2pressed	;wreg free
  9196  003366  0900               	iorlw	0
  9197  003368  B4D8               	btfsc	status,2,c
  9198  00336A  D7E2               	goto	l1334
  9199  00336C                     l14730:
  9200  00336C  0E00               	movlw	0
  9201  00336E  6E2F               	movwf	_ms_count3+1,c	;volatile
  9202  003370  0E00               	movlw	0
  9203  003372  6E2E               	movwf	_ms_count3,c	;volatile
  9204  003374                     l14732:
  9205  003374  502F               	movf	_ms_count3+1,w,c	;volatile
  9206  003376  E10E               	bnz	l14738
  9207  003378  0E65               	movlw	101
  9208  00337A  5C2E               	subwf	_ms_count3,w,c	;volatile
  9209  00337C  B0D8               	btfsc	status,0,c
  9210  00337E  D00A               	goto	l14738
  9211  003380  EC74  F039         	call	_PB1pressed	;wreg free
  9212  003384  0900               	iorlw	0
  9213  003386  A4D8               	btfss	status,2,c
  9214  003388  D005               	goto	l14738
  9215  00338A  EC60  F039         	call	_PB2pressed	;wreg free
  9216  00338E  0900               	iorlw	0
  9217  003390  B4D8               	btfsc	status,2,c
  9218  003392  D7F0               	goto	l14732
  9219  003394                     l14738:
  9220  003394  0E00               	movlw	0
  9221  003396  6E2F               	movwf	_ms_count3+1,c	;volatile
  9222  003398  0E00               	movlw	0
  9223  00339A  6E2E               	movwf	_ms_count3,c	;volatile
  9224  00339C  EC74  F039         	call	_PB1pressed	;wreg free
  9225  0033A0  0900               	iorlw	0
  9226  0033A2  A4D8               	btfss	status,2,c
  9227  0033A4  D25C               	goto	l14966
  9228  0033A6  EC60  F039         	call	_PB2pressed	;wreg free
  9229  0033AA  0900               	iorlw	0
  9230  0033AC  A4D8               	btfss	status,2,c
  9231  0033AE  D257               	goto	l14966
  9232  0033B0  D00E               	goto	l14748
  9233  0033B2                     l1347:
  9234  0033B2  8C91               	bsf	3985,6,c	;volatile
  9235  0033B4  0E47               	movlw	71
  9236  0033B6  ECC4  F039         	call	_Delay10TCYx
  9237  0033BA  0E47               	movlw	71
  9238  0033BC  ECC4  F039         	call	_Delay10TCYx
  9239  0033C0  9C91               	bcf	3985,6,c	;volatile
  9240  0033C2  0E47               	movlw	71
  9241  0033C4  ECC4  F039         	call	_Delay10TCYx
  9242  0033C8  0E47               	movlw	71
  9243  0033CA  ECC4  F039         	call	_Delay10TCYx
  9244  0033CE                     l14748:
  9245  0033CE  502F               	movf	_ms_count3+1,w,c	;volatile
  9246  0033D0  E10E               	bnz	l14754
  9247  0033D2  0EC9               	movlw	201
  9248  0033D4  5C2E               	subwf	_ms_count3,w,c	;volatile
  9249  0033D6  B0D8               	btfsc	status,0,c
  9250  0033D8  D00A               	goto	l14754
  9251  0033DA  EC74  F039         	call	_PB1pressed	;wreg free
  9252  0033DE  0900               	iorlw	0
  9253  0033E0  A4D8               	btfss	status,2,c
  9254  0033E2  D005               	goto	l14754
  9255  0033E4  EC60  F039         	call	_PB2pressed	;wreg free
  9256  0033E8  0900               	iorlw	0
  9257  0033EA  B4D8               	btfsc	status,2,c
  9258  0033EC  D7E2               	goto	l1347
  9259  0033EE                     l14754:
  9260  0033EE  0E00               	movlw	0
  9261  0033F0  6E2F               	movwf	_ms_count3+1,c	;volatile
  9262  0033F2  0E00               	movlw	0
  9263  0033F4  6E2E               	movwf	_ms_count3,c	;volatile
  9264  0033F6                     l14756:
  9265  0033F6  502F               	movf	_ms_count3+1,w,c	;volatile
  9266  0033F8  E10E               	bnz	l14762
  9267  0033FA  0E65               	movlw	101
  9268  0033FC  5C2E               	subwf	_ms_count3,w,c	;volatile
  9269  0033FE  B0D8               	btfsc	status,0,c
  9270  003400  D00A               	goto	l14762
  9271  003402  EC74  F039         	call	_PB1pressed	;wreg free
  9272  003406  0900               	iorlw	0
  9273  003408  A4D8               	btfss	status,2,c
  9274  00340A  D005               	goto	l14762
  9275  00340C  EC60  F039         	call	_PB2pressed	;wreg free
  9276  003410  0900               	iorlw	0
  9277  003412  B4D8               	btfsc	status,2,c
  9278  003414  D7F0               	goto	l14756
  9279  003416                     l14762:
  9280  003416  0E00               	movlw	0
  9281  003418  6E2F               	movwf	_ms_count3+1,c	;volatile
  9282  00341A  0E00               	movlw	0
  9283  00341C  6E2E               	movwf	_ms_count3,c	;volatile
  9284  00341E  EC74  F039         	call	_PB1pressed	;wreg free
  9285  003422  0900               	iorlw	0
  9286  003424  A4D8               	btfss	status,2,c
  9287  003426  D21B               	goto	l14966
  9288  003428  EC60  F039         	call	_PB2pressed	;wreg free
  9289  00342C  0900               	iorlw	0
  9290  00342E  A4D8               	btfss	status,2,c
  9291  003430  D216               	goto	l14966
  9292  003432  D00E               	goto	l14772
  9293  003434                     l1360:
  9294  003434  8C91               	bsf	3985,6,c	;volatile
  9295  003436  0E47               	movlw	71
  9296  003438  ECC4  F039         	call	_Delay10TCYx
  9297  00343C  0E47               	movlw	71
  9298  00343E  ECC4  F039         	call	_Delay10TCYx
  9299  003442  9C91               	bcf	3985,6,c	;volatile
  9300  003444  0E47               	movlw	71
  9301  003446  ECC4  F039         	call	_Delay10TCYx
  9302  00344A  0E47               	movlw	71
  9303  00344C  ECC4  F039         	call	_Delay10TCYx
  9304  003450                     l14772:
  9305  003450  502F               	movf	_ms_count3+1,w,c	;volatile
  9306  003452  E10E               	bnz	l14778
  9307  003454  0E65               	movlw	101
  9308  003456  5C2E               	subwf	_ms_count3,w,c	;volatile
  9309  003458  B0D8               	btfsc	status,0,c
  9310  00345A  D00A               	goto	l14778
  9311  00345C  EC74  F039         	call	_PB1pressed	;wreg free
  9312  003460  0900               	iorlw	0
  9313  003462  A4D8               	btfss	status,2,c
  9314  003464  D005               	goto	l14778
  9315  003466  EC60  F039         	call	_PB2pressed	;wreg free
  9316  00346A  0900               	iorlw	0
  9317  00346C  B4D8               	btfsc	status,2,c
  9318  00346E  D7E2               	goto	l1360
  9319  003470                     l14778:
  9320  003470  0E00               	movlw	0
  9321  003472  6E2F               	movwf	_ms_count3+1,c	;volatile
  9322  003474  0E00               	movlw	0
  9323  003476  6E2E               	movwf	_ms_count3,c	;volatile
  9324  003478                     l14780:
  9325  003478  502F               	movf	_ms_count3+1,w,c	;volatile
  9326  00347A  E10E               	bnz	l14786
  9327  00347C  0E33               	movlw	51
  9328  00347E  5C2E               	subwf	_ms_count3,w,c	;volatile
  9329  003480  B0D8               	btfsc	status,0,c
  9330  003482  D00A               	goto	l14786
  9331  003484  EC74  F039         	call	_PB1pressed	;wreg free
  9332  003488  0900               	iorlw	0
  9333  00348A  A4D8               	btfss	status,2,c
  9334  00348C  D005               	goto	l14786
  9335  00348E  EC60  F039         	call	_PB2pressed	;wreg free
  9336  003492  0900               	iorlw	0
  9337  003494  B4D8               	btfsc	status,2,c
  9338  003496  D7F0               	goto	l14780
  9339  003498                     l14786:
  9340  003498  0E00               	movlw	0
  9341  00349A  6E2F               	movwf	_ms_count3+1,c	;volatile
  9342  00349C  0E00               	movlw	0
  9343  00349E  6E2E               	movwf	_ms_count3,c	;volatile
  9344  0034A0  EC74  F039         	call	_PB1pressed	;wreg free
  9345  0034A4  0900               	iorlw	0
  9346  0034A6  A4D8               	btfss	status,2,c
  9347  0034A8  D1DA               	goto	l14966
  9348  0034AA  EC60  F039         	call	_PB2pressed	;wreg free
  9349  0034AE  0900               	iorlw	0
  9350  0034B0  A4D8               	btfss	status,2,c
  9351  0034B2  D1D5               	goto	l14966
  9352  0034B4  D00E               	goto	l14796
  9353  0034B6                     l1373:
  9354  0034B6  8C91               	bsf	3985,6,c	;volatile
  9355  0034B8  0E47               	movlw	71
  9356  0034BA  ECC4  F039         	call	_Delay10TCYx
  9357  0034BE  0E47               	movlw	71
  9358  0034C0  ECC4  F039         	call	_Delay10TCYx
  9359  0034C4  9C91               	bcf	3985,6,c	;volatile
  9360  0034C6  0E47               	movlw	71
  9361  0034C8  ECC4  F039         	call	_Delay10TCYx
  9362  0034CC  0E47               	movlw	71
  9363  0034CE  ECC4  F039         	call	_Delay10TCYx
  9364  0034D2                     l14796:
  9365  0034D2  502F               	movf	_ms_count3+1,w,c	;volatile
  9366  0034D4  E10E               	bnz	l14802
  9367  0034D6  0E65               	movlw	101
  9368  0034D8  5C2E               	subwf	_ms_count3,w,c	;volatile
  9369  0034DA  B0D8               	btfsc	status,0,c
  9370  0034DC  D00A               	goto	l14802
  9371  0034DE  EC74  F039         	call	_PB1pressed	;wreg free
  9372  0034E2  0900               	iorlw	0
  9373  0034E4  A4D8               	btfss	status,2,c
  9374  0034E6  D005               	goto	l14802
  9375  0034E8  EC60  F039         	call	_PB2pressed	;wreg free
  9376  0034EC  0900               	iorlw	0
  9377  0034EE  B4D8               	btfsc	status,2,c
  9378  0034F0  D7E2               	goto	l1373
  9379  0034F2                     l14802:
  9380  0034F2  0E00               	movlw	0
  9381  0034F4  6E2F               	movwf	_ms_count3+1,c	;volatile
  9382  0034F6  0E00               	movlw	0
  9383  0034F8  6E2E               	movwf	_ms_count3,c	;volatile
  9384  0034FA                     l14804:
  9385  0034FA  502F               	movf	_ms_count3+1,w,c	;volatile
  9386  0034FC  E10E               	bnz	l14810
  9387  0034FE  0E65               	movlw	101
  9388  003500  5C2E               	subwf	_ms_count3,w,c	;volatile
  9389  003502  B0D8               	btfsc	status,0,c
  9390  003504  D00A               	goto	l14810
  9391  003506  EC74  F039         	call	_PB1pressed	;wreg free
  9392  00350A  0900               	iorlw	0
  9393  00350C  A4D8               	btfss	status,2,c
  9394  00350E  D005               	goto	l14810
  9395  003510  EC60  F039         	call	_PB2pressed	;wreg free
  9396  003514  0900               	iorlw	0
  9397  003516  B4D8               	btfsc	status,2,c
  9398  003518  D7F0               	goto	l14804
  9399  00351A                     l14810:
  9400  00351A  0E00               	movlw	0
  9401  00351C  6E2F               	movwf	_ms_count3+1,c	;volatile
  9402  00351E  0E00               	movlw	0
  9403  003520  6E2E               	movwf	_ms_count3,c	;volatile
  9404  003522  EC74  F039         	call	_PB1pressed	;wreg free
  9405  003526  0900               	iorlw	0
  9406  003528  A4D8               	btfss	status,2,c
  9407  00352A  D199               	goto	l14966
  9408  00352C  EC60  F039         	call	_PB2pressed	;wreg free
  9409  003530  0900               	iorlw	0
  9410  003532  A4D8               	btfss	status,2,c
  9411  003534  D194               	goto	l14966
  9412  003536  D00E               	goto	l14820
  9413  003538                     l1386:
  9414  003538  8C91               	bsf	3985,6,c	;volatile
  9415  00353A  0E47               	movlw	71
  9416  00353C  ECC4  F039         	call	_Delay10TCYx
  9417  003540  0E47               	movlw	71
  9418  003542  ECC4  F039         	call	_Delay10TCYx
  9419  003546  9C91               	bcf	3985,6,c	;volatile
  9420  003548  0E47               	movlw	71
  9421  00354A  ECC4  F039         	call	_Delay10TCYx
  9422  00354E  0E47               	movlw	71
  9423  003550  ECC4  F039         	call	_Delay10TCYx
  9424  003554                     l14820:
  9425  003554  502F               	movf	_ms_count3+1,w,c	;volatile
  9426  003556  E10E               	bnz	l14826
  9427  003558  0EC9               	movlw	201
  9428  00355A  5C2E               	subwf	_ms_count3,w,c	;volatile
  9429  00355C  B0D8               	btfsc	status,0,c
  9430  00355E  D00A               	goto	l14826
  9431  003560  EC74  F039         	call	_PB1pressed	;wreg free
  9432  003564  0900               	iorlw	0
  9433  003566  A4D8               	btfss	status,2,c
  9434  003568  D005               	goto	l14826
  9435  00356A  EC60  F039         	call	_PB2pressed	;wreg free
  9436  00356E  0900               	iorlw	0
  9437  003570  B4D8               	btfsc	status,2,c
  9438  003572  D7E2               	goto	l1386
  9439  003574                     l14826:
  9440  003574  0E00               	movlw	0
  9441  003576  6E2F               	movwf	_ms_count3+1,c	;volatile
  9442  003578  0E00               	movlw	0
  9443  00357A  6E2E               	movwf	_ms_count3,c	;volatile
  9444  00357C                     l14828:
  9445  00357C  502F               	movf	_ms_count3+1,w,c	;volatile
  9446  00357E  E10E               	bnz	l14834
  9447  003580  0E65               	movlw	101
  9448  003582  5C2E               	subwf	_ms_count3,w,c	;volatile
  9449  003584  B0D8               	btfsc	status,0,c
  9450  003586  D00A               	goto	l14834
  9451  003588  EC74  F039         	call	_PB1pressed	;wreg free
  9452  00358C  0900               	iorlw	0
  9453  00358E  A4D8               	btfss	status,2,c
  9454  003590  D005               	goto	l14834
  9455  003592  EC60  F039         	call	_PB2pressed	;wreg free
  9456  003596  0900               	iorlw	0
  9457  003598  B4D8               	btfsc	status,2,c
  9458  00359A  D7F0               	goto	l14828
  9459  00359C                     l14834:
  9460  00359C  0E00               	movlw	0
  9461  00359E  6E2F               	movwf	_ms_count3+1,c	;volatile
  9462  0035A0  0E00               	movlw	0
  9463  0035A2  6E2E               	movwf	_ms_count3,c	;volatile
  9464  0035A4  EC74  F039         	call	_PB1pressed	;wreg free
  9465  0035A8  0900               	iorlw	0
  9466  0035AA  A4D8               	btfss	status,2,c
  9467  0035AC  D158               	goto	l14966
  9468  0035AE  EC60  F039         	call	_PB2pressed	;wreg free
  9469  0035B2  0900               	iorlw	0
  9470  0035B4  A4D8               	btfss	status,2,c
  9471  0035B6  D153               	goto	l14966
  9472  0035B8  D00E               	goto	l14844
  9473  0035BA                     l1399:
  9474  0035BA  8C91               	bsf	3985,6,c	;volatile
  9475  0035BC  0E50               	movlw	80
  9476  0035BE  ECC4  F039         	call	_Delay10TCYx
  9477  0035C2  0E50               	movlw	80
  9478  0035C4  ECC4  F039         	call	_Delay10TCYx
  9479  0035C8  9C91               	bcf	3985,6,c	;volatile
  9480  0035CA  0E50               	movlw	80
  9481  0035CC  ECC4  F039         	call	_Delay10TCYx
  9482  0035D0  0E50               	movlw	80
  9483  0035D2  ECC4  F039         	call	_Delay10TCYx
  9484  0035D6                     l14844:
  9485  0035D6  502F               	movf	_ms_count3+1,w,c	;volatile
  9486  0035D8  E10E               	bnz	l14850
  9487  0035DA  0EC9               	movlw	201
  9488  0035DC  5C2E               	subwf	_ms_count3,w,c	;volatile
  9489  0035DE  B0D8               	btfsc	status,0,c
  9490  0035E0  D00A               	goto	l14850
  9491  0035E2  EC74  F039         	call	_PB1pressed	;wreg free
  9492  0035E6  0900               	iorlw	0
  9493  0035E8  A4D8               	btfss	status,2,c
  9494  0035EA  D005               	goto	l14850
  9495  0035EC  EC60  F039         	call	_PB2pressed	;wreg free
  9496  0035F0  0900               	iorlw	0
  9497  0035F2  B4D8               	btfsc	status,2,c
  9498  0035F4  D7E2               	goto	l1399
  9499  0035F6                     l14850:
  9500  0035F6  0E00               	movlw	0
  9501  0035F8  6E2F               	movwf	_ms_count3+1,c	;volatile
  9502  0035FA  0E00               	movlw	0
  9503  0035FC  6E2E               	movwf	_ms_count3,c	;volatile
  9504  0035FE                     l14852:
  9505  0035FE  502F               	movf	_ms_count3+1,w,c	;volatile
  9506  003600  E10E               	bnz	l14858
  9507  003602  0E65               	movlw	101
  9508  003604  5C2E               	subwf	_ms_count3,w,c	;volatile
  9509  003606  B0D8               	btfsc	status,0,c
  9510  003608  D00A               	goto	l14858
  9511  00360A  EC74  F039         	call	_PB1pressed	;wreg free
  9512  00360E  0900               	iorlw	0
  9513  003610  A4D8               	btfss	status,2,c
  9514  003612  D005               	goto	l14858
  9515  003614  EC60  F039         	call	_PB2pressed	;wreg free
  9516  003618  0900               	iorlw	0
  9517  00361A  B4D8               	btfsc	status,2,c
  9518  00361C  D7F0               	goto	l14852
  9519  00361E                     l14858:
  9520  00361E  0E00               	movlw	0
  9521  003620  6E2F               	movwf	_ms_count3+1,c	;volatile
  9522  003622  0E00               	movlw	0
  9523  003624  6E2E               	movwf	_ms_count3,c	;volatile
  9524  003626  EC74  F039         	call	_PB1pressed	;wreg free
  9525  00362A  0900               	iorlw	0
  9526  00362C  A4D8               	btfss	status,2,c
  9527  00362E  D117               	goto	l14966
  9528  003630  EC60  F039         	call	_PB2pressed	;wreg free
  9529  003634  0900               	iorlw	0
  9530  003636  A4D8               	btfss	status,2,c
  9531  003638  D112               	goto	l14966
  9532  00363A  D00E               	goto	l14868
  9533  00363C                     l1412:
  9534  00363C  8C91               	bsf	3985,6,c	;volatile
  9535  00363E  0E50               	movlw	80
  9536  003640  ECC4  F039         	call	_Delay10TCYx
  9537  003644  0E50               	movlw	80
  9538  003646  ECC4  F039         	call	_Delay10TCYx
  9539  00364A  9C91               	bcf	3985,6,c	;volatile
  9540  00364C  0E50               	movlw	80
  9541  00364E  ECC4  F039         	call	_Delay10TCYx
  9542  003652  0E50               	movlw	80
  9543  003654  ECC4  F039         	call	_Delay10TCYx
  9544  003658                     l14868:
  9545  003658  502F               	movf	_ms_count3+1,w,c	;volatile
  9546  00365A  E10E               	bnz	l14874
  9547  00365C  0EC9               	movlw	201
  9548  00365E  5C2E               	subwf	_ms_count3,w,c	;volatile
  9549  003660  B0D8               	btfsc	status,0,c
  9550  003662  D00A               	goto	l14874
  9551  003664  EC74  F039         	call	_PB1pressed	;wreg free
  9552  003668  0900               	iorlw	0
  9553  00366A  A4D8               	btfss	status,2,c
  9554  00366C  D005               	goto	l14874
  9555  00366E  EC60  F039         	call	_PB2pressed	;wreg free
  9556  003672  0900               	iorlw	0
  9557  003674  B4D8               	btfsc	status,2,c
  9558  003676  D7E2               	goto	l1412
  9559  003678                     l14874:
  9560  003678  0E00               	movlw	0
  9561  00367A  6E2F               	movwf	_ms_count3+1,c	;volatile
  9562  00367C  0E00               	movlw	0
  9563  00367E  6E2E               	movwf	_ms_count3,c	;volatile
  9564  003680                     l14876:
  9565  003680  502F               	movf	_ms_count3+1,w,c	;volatile
  9566  003682  E10E               	bnz	l14882
  9567  003684  0E65               	movlw	101
  9568  003686  5C2E               	subwf	_ms_count3,w,c	;volatile
  9569  003688  B0D8               	btfsc	status,0,c
  9570  00368A  D00A               	goto	l14882
  9571  00368C  EC74  F039         	call	_PB1pressed	;wreg free
  9572  003690  0900               	iorlw	0
  9573  003692  A4D8               	btfss	status,2,c
  9574  003694  D005               	goto	l14882
  9575  003696  EC60  F039         	call	_PB2pressed	;wreg free
  9576  00369A  0900               	iorlw	0
  9577  00369C  B4D8               	btfsc	status,2,c
  9578  00369E  D7F0               	goto	l14876
  9579  0036A0                     l14882:
  9580  0036A0  0E00               	movlw	0
  9581  0036A2  6E2F               	movwf	_ms_count3+1,c	;volatile
  9582  0036A4  0E00               	movlw	0
  9583  0036A6  6E2E               	movwf	_ms_count3,c	;volatile
  9584  0036A8  EC74  F039         	call	_PB1pressed	;wreg free
  9585  0036AC  0900               	iorlw	0
  9586  0036AE  A4D8               	btfss	status,2,c
  9587  0036B0  D0D6               	goto	l14966
  9588  0036B2  EC60  F039         	call	_PB2pressed	;wreg free
  9589  0036B6  0900               	iorlw	0
  9590  0036B8  A4D8               	btfss	status,2,c
  9591  0036BA  D0D1               	goto	l14966
  9592  0036BC  D00E               	goto	l14892
  9593  0036BE                     l1425:
  9594  0036BE  8C91               	bsf	3985,6,c	;volatile
  9595  0036C0  0E47               	movlw	71
  9596  0036C2  ECC4  F039         	call	_Delay10TCYx
  9597  0036C6  0E47               	movlw	71
  9598  0036C8  ECC4  F039         	call	_Delay10TCYx
  9599  0036CC  9C91               	bcf	3985,6,c	;volatile
  9600  0036CE  0E47               	movlw	71
  9601  0036D0  ECC4  F039         	call	_Delay10TCYx
  9602  0036D4  0E47               	movlw	71
  9603  0036D6  ECC4  F039         	call	_Delay10TCYx
  9604  0036DA                     l14892:
  9605  0036DA  502F               	movf	_ms_count3+1,w,c	;volatile
  9606  0036DC  E10E               	bnz	l14898
  9607  0036DE  0EC9               	movlw	201
  9608  0036E0  5C2E               	subwf	_ms_count3,w,c	;volatile
  9609  0036E2  B0D8               	btfsc	status,0,c
  9610  0036E4  D00A               	goto	l14898
  9611  0036E6  EC74  F039         	call	_PB1pressed	;wreg free
  9612  0036EA  0900               	iorlw	0
  9613  0036EC  A4D8               	btfss	status,2,c
  9614  0036EE  D005               	goto	l14898
  9615  0036F0  EC60  F039         	call	_PB2pressed	;wreg free
  9616  0036F4  0900               	iorlw	0
  9617  0036F6  B4D8               	btfsc	status,2,c
  9618  0036F8  D7E2               	goto	l1425
  9619  0036FA                     l14898:
  9620  0036FA  0E00               	movlw	0
  9621  0036FC  6E2F               	movwf	_ms_count3+1,c	;volatile
  9622  0036FE  0E00               	movlw	0
  9623  003700  6E2E               	movwf	_ms_count3,c	;volatile
  9624  003702                     l14900:
  9625  003702  502F               	movf	_ms_count3+1,w,c	;volatile
  9626  003704  E10E               	bnz	l14906
  9627  003706  0E65               	movlw	101
  9628  003708  5C2E               	subwf	_ms_count3,w,c	;volatile
  9629  00370A  B0D8               	btfsc	status,0,c
  9630  00370C  D00A               	goto	l14906
  9631  00370E  EC74  F039         	call	_PB1pressed	;wreg free
  9632  003712  0900               	iorlw	0
  9633  003714  A4D8               	btfss	status,2,c
  9634  003716  D005               	goto	l14906
  9635  003718  EC60  F039         	call	_PB2pressed	;wreg free
  9636  00371C  0900               	iorlw	0
  9637  00371E  B4D8               	btfsc	status,2,c
  9638  003720  D7F0               	goto	l14900
  9639  003722                     l14906:
  9640  003722  0E00               	movlw	0
  9641  003724  6E2F               	movwf	_ms_count3+1,c	;volatile
  9642  003726  0E00               	movlw	0
  9643  003728  6E2E               	movwf	_ms_count3,c	;volatile
  9644  00372A  EC74  F039         	call	_PB1pressed	;wreg free
  9645  00372E  0900               	iorlw	0
  9646  003730  A4D8               	btfss	status,2,c
  9647  003732  D095               	goto	l14966
  9648  003734  EC60  F039         	call	_PB2pressed	;wreg free
  9649  003738  0900               	iorlw	0
  9650  00373A  A4D8               	btfss	status,2,c
  9651  00373C  D090               	goto	l14966
  9652  00373E  D00E               	goto	l14916
  9653  003740                     l1438:
  9654  003740  8C91               	bsf	3985,6,c	;volatile
  9655  003742  0E50               	movlw	80
  9656  003744  ECC4  F039         	call	_Delay10TCYx
  9657  003748  0E50               	movlw	80
  9658  00374A  ECC4  F039         	call	_Delay10TCYx
  9659  00374E  9C91               	bcf	3985,6,c	;volatile
  9660  003750  0E50               	movlw	80
  9661  003752  ECC4  F039         	call	_Delay10TCYx
  9662  003756  0E50               	movlw	80
  9663  003758  ECC4  F039         	call	_Delay10TCYx
  9664  00375C                     l14916:
  9665  00375C  0E91               	movlw	145
  9666  00375E  5C2E               	subwf	_ms_count3,w,c	;volatile
  9667  003760  0E01               	movlw	1
  9668  003762  582F               	subwfb	_ms_count3+1,w,c	;volatile
  9669  003764  B0D8               	btfsc	status,0,c
  9670  003766  D00A               	goto	l14922
  9671  003768  EC74  F039         	call	_PB1pressed	;wreg free
  9672  00376C  0900               	iorlw	0
  9673  00376E  A4D8               	btfss	status,2,c
  9674  003770  D005               	goto	l14922
  9675  003772  EC60  F039         	call	_PB2pressed	;wreg free
  9676  003776  0900               	iorlw	0
  9677  003778  B4D8               	btfsc	status,2,c
  9678  00377A  D7E2               	goto	l1438
  9679  00377C                     l14922:
  9680  00377C  0E00               	movlw	0
  9681  00377E  6E2F               	movwf	_ms_count3+1,c	;volatile
  9682  003780  0E00               	movlw	0
  9683  003782  6E2E               	movwf	_ms_count3,c	;volatile
  9684  003784                     l14924:
  9685  003784  502F               	movf	_ms_count3+1,w,c	;volatile
  9686  003786  E10E               	bnz	l14930
  9687  003788  0E65               	movlw	101
  9688  00378A  5C2E               	subwf	_ms_count3,w,c	;volatile
  9689  00378C  B0D8               	btfsc	status,0,c
  9690  00378E  D00A               	goto	l14930
  9691  003790  EC74  F039         	call	_PB1pressed	;wreg free
  9692  003794  0900               	iorlw	0
  9693  003796  A4D8               	btfss	status,2,c
  9694  003798  D005               	goto	l14930
  9695  00379A  EC60  F039         	call	_PB2pressed	;wreg free
  9696  00379E  0900               	iorlw	0
  9697  0037A0  B4D8               	btfsc	status,2,c
  9698  0037A2  D7F0               	goto	l14924
  9699  0037A4                     l14930:
  9700  0037A4  0E00               	movlw	0
  9701  0037A6  6E2F               	movwf	_ms_count3+1,c	;volatile
  9702  0037A8  0E00               	movlw	0
  9703  0037AA  6E2E               	movwf	_ms_count3,c	;volatile
  9704  0037AC  EC74  F039         	call	_PB1pressed	;wreg free
  9705  0037B0  0900               	iorlw	0
  9706  0037B2  A4D8               	btfss	status,2,c
  9707  0037B4  D054               	goto	l14966
  9708  0037B6  EC60  F039         	call	_PB2pressed	;wreg free
  9709  0037BA  0900               	iorlw	0
  9710  0037BC  A4D8               	btfss	status,2,c
  9711  0037BE  D04F               	goto	l14966
  9712  0037C0  D00E               	goto	l14940
  9713  0037C2                     l1451:
  9714  0037C2  8C91               	bsf	3985,6,c	;volatile
  9715  0037C4  0E3C               	movlw	60
  9716  0037C6  ECC4  F039         	call	_Delay10TCYx
  9717  0037CA  0E3C               	movlw	60
  9718  0037CC  ECC4  F039         	call	_Delay10TCYx
  9719  0037D0  9C91               	bcf	3985,6,c	;volatile
  9720  0037D2  0E3C               	movlw	60
  9721  0037D4  ECC4  F039         	call	_Delay10TCYx
  9722  0037D8  0E3C               	movlw	60
  9723  0037DA  ECC4  F039         	call	_Delay10TCYx
  9724  0037DE                     l14940:
  9725  0037DE  0E91               	movlw	145
  9726  0037E0  5C2E               	subwf	_ms_count3,w,c	;volatile
  9727  0037E2  0E01               	movlw	1
  9728  0037E4  582F               	subwfb	_ms_count3+1,w,c	;volatile
  9729  0037E6  B0D8               	btfsc	status,0,c
  9730  0037E8  D00A               	goto	l14946
  9731  0037EA  EC74  F039         	call	_PB1pressed	;wreg free
  9732  0037EE  0900               	iorlw	0
  9733  0037F0  A4D8               	btfss	status,2,c
  9734  0037F2  D005               	goto	l14946
  9735  0037F4  EC60  F039         	call	_PB2pressed	;wreg free
  9736  0037F8  0900               	iorlw	0
  9737  0037FA  B4D8               	btfsc	status,2,c
  9738  0037FC  D7E2               	goto	l1451
  9739  0037FE                     l14946:
  9740  0037FE  0E00               	movlw	0
  9741  003800  6E2F               	movwf	_ms_count3+1,c	;volatile
  9742  003802  0E00               	movlw	0
  9743  003804  6E2E               	movwf	_ms_count3,c	;volatile
  9744  003806                     l14948:
  9745  003806  502F               	movf	_ms_count3+1,w,c	;volatile
  9746  003808  E10E               	bnz	l14954
  9747  00380A  0E65               	movlw	101
  9748  00380C  5C2E               	subwf	_ms_count3,w,c	;volatile
  9749  00380E  B0D8               	btfsc	status,0,c
  9750  003810  D00A               	goto	l14954
  9751  003812  EC74  F039         	call	_PB1pressed	;wreg free
  9752  003816  0900               	iorlw	0
  9753  003818  A4D8               	btfss	status,2,c
  9754  00381A  D005               	goto	l14954
  9755  00381C  EC60  F039         	call	_PB2pressed	;wreg free
  9756  003820  0900               	iorlw	0
  9757  003822  B4D8               	btfsc	status,2,c
  9758  003824  D7F0               	goto	l14948
  9759  003826                     l14954:
  9760  003826  0E00               	movlw	0
  9761  003828  6E2F               	movwf	_ms_count3+1,c	;volatile
  9762  00382A  0E00               	movlw	0
  9763  00382C  6E2E               	movwf	_ms_count3,c	;volatile
  9764  00382E  EC74  F039         	call	_PB1pressed	;wreg free
  9765  003832  0900               	iorlw	0
  9766  003834  A4D8               	btfss	status,2,c
  9767  003836  D013               	goto	l14966
  9768  003838  EC60  F039         	call	_PB2pressed	;wreg free
  9769  00383C  0900               	iorlw	0
  9770  00383E  A4D8               	btfss	status,2,c
  9771  003840  D00E               	goto	l14966
  9772                           
  9773                           ;mini-project-clock.c: 1188: Delay10KTCYx(100);
  9774  003842  0E64               	movlw	100
  9775  003844  EC88  F039         	call	_Delay10KTCYx
  9776  003848                     l14962:
  9777  003848  EC60  F039         	call	_PB2pressed	;wreg free
  9778  00384C  0900               	iorlw	0
  9779  00384E  A4D8               	btfss	status,2,c
  9780  003850  D006               	goto	l14966
  9781  003852  EC74  F039         	call	_PB1pressed	;wreg free
  9782  003856  0900               	iorlw	0
  9783  003858  B4D8               	btfsc	status,2,c
  9784  00385A  EF35  F008         	goto	l13122
  9785  00385E                     l14966:
  9786                           
  9787                           ;mini-project-clock.c: 1189: }
  9788                           ;mini-project-clock.c: 1190: Alarm1On = 0;
  9789  00385E  0E00               	movlw	0
  9790  003860  6E30               	movwf	_Alarm1On,c
  9791  003862  0012               	return		;funcret
  9792  003864                     __end_of_SoundAlarm1:
  9793                           	opt stack 0
  9794                           tblptru	equ	0xFF8
  9795                           tblptrh	equ	0xFF7
  9796                           tblptrl	equ	0xFF6
  9797                           tablat	equ	0xFF5
  9798                           intcon	equ	0xFF2
  9799                           intcon2	equ	0xFF1
  9800                           postinc0	equ	0xFEE
  9801                           wreg	equ	0xFE8
  9802                           status	equ	0xFD8
  9803                           
  9804 ;; *************** function _SetMenu *****************
  9805 ;; Defined at:
  9806 ;;		line 501 in file "mini-project-clock.c"
  9807 ;; Parameters:    Size  Location     Type
  9808 ;;		None
  9809 ;; Auto vars:     Size  Location     Type
  9810 ;;		None
  9811 ;; Return value:  Size  Location     Type
  9812 ;;                  1    wreg      void 
  9813 ;; Registers used:
  9814 ;;		wreg, fsr2l, fsr2h, status,2, status,0, tblptrl, tblptrh, tblptru, prodl, prodh, cstack
  9815 ;; Tracked objects:
  9816 ;;		On entry : 0/0
  9817 ;;		On exit  : 0/0
  9818 ;;		Unchanged: 0/0
  9819 ;; Data sizes:     COMRAM   BANK0   BANK1   BANK2   BANK3   BANK4   BANK5   BANK6   BANK7   BANK8   BANK9  BANK10  BANK1
      +1  BANK12  BANK13  BANK14  BANK15
  9820 ;;      Params:         0       0       0       0       0       0       0       0       0       0       0       0       
      +0       0       0       0       0
  9821 ;;      Locals:         0       0       0       0       0       0       0       0       0       0       0       0       
      +0       0       0       0       0
  9822 ;;      Temps:          0       2       0       0       0       0       0       0       0       0       0       0       
      +0       0       0       0       0
  9823 ;;      Totals:         0       2       0       0       0       0       0       0       0       0       0       0       
      +0       0       0       0       0
  9824 ;;Total ram usage:        2 bytes
  9825 ;; Hardware stack levels used:    1
  9826 ;; Hardware stack levels required when called:    8
  9827 ;; This function calls:
  9828 ;;		_Alarm1Flash
  9829 ;;		_Alarm2Flash
  9830 ;;		_DayFlash
  9831 ;;		_HrsFlash
  9832 ;;		_MinsFlash
  9833 ;;		_MonthFlash
  9834 ;;		_Num2Disp
  9835 ;;		_SecsFlash
  9836 ;;		_SetAlarm1
  9837 ;;		_SetAlarm2
  9838 ;;		_SetDay
  9839 ;;		_SetHrs
  9840 ;;		_SetMins
  9841 ;;		_SetMonth
  9842 ;;		_SetSecs
  9843 ;;		_SetYear
  9844 ;;		_Switches
  9845 ;;		_YearFlash
  9846 ;; This function is called by:
  9847 ;;		_main
  9848 ;; This function uses a non-reentrant model
  9849 ;;
  9850                           
  9851                           	psect	text8
  9852  005B68                     __ptext8:
  9853                           	opt stack 0
  9854  005B68                     _SetMenu:
  9855                           	opt stack 22
  9856                           
  9857                           ;mini-project-clock.c: 502: while (Switches() != 0x00) {
  9858                           
  9859                           ;incstack = 0
  9860  005B68  D126               	goto	l13062
  9861  005B6A                     l265:
  9862                           
  9863                           ;mini-project-clock.c: 505: PIE1bits.TMR1IE = 0;
  9864  005B6A  909D               	bcf	3997,0,c	;volatile
  9865                           
  9866                           ;mini-project-clock.c: 506: SecsFlash();
  9867  005B6C  EC72  F037         	call	_SecsFlash	;wreg free
  9868                           
  9869                           ;mini-project-clock.c: 507: Num2Disp(&MainTime.secs);
  9870  005B70  0E48               	movlw	low (_MainTime+2)
  9871  005B72  0100               	movlb	0	; () banked
  9872  005B74  6F68               	movwf	Num2Disp@time& (0+255),b
  9873  005B76  0E00               	movlw	high (_MainTime+2)
  9874  005B78  0100               	movlb	0	; () banked
  9875  005B7A  6F69               	movwf	(Num2Disp@time+1)& (0+255),b
  9876  005B7C  EC89  F034         	call	_Num2Disp	;wreg free
  9877                           
  9878                           ;mini-project-clock.c: 508: while (Switches() == 0x01) {
  9879  005B80  D010               	goto	l12992
  9880  005B82                     l12988:
  9881                           
  9882                           ;mini-project-clock.c: 509: SetSecs(&MainTime);
  9883  005B82  0E46               	movlw	low _MainTime
  9884  005B84  0100               	movlb	0	; () banked
  9885  005B86  6F62               	movwf	SetSecs@ts& (0+255),b
  9886  005B88  0E00               	movlw	high _MainTime
  9887  005B8A  0100               	movlb	0	; () banked
  9888  005B8C  6F63               	movwf	(SetSecs@ts+1)& (0+255),b
  9889  005B8E  ECB1  F033         	call	_SetSecs	;wreg free
  9890                           
  9891                           ;mini-project-clock.c: 510: Num2Disp(&MainTime.secs);
  9892  005B92  0E48               	movlw	low (_MainTime+2)
  9893  005B94  0100               	movlb	0	; () banked
  9894  005B96  6F68               	movwf	Num2Disp@time& (0+255),b
  9895  005B98  0E00               	movlw	high (_MainTime+2)
  9896  005B9A  0100               	movlb	0	; () banked
  9897  005B9C  6F69               	movwf	(Num2Disp@time+1)& (0+255),b
  9898  005B9E  EC89  F034         	call	_Num2Disp	;wreg free
  9899  005BA2                     l12992:
  9900  005BA2  EC48  F039         	call	_Switches	;wreg free
  9901  005BA6  06E8               	decf	wreg,f,c
  9902  005BA8  B4D8               	btfsc	status,2,c
  9903  005BAA  D7EB               	goto	l12988
  9904  005BAC  D0A9               	goto	l289
  9905  005BAE                     l270:
  9906                           
  9907                           ;mini-project-clock.c: 515: PIE1bits.TMR1IE = 0;
  9908  005BAE  909D               	bcf	3997,0,c	;volatile
  9909                           
  9910                           ;mini-project-clock.c: 516: MinsFlash();
  9911  005BB0  ECAB  F037         	call	_MinsFlash	;wreg free
  9912                           
  9913                           ;mini-project-clock.c: 517: Num2Disp(&MainTime.mins);
  9914  005BB4  0E47               	movlw	low (_MainTime+1)
  9915  005BB6  0100               	movlb	0	; () banked
  9916  005BB8  6F68               	movwf	Num2Disp@time& (0+255),b
  9917  005BBA  0E00               	movlw	high (_MainTime+1)
  9918  005BBC  0100               	movlb	0	; () banked
  9919  005BBE  6F69               	movwf	(Num2Disp@time+1)& (0+255),b
  9920  005BC0  EC89  F034         	call	_Num2Disp	;wreg free
  9921                           
  9922                           ;mini-project-clock.c: 518: while (Switches() == 0x02) {
  9923  005BC4  D010               	goto	l13002
  9924  005BC6                     l12998:
  9925                           
  9926                           ;mini-project-clock.c: 519: SetMins(&MainTime);
  9927  005BC6  0E46               	movlw	low _MainTime
  9928  005BC8  0100               	movlb	0	; () banked
  9929  005BCA  6F62               	movwf	SetMins@tm& (0+255),b
  9930  005BCC  0E00               	movlw	high _MainTime
  9931  005BCE  0100               	movlb	0	; () banked
  9932  005BD0  6F63               	movwf	(SetMins@tm+1)& (0+255),b
  9933  005BD2  EC1D  F034         	call	_SetMins	;wreg free
  9934                           
  9935                           ;mini-project-clock.c: 520: Num2Disp(&MainTime.mins);
  9936  005BD6  0E47               	movlw	low (_MainTime+1)
  9937  005BD8  0100               	movlb	0	; () banked
  9938  005BDA  6F68               	movwf	Num2Disp@time& (0+255),b
  9939  005BDC  0E00               	movlw	high (_MainTime+1)
  9940  005BDE  0100               	movlb	0	; () banked
  9941  005BE0  6F69               	movwf	(Num2Disp@time+1)& (0+255),b
  9942  005BE2  EC89  F034         	call	_Num2Disp	;wreg free
  9943  005BE6                     l13002:
  9944  005BE6  EC48  F039         	call	_Switches	;wreg free
  9945  005BEA  0A02               	xorlw	2
  9946  005BEC  B4D8               	btfsc	status,2,c
  9947  005BEE  D7EB               	goto	l12998
  9948  005BF0  D087               	goto	l289
  9949  005BF2                     l274:
  9950                           
  9951                           ;mini-project-clock.c: 525: PIE1bits.TMR1IE = 0;
  9952  005BF2  909D               	bcf	3997,0,c	;volatile
  9953                           
  9954                           ;mini-project-clock.c: 526: HrsFlash();
  9955  005BF4  ECE4  F037         	call	_HrsFlash	;wreg free
  9956                           
  9957                           ;mini-project-clock.c: 527: Num2Disp(&MainTime.hrs);
  9958  005BF8  0E46               	movlw	low _MainTime
  9959  005BFA  0100               	movlb	0	; () banked
  9960  005BFC  6F68               	movwf	Num2Disp@time& (0+255),b
  9961  005BFE  0E00               	movlw	high _MainTime
  9962  005C00  0100               	movlb	0	; () banked
  9963  005C02  6F69               	movwf	(Num2Disp@time+1)& (0+255),b
  9964  005C04  EC89  F034         	call	_Num2Disp	;wreg free
  9965                           
  9966                           ;mini-project-clock.c: 528: while (Switches() == 0x04) {
  9967  005C08  D010               	goto	l13012
  9968  005C0A                     l13008:
  9969                           
  9970                           ;mini-project-clock.c: 529: SetHrs(&MainTime);
  9971  005C0A  0E46               	movlw	low _MainTime
  9972  005C0C  0100               	movlb	0	; () banked
  9973  005C0E  6F62               	movwf	SetHrs@th& (0+255),b
  9974  005C10  0E00               	movlw	high _MainTime
  9975  005C12  0100               	movlb	0	; () banked
  9976  005C14  6F63               	movwf	(SetHrs@th+1)& (0+255),b
  9977  005C16  EC51  F035         	call	_SetHrs	;wreg free
  9978                           
  9979                           ;mini-project-clock.c: 530: Num2Disp(&MainTime.hrs);
  9980  005C1A  0E46               	movlw	low _MainTime
  9981  005C1C  0100               	movlb	0	; () banked
  9982  005C1E  6F68               	movwf	Num2Disp@time& (0+255),b
  9983  005C20  0E00               	movlw	high _MainTime
  9984  005C22  0100               	movlb	0	; () banked
  9985  005C24  6F69               	movwf	(Num2Disp@time+1)& (0+255),b
  9986  005C26  EC89  F034         	call	_Num2Disp	;wreg free
  9987  005C2A                     l13012:
  9988  005C2A  EC48  F039         	call	_Switches	;wreg free
  9989  005C2E  0A04               	xorlw	4
  9990  005C30  B4D8               	btfsc	status,2,c
  9991  005C32  D7EB               	goto	l13008
  9992  005C34  D065               	goto	l289
  9993  005C36                     l278:
  9994                           
  9995                           ;mini-project-clock.c: 535: PIE1bits.TMR1IE = 0;
  9996  005C36  909D               	bcf	3997,0,c	;volatile
  9997                           
  9998                           ;mini-project-clock.c: 536: DayFlash();
  9999  005C38  EC39  F037         	call	_DayFlash	;wreg free
 10000                           
 10001                           ;mini-project-clock.c: 537: Num2Disp(&MainDate.day);
 10002  005C3C  0E3B               	movlw	low _MainDate
 10003  005C3E  0100               	movlb	0	; () banked
 10004  005C40  6F68               	movwf	Num2Disp@time& (0+255),b
 10005  005C42  0E00               	movlw	high _MainDate
 10006  005C44  0100               	movlb	0	; () banked
 10007  005C46  6F69               	movwf	(Num2Disp@time+1)& (0+255),b
 10008  005C48  EC89  F034         	call	_Num2Disp	;wreg free
 10009                           
 10010                           ;mini-project-clock.c: 538: while (Switches() == 0x20) {
 10011  005C4C  D010               	goto	l13020
 10012  005C4E                     l13018:
 10013                           
 10014                           ;mini-project-clock.c: 539: SetDay(&MainDate);
 10015  005C4E  0E3B               	movlw	low _MainDate
 10016  005C50  0100               	movlb	0	; () banked
 10017  005C52  6F69               	movwf	SetDay@dd& (0+255),b
 10018  005C54  0E00               	movlw	high _MainDate
 10019  005C56  0100               	movlb	0	; () banked
 10020  005C58  6F6A               	movwf	(SetDay@dd+1)& (0+255),b
 10021  005C5A  EC76  F02C         	call	_SetDay	;wreg free
 10022                           
 10023                           ;mini-project-clock.c: 540: Num2Disp(&MainDate.day);
 10024  005C5E  0E3B               	movlw	low _MainDate
 10025  005C60  0100               	movlb	0	; () banked
 10026  005C62  6F68               	movwf	Num2Disp@time& (0+255),b
 10027  005C64  0E00               	movlw	high _MainDate
 10028  005C66  0100               	movlb	0	; () banked
 10029  005C68  6F69               	movwf	(Num2Disp@time+1)& (0+255),b
 10030  005C6A  EC89  F034         	call	_Num2Disp	;wreg free
 10031  005C6E                     l13020:
 10032  005C6E  EC48  F039         	call	_Switches	;wreg free
 10033  005C72  0A20               	xorlw	32
 10034  005C74  B4D8               	btfsc	status,2,c
 10035  005C76  D7EB               	goto	l13018
 10036  005C78  D043               	goto	l289
 10037  005C7A                     l282:
 10038                           
 10039                           ;mini-project-clock.c: 545: PIE1bits.TMR1IE = 0;
 10040  005C7A  909D               	bcf	3997,0,c	;volatile
 10041                           
 10042                           ;mini-project-clock.c: 546: MonthFlash();
 10043  005C7C  EC8C  F036         	call	_MonthFlash	;wreg free
 10044                           
 10045                           ;mini-project-clock.c: 547: Num2Disp(&MainDate.month);
 10046  005C80  0E3C               	movlw	low (_MainDate+1)
 10047  005C82  0100               	movlb	0	; () banked
 10048  005C84  6F68               	movwf	Num2Disp@time& (0+255),b
 10049  005C86  0E00               	movlw	high (_MainDate+1)
 10050  005C88  0100               	movlb	0	; () banked
 10051  005C8A  6F69               	movwf	(Num2Disp@time+1)& (0+255),b
 10052  005C8C  EC89  F034         	call	_Num2Disp	;wreg free
 10053                           
 10054                           ;mini-project-clock.c: 548: while (Switches() == 0x10) {
 10055  005C90  D010               	goto	l13030
 10056  005C92                     l13026:
 10057                           
 10058                           ;mini-project-clock.c: 549: SetMonth(&MainDate);
 10059  005C92  0E3B               	movlw	low _MainDate
 10060  005C94  0100               	movlb	0	; () banked
 10061  005C96  6F62               	movwf	SetMonth@dm& (0+255),b
 10062  005C98  0E00               	movlw	high _MainDate
 10063  005C9A  0100               	movlb	0	; () banked
 10064  005C9C  6F63               	movwf	(SetMonth@dm+1)& (0+255),b
 10065  005C9E  EC45  F033         	call	_SetMonth	;wreg free
 10066                           
 10067                           ;mini-project-clock.c: 550: Num2Disp(&MainDate.month);
 10068  005CA2  0E3C               	movlw	low (_MainDate+1)
 10069  005CA4  0100               	movlb	0	; () banked
 10070  005CA6  6F68               	movwf	Num2Disp@time& (0+255),b
 10071  005CA8  0E00               	movlw	high (_MainDate+1)
 10072  005CAA  0100               	movlb	0	; () banked
 10073  005CAC  6F69               	movwf	(Num2Disp@time+1)& (0+255),b
 10074  005CAE  EC89  F034         	call	_Num2Disp	;wreg free
 10075  005CB2                     l13030:
 10076  005CB2  EC48  F039         	call	_Switches	;wreg free
 10077  005CB6  0A10               	xorlw	16
 10078  005CB8  B4D8               	btfsc	status,2,c
 10079  005CBA  D7EB               	goto	l13026
 10080  005CBC  D021               	goto	l289
 10081  005CBE                     l286:
 10082                           
 10083                           ;mini-project-clock.c: 555: PIE1bits.TMR1IE = 0;
 10084  005CBE  909D               	bcf	3997,0,c	;volatile
 10085                           
 10086                           ;mini-project-clock.c: 556: YearFlash();
 10087  005CC0  EC00  F037         	call	_YearFlash	;wreg free
 10088                           
 10089                           ;mini-project-clock.c: 557: Num2Disp(&MainDate.year_short);
 10090  005CC4  0E3D               	movlw	low (_MainDate+2)
 10091  005CC6  0100               	movlb	0	; () banked
 10092  005CC8  6F68               	movwf	Num2Disp@time& (0+255),b
 10093  005CCA  0E00               	movlw	high (_MainDate+2)
 10094  005CCC  0100               	movlb	0	; () banked
 10095  005CCE  6F69               	movwf	(Num2Disp@time+1)& (0+255),b
 10096  005CD0  EC89  F034         	call	_Num2Disp	;wreg free
 10097                           
 10098                           ;mini-project-clock.c: 558: while (Switches() == 0x08) {
 10099  005CD4  D010               	goto	l13040
 10100  005CD6                     l13036:
 10101                           
 10102                           ;mini-project-clock.c: 559: SetYear(&MainDate);
 10103  005CD6  0E3B               	movlw	low _MainDate
 10104  005CD8  0100               	movlb	0	; () banked
 10105  005CDA  6F62               	movwf	SetYear@dy& (0+255),b
 10106  005CDC  0E00               	movlw	high _MainDate
 10107  005CDE  0100               	movlb	0	; () banked
 10108  005CE0  6F63               	movwf	(SetYear@dy+1)& (0+255),b
 10109  005CE2  ECAD  F031         	call	_SetYear	;wreg free
 10110                           
 10111                           ;mini-project-clock.c: 560: Num2Disp(&MainDate.year_short);
 10112  005CE6  0E3D               	movlw	low (_MainDate+2)
 10113  005CE8  0100               	movlb	0	; () banked
 10114  005CEA  6F68               	movwf	Num2Disp@time& (0+255),b
 10115  005CEC  0E00               	movlw	high (_MainDate+2)
 10116  005CEE  0100               	movlb	0	; () banked
 10117  005CF0  6F69               	movwf	(Num2Disp@time+1)& (0+255),b
 10118  005CF2  EC89  F034         	call	_Num2Disp	;wreg free
 10119  005CF6                     l13040:
 10120  005CF6  EC48  F039         	call	_Switches	;wreg free
 10121  005CFA  0A08               	xorlw	8
 10122  005CFC  B4D8               	btfsc	status,2,c
 10123  005CFE  D7EB               	goto	l13036
 10124  005D00                     l289:
 10125                           
 10126                           ;mini-project-clock.c: 561: }
 10127                           ;mini-project-clock.c: 562: PIE1bits.TMR1IE = 1;
 10128  005D00  809D               	bsf	3997,0,c	;volatile
 10129                           
 10130                           ;mini-project-clock.c: 563: break;
 10131  005D02  D059               	goto	l13062
 10132  005D04                     l13042:
 10133                           
 10134                           ;mini-project-clock.c: 565: Alarm1Flash();
 10135  005D04  EC56  F038         	call	_Alarm1Flash	;wreg free
 10136                           
 10137                           ;mini-project-clock.c: 566: while ((Switches() >> 7) == 1) {
 10138  005D08  D002               	goto	l13046
 10139  005D0A                     l13044:
 10140                           
 10141                           ;mini-project-clock.c: 567: SetAlarm1();
 10142  005D0A  ECEC  F030         	call	_SetAlarm1	;wreg free
 10143  005D0E                     l13046:
 10144  005D0E  EC48  F039         	call	_Switches	;wreg free
 10145  005D12  0100               	movlb	0	; () banked
 10146  005D14  6F6D               	movwf	??_SetMenu& (0+255),b
 10147  005D16  0E00               	movlw	0
 10148  005D18  BF6D               	btfsc	??_SetMenu& (0+255),7,b
 10149  005D1A  0E01               	movlw	1
 10150  005D1C  6F6D               	movwf	??_SetMenu& (0+255),b
 10151  005D1E  0100               	movlb	0	; () banked
 10152  005D20  056D               	decf	??_SetMenu& (0+255),w,b
 10153  005D22  A4D8               	btfss	status,2,c
 10154  005D24  D048               	goto	l13062
 10155  005D26  D7F1               	goto	l13044
 10156  005D28                     l13048:
 10157                           
 10158                           ;mini-project-clock.c: 571: Alarm2Flash();
 10159  005D28  EC1D  F038         	call	_Alarm2Flash	;wreg free
 10160                           
 10161                           ;mini-project-clock.c: 572: while ((Switches() >> 6) == 1) {
 10162  005D2C  D002               	goto	l13052
 10163  005D2E                     l13050:
 10164                           
 10165                           ;mini-project-clock.c: 573: SetAlarm2();
 10166  005D2E  ECE1  F02E         	call	_SetAlarm2	;wreg free
 10167  005D32                     l13052:
 10168  005D32  EC48  F039         	call	_Switches	;wreg free
 10169  005D36  0100               	movlb	0	; () banked
 10170  005D38  6F6D               	movwf	??_SetMenu& (0+255),b
 10171  005D3A  0E06               	movlw	6
 10172  005D3C  0100               	movlb	0	; () banked
 10173  005D3E  6F6E               	movwf	(??_SetMenu+1)& (0+255),b
 10174  005D40                     u26415:
 10175  005D40  0100               	movlb	0	; () banked
 10176  005D42  90D8               	bcf	status,0,c
 10177  005D44  336D               	rrcf	??_SetMenu& (0+255),f,b
 10178  005D46  0100               	movlb	0	; () banked
 10179  005D48  2F6E               	decfsz	(??_SetMenu+1)& (0+255),f,b
 10180  005D4A  D7FA               	goto	u26415
 10181  005D4C  0100               	movlb	0	; () banked
 10182  005D4E  056D               	decf	??_SetMenu& (0+255),w,b
 10183  005D50  A4D8               	btfss	status,2,c
 10184  005D52  D031               	goto	l13062
 10185  005D54  D7EC               	goto	l13050
 10186  005D56                     l13054:
 10187                           
 10188                           ;mini-project-clock.c: 577: disp_U2 = DispChars.E;
 10189  005D56  0E06               	movlw	low (_DispChars+5)
 10190  005D58  6EF6               	movwf	tblptrl,c
 10191  005D5A  0E10               	movlw	high (_DispChars+5)
 10192  005D5C  6EF7               	movwf	tblptrh,c
 10193  005D5E                     	if	0	;tblptru may be non-zero
 10194  005D5E                     	endif
 10195  005D5E                     	if	1	;Program memory is > 0xFFFF, there are 3 active tblptr bytes
 10196  005D5E  0E00               	movlw	low (__mediumconst shr (0+16))
 10197  005D60  6EF8               	movwf	tblptru,c
 10198  005D62                     	endif
 10199  005D62  0008               	tblrd		*
 10200  005D64  CFF5 F034          	movff	tablat,_disp_U2	;volatile
 10201                           
 10202                           ;mini-project-clock.c: 578: disp_U1 = DispChars.r;
 10203  005D68  0E13               	movlw	low (_DispChars+18)
 10204  005D6A  6EF6               	movwf	tblptrl,c
 10205  005D6C  0E10               	movlw	high (_DispChars+18)
 10206  005D6E  6EF7               	movwf	tblptrh,c
 10207  005D70                     	if	0	;tblptru may be non-zero
 10208  005D70                     	endif
 10209  005D70                     	if	1	;Program memory is > 0xFFFF, there are 3 active tblptr bytes
 10210  005D70  0E00               	movlw	low (__mediumconst shr (0+16))
 10211  005D72  6EF8               	movwf	tblptru,c
 10212  005D74                     	endif
 10213  005D74  0008               	tblrd		*
 10214  005D76  CFF5 F033          	movff	tablat,_disp_U1	;volatile
 10215                           
 10216                           ;mini-project-clock.c: 579: disp_LEDS = 0x02;
 10217  005D7A  0E02               	movlw	2
 10218  005D7C  6E4C               	movwf	_disp_LEDS,c	;volatile
 10219                           
 10220                           ;mini-project-clock.c: 581: }
 10221                           
 10222                           ;mini-project-clock.c: 580: break;
 10223  005D7E  D01B               	goto	l13062
 10224  005D80                     l13060:
 10225  005D80  EC48  F039         	call	_Switches	;wreg free
 10226                           
 10227                           ; Switch size 1, requested type "space"
 10228                           ; Number of cases is 8, Range of values is 1 to 128
 10229                           ; switch strategies available:
 10230                           ; Name         Instructions Cycles
 10231                           ; simple_byte           25    13 (average)
 10232                           ;	Chosen strategy is simple_byte
 10233  005D84  0A01               	xorlw	1	; case 1
 10234  005D86  B4D8               	btfsc	status,2,c
 10235  005D88  D6F0               	goto	l265
 10236  005D8A  0A03               	xorlw	3	; case 2
 10237  005D8C  B4D8               	btfsc	status,2,c
 10238  005D8E  D70F               	goto	l270
 10239  005D90  0A06               	xorlw	6	; case 4
 10240  005D92  B4D8               	btfsc	status,2,c
 10241  005D94  D72E               	goto	l274
 10242  005D96  0A0C               	xorlw	12	; case 8
 10243  005D98  B4D8               	btfsc	status,2,c
 10244  005D9A  D791               	goto	l286
 10245  005D9C  0A18               	xorlw	24	; case 16
 10246  005D9E  B4D8               	btfsc	status,2,c
 10247  005DA0  D76C               	goto	l282
 10248  005DA2  0A30               	xorlw	48	; case 32
 10249  005DA4  B4D8               	btfsc	status,2,c
 10250  005DA6  D747               	goto	l278
 10251  005DA8  0A60               	xorlw	96	; case 64
 10252  005DAA  B4D8               	btfsc	status,2,c
 10253  005DAC  D7BD               	goto	l13048
 10254  005DAE  0AC0               	xorlw	192	; case 128
 10255  005DB0  B4D8               	btfsc	status,2,c
 10256  005DB2  D7A8               	goto	l13042
 10257  005DB4  D7D0               	goto	l13054
 10258  005DB6                     l13062:
 10259  005DB6  EC48  F039         	call	_Switches	;wreg free
 10260  005DBA  0900               	iorlw	0
 10261  005DBC  B4D8               	btfsc	status,2,c
 10262  005DBE  0012               	return	
 10263  005DC0  D7DF               	goto	l13060
 10264  005DC2                     __end_of_SetMenu:
 10265                           	opt stack 0
 10266                           tblptru	equ	0xFF8
 10267                           tblptrh	equ	0xFF7
 10268                           tblptrl	equ	0xFF6
 10269                           tablat	equ	0xFF5
 10270                           intcon	equ	0xFF2
 10271                           intcon2	equ	0xFF1
 10272                           postinc0	equ	0xFEE
 10273                           wreg	equ	0xFE8
 10274                           status	equ	0xFD8
 10275                           
 10276 ;; *************** function _SetAlarm2 *****************
 10277 ;; Defined at:
 10278 ;;		line 1211 in file "mini-project-clock.c"
 10279 ;; Parameters:    Size  Location     Type
 10280 ;;		None
 10281 ;; Auto vars:     Size  Location     Type
 10282 ;;		None
 10283 ;; Return value:  Size  Location     Type
 10284 ;;                  1    wreg      void 
 10285 ;; Registers used:
 10286 ;;		wreg, fsr2l, fsr2h, status,2, status,0, tblptrl, tblptrh, tblptru, prodl, prodh, cstack
 10287 ;; Tracked objects:
 10288 ;;		On entry : 0/0
 10289 ;;		On exit  : 0/0
 10290 ;;		Unchanged: 0/0
 10291 ;; Data sizes:     COMRAM   BANK0   BANK1   BANK2   BANK3   BANK4   BANK5   BANK6   BANK7   BANK8   BANK9  BANK10  BANK1
      +1  BANK12  BANK13  BANK14  BANK15
 10292 ;;      Params:         0       0       0       0       0       0       0       0       0       0       0       0       
      +0       0       0       0       0
 10293 ;;      Locals:         0       0       0       0       0       0       0       0       0       0       0       0       
      +0       0       0       0       0
 10294 ;;      Temps:          0       0       0       0       0       0       0       0       0       0       0       0       
      +0       0       0       0       0
 10295 ;;      Totals:         0       0       0       0       0       0       0       0       0       0       0       0       
      +0       0       0       0       0
 10296 ;;Total ram usage:        0 bytes
 10297 ;; Hardware stack levels used:    1
 10298 ;; Hardware stack levels required when called:    7
 10299 ;; This function calls:
 10300 ;;		_DayFlash
 10301 ;;		_Delay10KTCYx
 10302 ;;		_HrsFlash
 10303 ;;		_MinsFlash
 10304 ;;		_MonthFlash
 10305 ;;		_Num2Disp
 10306 ;;		_PB1pressed
 10307 ;;		_PB2pressed
 10308 ;;		_SecsFlash
 10309 ;;		_SetDay
 10310 ;;		_SetHrs
 10311 ;;		_SetMins
 10312 ;;		_SetMonth
 10313 ;;		_SetSecs
 10314 ;;		_SetYear
 10315 ;;		_Switches
 10316 ;;		_YearFlash
 10317 ;; This function is called by:
 10318 ;;		_SetMenu
 10319 ;; This function uses a non-reentrant model
 10320 ;;
 10321                           
 10322                           	psect	text9
 10323  005DC2                     __ptext9:
 10324                           	opt stack 0
 10325  005DC2                     _SetAlarm2:
 10326                           	opt stack 22
 10327                           
 10328                           ;mini-project-clock.c: 1212: switch(Switches()) {
 10329                           
 10330                           ;incstack = 0
 10331  005DC2  D0FC               	goto	l12840
 10332  005DC4                     l12764:
 10333                           
 10334                           ;mini-project-clock.c: 1214: SecsFlash();
 10335  005DC4  EC72  F037         	call	_SecsFlash	;wreg free
 10336                           
 10337                           ;mini-project-clock.c: 1215: while(Switches() == 0x41) {
 10338  005DC8  D010               	goto	l12770
 10339  005DCA                     l12766:
 10340                           
 10341                           ;mini-project-clock.c: 1216: SetSecs(&Alarm2Time);
 10342  005DCA  0E43               	movlw	low _Alarm2Time
 10343  005DCC  0100               	movlb	0	; () banked
 10344  005DCE  6F62               	movwf	SetSecs@ts& (0+255),b
 10345  005DD0  0E00               	movlw	high _Alarm2Time
 10346  005DD2  0100               	movlb	0	; () banked
 10347  005DD4  6F63               	movwf	(SetSecs@ts+1)& (0+255),b
 10348  005DD6  ECB1  F033         	call	_SetSecs	;wreg free
 10349                           
 10350                           ;mini-project-clock.c: 1217: Num2Disp(&Alarm2Time.secs);
 10351  005DDA  0E45               	movlw	low (_Alarm2Time+2)
 10352  005DDC  0100               	movlb	0	; () banked
 10353  005DDE  6F68               	movwf	Num2Disp@time& (0+255),b
 10354  005DE0  0E00               	movlw	high (_Alarm2Time+2)
 10355  005DE2  0100               	movlb	0	; () banked
 10356  005DE4  6F69               	movwf	(Num2Disp@time+1)& (0+255),b
 10357  005DE6  EC89  F034         	call	_Num2Disp	;wreg free
 10358  005DEA                     l12770:
 10359  005DEA  EC48  F039         	call	_Switches	;wreg free
 10360  005DEE  0A41               	xorlw	65
 10361  005DF0  A4D8               	btfss	status,2,c
 10362  005DF2  0012               	return	
 10363  005DF4  D7EA               	goto	l12766
 10364  005DF6                     l12772:
 10365                           
 10366                           ;mini-project-clock.c: 1221: MinsFlash();
 10367  005DF6  ECAB  F037         	call	_MinsFlash	;wreg free
 10368                           
 10369                           ;mini-project-clock.c: 1222: while(Switches() == 0x42) {
 10370  005DFA  D010               	goto	l12778
 10371  005DFC                     l12774:
 10372                           
 10373                           ;mini-project-clock.c: 1223: SetMins(&Alarm2Time);
 10374  005DFC  0E43               	movlw	low _Alarm2Time
 10375  005DFE  0100               	movlb	0	; () banked
 10376  005E00  6F62               	movwf	SetMins@tm& (0+255),b
 10377  005E02  0E00               	movlw	high _Alarm2Time
 10378  005E04  0100               	movlb	0	; () banked
 10379  005E06  6F63               	movwf	(SetMins@tm+1)& (0+255),b
 10380  005E08  EC1D  F034         	call	_SetMins	;wreg free
 10381                           
 10382                           ;mini-project-clock.c: 1224: Num2Disp(&Alarm2Time.mins);
 10383  005E0C  0E44               	movlw	low (_Alarm2Time+1)
 10384  005E0E  0100               	movlb	0	; () banked
 10385  005E10  6F68               	movwf	Num2Disp@time& (0+255),b
 10386  005E12  0E00               	movlw	high (_Alarm2Time+1)
 10387  005E14  0100               	movlb	0	; () banked
 10388  005E16  6F69               	movwf	(Num2Disp@time+1)& (0+255),b
 10389  005E18  EC89  F034         	call	_Num2Disp	;wreg free
 10390  005E1C                     l12778:
 10391  005E1C  EC48  F039         	call	_Switches	;wreg free
 10392  005E20  0A42               	xorlw	66
 10393  005E22  A4D8               	btfss	status,2,c
 10394  005E24  0012               	return	
 10395  005E26  D7EA               	goto	l12774
 10396  005E28                     l12780:
 10397                           
 10398                           ;mini-project-clock.c: 1228: HrsFlash();
 10399  005E28  ECE4  F037         	call	_HrsFlash	;wreg free
 10400                           
 10401                           ;mini-project-clock.c: 1229: while(Switches() == 0x44) {
 10402  005E2C  D010               	goto	l12786
 10403  005E2E                     l12782:
 10404                           
 10405                           ;mini-project-clock.c: 1230: SetHrs(&Alarm2Time);
 10406  005E2E  0E43               	movlw	low _Alarm2Time
 10407  005E30  0100               	movlb	0	; () banked
 10408  005E32  6F62               	movwf	SetHrs@th& (0+255),b
 10409  005E34  0E00               	movlw	high _Alarm2Time
 10410  005E36  0100               	movlb	0	; () banked
 10411  005E38  6F63               	movwf	(SetHrs@th+1)& (0+255),b
 10412  005E3A  EC51  F035         	call	_SetHrs	;wreg free
 10413                           
 10414                           ;mini-project-clock.c: 1231: Num2Disp(&Alarm2Time.hrs);
 10415  005E3E  0E43               	movlw	low _Alarm2Time
 10416  005E40  0100               	movlb	0	; () banked
 10417  005E42  6F68               	movwf	Num2Disp@time& (0+255),b
 10418  005E44  0E00               	movlw	high _Alarm2Time
 10419  005E46  0100               	movlb	0	; () banked
 10420  005E48  6F69               	movwf	(Num2Disp@time+1)& (0+255),b
 10421  005E4A  EC89  F034         	call	_Num2Disp	;wreg free
 10422  005E4E                     l12786:
 10423  005E4E  EC48  F039         	call	_Switches	;wreg free
 10424  005E52  0A44               	xorlw	68
 10425  005E54  A4D8               	btfss	status,2,c
 10426  005E56  0012               	return	
 10427  005E58  D7EA               	goto	l12782
 10428  005E5A                     l12788:
 10429                           
 10430                           ;mini-project-clock.c: 1235: YearFlash();
 10431  005E5A  EC00  F037         	call	_YearFlash	;wreg free
 10432                           
 10433                           ;mini-project-clock.c: 1236: while(Switches() == 0x48) {
 10434  005E5E  D010               	goto	l12794
 10435  005E60                     l12790:
 10436                           
 10437                           ;mini-project-clock.c: 1237: SetYear(&Alarm2Date);
 10438  005E60  0E36               	movlw	low _Alarm2Date
 10439  005E62  0100               	movlb	0	; () banked
 10440  005E64  6F62               	movwf	SetYear@dy& (0+255),b
 10441  005E66  0E00               	movlw	high _Alarm2Date
 10442  005E68  0100               	movlb	0	; () banked
 10443  005E6A  6F63               	movwf	(SetYear@dy+1)& (0+255),b
 10444  005E6C  ECAD  F031         	call	_SetYear	;wreg free
 10445                           
 10446                           ;mini-project-clock.c: 1238: Num2Disp(&Alarm2Date.year_short);
 10447  005E70  0E38               	movlw	low (_Alarm2Date+2)
 10448  005E72  0100               	movlb	0	; () banked
 10449  005E74  6F68               	movwf	Num2Disp@time& (0+255),b
 10450  005E76  0E00               	movlw	high (_Alarm2Date+2)
 10451  005E78  0100               	movlb	0	; () banked
 10452  005E7A  6F69               	movwf	(Num2Disp@time+1)& (0+255),b
 10453  005E7C  EC89  F034         	call	_Num2Disp	;wreg free
 10454  005E80                     l12794:
 10455  005E80  EC48  F039         	call	_Switches	;wreg free
 10456  005E84  0A48               	xorlw	72
 10457  005E86  A4D8               	btfss	status,2,c
 10458  005E88  0012               	return	
 10459  005E8A  D7EA               	goto	l12790
 10460  005E8C                     l12796:
 10461                           
 10462                           ;mini-project-clock.c: 1242: MonthFlash();
 10463  005E8C  EC8C  F036         	call	_MonthFlash	;wreg free
 10464                           
 10465                           ;mini-project-clock.c: 1243: while(Switches() == 0x50) {
 10466  005E90  D010               	goto	l12802
 10467  005E92                     l12798:
 10468                           
 10469                           ;mini-project-clock.c: 1244: SetMonth(&Alarm2Date);
 10470  005E92  0E36               	movlw	low _Alarm2Date
 10471  005E94  0100               	movlb	0	; () banked
 10472  005E96  6F62               	movwf	SetMonth@dm& (0+255),b
 10473  005E98  0E00               	movlw	high _Alarm2Date
 10474  005E9A  0100               	movlb	0	; () banked
 10475  005E9C  6F63               	movwf	(SetMonth@dm+1)& (0+255),b
 10476  005E9E  EC45  F033         	call	_SetMonth	;wreg free
 10477                           
 10478                           ;mini-project-clock.c: 1245: Num2Disp(&Alarm2Date.month);
 10479  005EA2  0E37               	movlw	low (_Alarm2Date+1)
 10480  005EA4  0100               	movlb	0	; () banked
 10481  005EA6  6F68               	movwf	Num2Disp@time& (0+255),b
 10482  005EA8  0E00               	movlw	high (_Alarm2Date+1)
 10483  005EAA  0100               	movlb	0	; () banked
 10484  005EAC  6F69               	movwf	(Num2Disp@time+1)& (0+255),b
 10485  005EAE  EC89  F034         	call	_Num2Disp	;wreg free
 10486  005EB2                     l12802:
 10487  005EB2  EC48  F039         	call	_Switches	;wreg free
 10488  005EB6  0A50               	xorlw	80
 10489  005EB8  A4D8               	btfss	status,2,c
 10490  005EBA  0012               	return	
 10491  005EBC  D7EA               	goto	l12798
 10492  005EBE                     l12804:
 10493                           
 10494                           ;mini-project-clock.c: 1249: DayFlash();
 10495  005EBE  EC39  F037         	call	_DayFlash	;wreg free
 10496                           
 10497                           ;mini-project-clock.c: 1250: while(Switches() == 0x60) {
 10498  005EC2  D010               	goto	l12808
 10499  005EC4                     l12806:
 10500                           
 10501                           ;mini-project-clock.c: 1251: SetDay(&Alarm2Date);
 10502  005EC4  0E36               	movlw	low _Alarm2Date
 10503  005EC6  0100               	movlb	0	; () banked
 10504  005EC8  6F69               	movwf	SetDay@dd& (0+255),b
 10505  005ECA  0E00               	movlw	high _Alarm2Date
 10506  005ECC  0100               	movlb	0	; () banked
 10507  005ECE  6F6A               	movwf	(SetDay@dd+1)& (0+255),b
 10508  005ED0  EC76  F02C         	call	_SetDay	;wreg free
 10509                           
 10510                           ;mini-project-clock.c: 1252: Num2Disp(&Alarm2Date.day);
 10511  005ED4  0E36               	movlw	low _Alarm2Date
 10512  005ED6  0100               	movlb	0	; () banked
 10513  005ED8  6F68               	movwf	Num2Disp@time& (0+255),b
 10514  005EDA  0E00               	movlw	high _Alarm2Date
 10515  005EDC  0100               	movlb	0	; () banked
 10516  005EDE  6F69               	movwf	(Num2Disp@time+1)& (0+255),b
 10517  005EE0  EC89  F034         	call	_Num2Disp	;wreg free
 10518  005EE4                     l12808:
 10519  005EE4  EC48  F039         	call	_Switches	;wreg free
 10520  005EE8  0A60               	xorlw	96
 10521  005EEA  A4D8               	btfss	status,2,c
 10522  005EEC  0012               	return	
 10523  005EEE  D7EA               	goto	l12806
 10524  005EF0                     l12810:
 10525                           
 10526                           ;mini-project-clock.c: 1256: disp_LEDS = 0x40;
 10527  005EF0  0E40               	movlw	64
 10528  005EF2  6E4C               	movwf	_disp_LEDS,c	;volatile
 10529                           
 10530                           ;mini-project-clock.c: 1257: while(Switches() == 0x40) {
 10531  005EF4  D048               	goto	l12832
 10532  005EF6                     l12812:
 10533                           
 10534                           ;mini-project-clock.c: 1258: disp_U2 = DispChars.A;
 10535  005EF6  0E01               	movlw	low _DispChars
 10536  005EF8  6EF6               	movwf	tblptrl,c
 10537  005EFA                     	if	1	;There is more than 1 active tblptr byte
 10538  005EFA  0E10               	movlw	high _DispChars
 10539  005EFC  6EF7               	movwf	tblptrh,c
 10540  005EFE                     	endif
 10541  005EFE                     	if	1	;There are 3 active tblptr bytes
 10542  005EFE  0E00               	movlw	low (_DispChars shr (0+16))
 10543  005F00  6EF8               	movwf	tblptru,c
 10544  005F02                     	endif
 10545  005F02  0008               	tblrd		*
 10546  005F04  CFF5 F034          	movff	tablat,_disp_U2	;volatile
 10547                           
 10548                           ;mini-project-clock.c: 1259: disp_U1 = DispNums[2];
 10549  005F08  0E36               	movlw	low (_DispNums+2)
 10550  005F0A  6EF6               	movwf	tblptrl,c
 10551  005F0C  0E10               	movlw	high (_DispNums+2)
 10552  005F0E  6EF7               	movwf	tblptrh,c
 10553  005F10                     	if	0	;tblptru may be non-zero
 10554  005F10                     	endif
 10555  005F10                     	if	1	;Program memory is > 0xFFFF, there are 3 active tblptr bytes
 10556  005F10  0E00               	movlw	low (__mediumconst shr (0+16))
 10557  005F12  6EF8               	movwf	tblptru,c
 10558  005F14                     	endif
 10559  005F14  0008               	tblrd		*
 10560  005F16  CFF5 F033          	movff	tablat,_disp_U1	;volatile
 10561                           
 10562                           ;mini-project-clock.c: 1260: Delay10KTCYx(150);
 10563  005F1A  0E96               	movlw	150
 10564  005F1C  EC88  F039         	call	_Delay10KTCYx
 10565                           
 10566                           ;mini-project-clock.c: 1261: if(PB2pressed() == 1) {
 10567  005F20  EC60  F039         	call	_PB2pressed	;wreg free
 10568  005F24  06E8               	decf	wreg,f,c
 10569  005F26  A4D8               	btfss	status,2,c
 10570  005F28  D002               	goto	l12820
 10571                           
 10572                           ;mini-project-clock.c: 1262: Alarm2On = 1;
 10573  005F2A  0E01               	movlw	1
 10574  005F2C  6E31               	movwf	_Alarm2On,c
 10575  005F2E                     l12820:
 10576                           
 10577                           ;mini-project-clock.c: 1263: }
 10578                           ;mini-project-clock.c: 1264: if(PB1pressed() == 1) {
 10579  005F2E  EC74  F039         	call	_PB1pressed	;wreg free
 10580  005F32  06E8               	decf	wreg,f,c
 10581  005F34  A4D8               	btfss	status,2,c
 10582  005F36  D002               	goto	l12824
 10583                           
 10584                           ;mini-project-clock.c: 1265: Alarm2On = 0;
 10585  005F38  0E00               	movlw	0
 10586  005F3A  6E31               	movwf	_Alarm2On,c
 10587  005F3C                     l12824:
 10588                           
 10589                           ;mini-project-clock.c: 1266: }
 10590                           ;mini-project-clock.c: 1267: if(Alarm2On == 1) {
 10591  005F3C  0431               	decf	_Alarm2On,w,c
 10592  005F3E  A4D8               	btfss	status,2,c
 10593  005F40  D00D               	goto	l12828
 10594                           
 10595                           ;mini-project-clock.c: 1268: disp_U2 = DispChars.o;
 10596  005F42  0E11               	movlw	low (_DispChars+16)
 10597  005F44  6EF6               	movwf	tblptrl,c
 10598  005F46  0E10               	movlw	high (_DispChars+16)
 10599  005F48  6EF7               	movwf	tblptrh,c
 10600  005F4A                     	if	0	;tblptru may be non-zero
 10601  005F4A                     	endif
 10602  005F4A                     	if	1	;Program memory is > 0xFFFF, there are 3 active tblptr bytes
 10603  005F4A  0E00               	movlw	low (__mediumconst shr (0+16))
 10604  005F4C  6EF8               	movwf	tblptru,c
 10605  005F4E                     	endif
 10606  005F4E  0008               	tblrd		*
 10607  005F50  CFF5 F034          	movff	tablat,_disp_U2	;volatile
 10608                           
 10609                           ;mini-project-clock.c: 1269: disp_U1 = DispChars.n;
 10610  005F54  0E10               	movlw	low (_DispChars+15)
 10611  005F56  6EF6               	movwf	tblptrl,c
 10612  005F58  0E10               	movlw	high (_DispChars+15)
 10613  005F5A  D00C               	goto	L1
 10614  005F5C                     l12828:
 10615                           
 10616                           ;mini-project-clock.c: 1271: else {
 10617                           ;mini-project-clock.c: 1272: disp_U2 = DispChars.o;
 10618  005F5C  0E11               	movlw	low (_DispChars+16)
 10619  005F5E  6EF6               	movwf	tblptrl,c
 10620  005F60  0E10               	movlw	high (_DispChars+16)
 10621  005F62  6EF7               	movwf	tblptrh,c
 10622  005F64                     	if	0	;tblptru may be non-zero
 10623  005F64                     	endif
 10624  005F64                     	if	1	;Program memory is > 0xFFFF, there are 3 active tblptr bytes
 10625  005F64  0E00               	movlw	low (__mediumconst shr (0+16))
 10626  005F66  6EF8               	movwf	tblptru,c
 10627  005F68                     	endif
 10628  005F68  0008               	tblrd		*
 10629  005F6A  CFF5 F034          	movff	tablat,_disp_U2	;volatile
 10630                           
 10631                           ;mini-project-clock.c: 1273: disp_U1 = DispChars.F;
 10632  005F6E  0E07               	movlw	low (_DispChars+6)
 10633  005F70  6EF6               	movwf	tblptrl,c
 10634  005F72  0E10               	movlw	high (_DispChars+6)
 10635  005F74                     L1:
 10636  005F74  6EF7               	movwf	tblptrh,c
 10637  005F76                     	if	0	;tblptru may be non-zero
 10638  005F76                     	endif
 10639  005F76                     	if	1	;Program memory is > 0xFFFF, there are 3 active tblptr bytes
 10640  005F76  0E00               	movlw	low (__mediumconst shr (0+16))
 10641  005F78  6EF8               	movwf	tblptru,c
 10642  005F7A                     	endif
 10643  005F7A  0008               	tblrd		*
 10644  005F7C  CFF5 F033          	movff	tablat,_disp_U1	;volatile
 10645                           
 10646                           ;mini-project-clock.c: 1274: }
 10647                           ;mini-project-clock.c: 1275: Delay10KTCYx(150);
 10648  005F80  0E96               	movlw	150
 10649  005F82  EC88  F039         	call	_Delay10KTCYx
 10650  005F86                     l12832:
 10651  005F86  EC48  F039         	call	_Switches	;wreg free
 10652  005F8A  0A40               	xorlw	64
 10653  005F8C  A4D8               	btfss	status,2,c
 10654  005F8E  0012               	return	
 10655  005F90  D7B2               	goto	l12812
 10656  005F92                     l12834:
 10657                           
 10658                           ;mini-project-clock.c: 1279: disp_U2 = DispChars.E;
 10659  005F92  0E06               	movlw	low (_DispChars+5)
 10660  005F94  6EF6               	movwf	tblptrl,c
 10661  005F96  0E10               	movlw	high (_DispChars+5)
 10662  005F98  6EF7               	movwf	tblptrh,c
 10663  005F9A                     	if	0	;tblptru may be non-zero
 10664  005F9A                     	endif
 10665  005F9A                     	if	1	;Program memory is > 0xFFFF, there are 3 active tblptr bytes
 10666  005F9A  0E00               	movlw	low (__mediumconst shr (0+16))
 10667  005F9C  6EF8               	movwf	tblptru,c
 10668  005F9E                     	endif
 10669  005F9E  0008               	tblrd		*
 10670  005FA0  CFF5 F034          	movff	tablat,_disp_U2	;volatile
 10671                           
 10672                           ;mini-project-clock.c: 1280: disp_U1 = DispChars.r;
 10673  005FA4  0E13               	movlw	low (_DispChars+18)
 10674  005FA6  6EF6               	movwf	tblptrl,c
 10675  005FA8  0E10               	movlw	high (_DispChars+18)
 10676  005FAA  6EF7               	movwf	tblptrh,c
 10677  005FAC                     	if	0	;tblptru may be non-zero
 10678  005FAC                     	endif
 10679  005FAC                     	if	1	;Program memory is > 0xFFFF, there are 3 active tblptr bytes
 10680  005FAC  0E00               	movlw	low (__mediumconst shr (0+16))
 10681  005FAE  6EF8               	movwf	tblptru,c
 10682  005FB0                     	endif
 10683  005FB0  0008               	tblrd		*
 10684  005FB2  CFF5 F033          	movff	tablat,_disp_U1	;volatile
 10685                           
 10686                           ;mini-project-clock.c: 1281: disp_LEDS = 0x04;
 10687  005FB6  0E04               	movlw	4
 10688  005FB8  6E4C               	movwf	_disp_LEDS,c	;volatile
 10689                           
 10690                           ;mini-project-clock.c: 1283: }
 10691                           
 10692                           ;mini-project-clock.c: 1282: break;
 10693  005FBA  0012               	return	
 10694  005FBC                     l12840:
 10695  005FBC  EC48  F039         	call	_Switches	;wreg free
 10696                           
 10697                           ; Switch size 1, requested type "space"
 10698                           ; Number of cases is 7, Range of values is 64 to 96
 10699                           ; switch strategies available:
 10700                           ; Name         Instructions Cycles
 10701                           ; simple_byte           22    12 (average)
 10702                           ;	Chosen strategy is simple_byte
 10703  005FC0  0A40               	xorlw	64	; case 64
 10704  005FC2  B4D8               	btfsc	status,2,c
 10705  005FC4  D795               	goto	l12810
 10706  005FC6  0A01               	xorlw	1	; case 65
 10707  005FC8  B4D8               	btfsc	status,2,c
 10708  005FCA  D6FC               	goto	l12764
 10709  005FCC  0A03               	xorlw	3	; case 66
 10710  005FCE  B4D8               	btfsc	status,2,c
 10711  005FD0  D712               	goto	l12772
 10712  005FD2  0A06               	xorlw	6	; case 68
 10713  005FD4  B4D8               	btfsc	status,2,c
 10714  005FD6  D728               	goto	l12780
 10715  005FD8  0A0C               	xorlw	12	; case 72
 10716  005FDA  B4D8               	btfsc	status,2,c
 10717  005FDC  D73E               	goto	l12788
 10718  005FDE  0A18               	xorlw	24	; case 80
 10719  005FE0  B4D8               	btfsc	status,2,c
 10720  005FE2  D754               	goto	l12796
 10721  005FE4  0A30               	xorlw	48	; case 96
 10722  005FE6  B4D8               	btfsc	status,2,c
 10723  005FE8  D76A               	goto	l12804
 10724  005FEA  D7D3               	goto	l12834
 10725  005FEC                     __end_of_SetAlarm2:
 10726                           	opt stack 0
 10727                           tblptru	equ	0xFF8
 10728                           tblptrh	equ	0xFF7
 10729                           tblptrl	equ	0xFF6
 10730                           tablat	equ	0xFF5
 10731                           intcon	equ	0xFF2
 10732                           intcon2	equ	0xFF1
 10733                           postinc0	equ	0xFEE
 10734                           wreg	equ	0xFE8
 10735                           status	equ	0xFD8
 10736                           
 10737 ;; *************** function _YearFlash *****************
 10738 ;; Defined at:
 10739 ;;		line 957 in file "mini-project-clock.c"
 10740 ;; Parameters:    Size  Location     Type
 10741 ;;		None
 10742 ;; Auto vars:     Size  Location     Type
 10743 ;;		None
 10744 ;; Return value:  Size  Location     Type
 10745 ;;                  1    wreg      void 
 10746 ;; Registers used:
 10747 ;;		wreg, status,2, status,0, tblptrl, tblptrh, tblptru, cstack
 10748 ;; Tracked objects:
 10749 ;;		On entry : 0/0
 10750 ;;		On exit  : 0/0
 10751 ;;		Unchanged: 0/0
 10752 ;; Data sizes:     COMRAM   BANK0   BANK1   BANK2   BANK3   BANK4   BANK5   BANK6   BANK7   BANK8   BANK9  BANK10  BANK1
      +1  BANK12  BANK13  BANK14  BANK15
 10753 ;;      Params:         0       0       0       0       0       0       0       0       0       0       0       0       
      +0       0       0       0       0
 10754 ;;      Locals:         0       0       0       0       0       0       0       0       0       0       0       0       
      +0       0       0       0       0
 10755 ;;      Temps:          0       0       0       0       0       0       0       0       0       0       0       0       
      +0       0       0       0       0
 10756 ;;      Totals:         0       0       0       0       0       0       0       0       0       0       0       0       
      +0       0       0       0       0
 10757 ;;Total ram usage:        0 bytes
 10758 ;; Hardware stack levels used:    1
 10759 ;; Hardware stack levels required when called:    5
 10760 ;; This function calls:
 10761 ;;		_Delay10KTCYx
 10762 ;; This function is called by:
 10763 ;;		_SetMenu
 10764 ;;		_SetAlarm2
 10765 ;; This function uses a non-reentrant model
 10766 ;;
 10767                           
 10768                           	psect	text10
 10769  006E00                     __ptext10:
 10770                           	opt stack 0
 10771  006E00                     _YearFlash:
 10772                           	opt stack 24
 10773                           
 10774                           ;mini-project-clock.c: 958: disp_LEDS &= 0xC0;
 10775                           
 10776                           ;incstack = 0
 10777  006E00  0EC0               	movlw	192
 10778  006E02  164C               	andwf	_disp_LEDS,f,c	;volatile
 10779                           
 10780                           ;mini-project-clock.c: 959: disp_LEDS |= 0x08;
 10781  006E04  864C               	bsf	_disp_LEDS,3,c	;volatile
 10782                           
 10783                           ;mini-project-clock.c: 960: dp_mask |= (1 << 2);
 10784  006E06  844A               	bsf	_dp_mask,2,c	;volatile
 10785                           
 10786                           ;mini-project-clock.c: 961: disp_U2 = DispChars.y;
 10787  006E08  0E18               	movlw	low (_DispChars+23)
 10788  006E0A  6EF6               	movwf	tblptrl,c
 10789  006E0C  0E10               	movlw	high (_DispChars+23)
 10790  006E0E  6EF7               	movwf	tblptrh,c
 10791  006E10                     	if	0	;tblptru may be non-zero
 10792  006E10                     	endif
 10793  006E10                     	if	1	;Program memory is > 0xFFFF, there are 3 active tblptr bytes
 10794  006E10  0E00               	movlw	low (__mediumconst shr (0+16))
 10795  006E12  6EF8               	movwf	tblptru,c
 10796  006E14                     	endif
 10797  006E14  0008               	tblrd		*
 10798  006E16  CFF5 F034          	movff	tablat,_disp_U2	;volatile
 10799                           
 10800                           ;mini-project-clock.c: 962: disp_U1 = DispChars.y;
 10801  006E1A  0E18               	movlw	low (_DispChars+23)
 10802  006E1C  6EF6               	movwf	tblptrl,c
 10803  006E1E  0E10               	movlw	high (_DispChars+23)
 10804  006E20  6EF7               	movwf	tblptrh,c
 10805  006E22                     	if	0	;tblptru may be non-zero
 10806  006E22                     	endif
 10807  006E22                     	if	1	;Program memory is > 0xFFFF, there are 3 active tblptr bytes
 10808  006E22  0E00               	movlw	low (__mediumconst shr (0+16))
 10809  006E24  6EF8               	movwf	tblptru,c
 10810  006E26                     	endif
 10811  006E26  0008               	tblrd		*
 10812  006E28  CFF5 F033          	movff	tablat,_disp_U1	;volatile
 10813                           
 10814                           ;mini-project-clock.c: 963: Delay10KTCYx(100);
 10815  006E2C  0E64               	movlw	100
 10816  006E2E  EC88  F039         	call	_Delay10KTCYx
 10817                           
 10818                           ;mini-project-clock.c: 964: disp_U2 = 0xFF;
 10819  006E32  6834               	setf	_disp_U2,c	;volatile
 10820                           
 10821                           ;mini-project-clock.c: 965: disp_U1 = 0xFF;
 10822  006E34  6833               	setf	_disp_U1,c	;volatile
 10823                           
 10824                           ;mini-project-clock.c: 966: Delay10KTCYx(100);
 10825  006E36  0E64               	movlw	100
 10826  006E38  EC88  F039         	call	_Delay10KTCYx
 10827                           
 10828                           ;mini-project-clock.c: 967: disp_U2 = DispChars.y;
 10829  006E3C  0E18               	movlw	low (_DispChars+23)
 10830  006E3E  6EF6               	movwf	tblptrl,c
 10831  006E40  0E10               	movlw	high (_DispChars+23)
 10832  006E42  6EF7               	movwf	tblptrh,c
 10833  006E44                     	if	0	;tblptru may be non-zero
 10834  006E44                     	endif
 10835  006E44                     	if	1	;Program memory is > 0xFFFF, there are 3 active tblptr bytes
 10836  006E44  0E00               	movlw	low (__mediumconst shr (0+16))
 10837  006E46  6EF8               	movwf	tblptru,c
 10838  006E48                     	endif
 10839  006E48  0008               	tblrd		*
 10840  006E4A  CFF5 F034          	movff	tablat,_disp_U2	;volatile
 10841                           
 10842                           ;mini-project-clock.c: 968: disp_U1 = DispChars.y;
 10843  006E4E  0E18               	movlw	low (_DispChars+23)
 10844  006E50  6EF6               	movwf	tblptrl,c
 10845  006E52  0E10               	movlw	high (_DispChars+23)
 10846  006E54  6EF7               	movwf	tblptrh,c
 10847  006E56                     	if	0	;tblptru may be non-zero
 10848  006E56                     	endif
 10849  006E56                     	if	1	;Program memory is > 0xFFFF, there are 3 active tblptr bytes
 10850  006E56  0E00               	movlw	low (__mediumconst shr (0+16))
 10851  006E58  6EF8               	movwf	tblptru,c
 10852  006E5A                     	endif
 10853  006E5A  0008               	tblrd		*
 10854  006E5C  CFF5 F033          	movff	tablat,_disp_U1	;volatile
 10855                           
 10856                           ;mini-project-clock.c: 969: Delay10KTCYx(100);
 10857  006E60  0E64               	movlw	100
 10858  006E62  EC88  F039         	call	_Delay10KTCYx
 10859                           
 10860                           ;mini-project-clock.c: 970: disp_U2 = 0xFF;
 10861  006E66  6834               	setf	_disp_U2,c	;volatile
 10862                           
 10863                           ;mini-project-clock.c: 971: disp_U1 = 0xFF;
 10864  006E68  6833               	setf	_disp_U1,c	;volatile
 10865                           
 10866                           ;mini-project-clock.c: 972: Delay10KTCYx(100);
 10867  006E6A  0E64               	movlw	100
 10868  006E6C  EC88  F039         	call	_Delay10KTCYx
 10869  006E70  0012               	return		;funcret
 10870  006E72                     __end_of_YearFlash:
 10871                           	opt stack 0
 10872                           tblptru	equ	0xFF8
 10873                           tblptrh	equ	0xFF7
 10874                           tblptrl	equ	0xFF6
 10875                           tablat	equ	0xFF5
 10876                           intcon	equ	0xFF2
 10877                           intcon2	equ	0xFF1
 10878                           postinc0	equ	0xFEE
 10879                           wreg	equ	0xFE8
 10880                           status	equ	0xFD8
 10881                           
 10882 ;; *************** function _SetYear *****************
 10883 ;; Defined at:
 10884 ;;		line 844 in file "mini-project-clock.c"
 10885 ;; Parameters:    Size  Location     Type
 10886 ;;  dy              2    2[BANK0 ] PTR volatile struct .
 10887 ;;		 -> Alarm2Date(5), MainDate(5), 
 10888 ;; Auto vars:     Size  Location     Type
 10889 ;;		None
 10890 ;; Return value:  Size  Location     Type
 10891 ;;                  1    wreg      void 
 10892 ;; Registers used:
 10893 ;;		wreg, fsr2l, fsr2h, status,2, status,0, cstack
 10894 ;; Tracked objects:
 10895 ;;		On entry : 0/0
 10896 ;;		On exit  : 0/0
 10897 ;;		Unchanged: 0/0
 10898 ;; Data sizes:     COMRAM   BANK0   BANK1   BANK2   BANK3   BANK4   BANK5   BANK6   BANK7   BANK8   BANK9  BANK10  BANK1
      +1  BANK12  BANK13  BANK14  BANK15
 10899 ;;      Params:         0       2       0       0       0       0       0       0       0       0       0       0       
      +0       0       0       0       0
 10900 ;;      Locals:         0       0       0       0       0       0       0       0       0       0       0       0       
      +0       0       0       0       0
 10901 ;;      Temps:          0       2       0       0       0       0       0       0       0       0       0       0       
      +0       0       0       0       0
 10902 ;;      Totals:         0       4       0       0       0       0       0       0       0       0       0       0       
      +0       0       0       0       0
 10903 ;;Total ram usage:        4 bytes
 10904 ;; Hardware stack levels used:    1
 10905 ;; Hardware stack levels required when called:    5
 10906 ;; This function calls:
 10907 ;;		_Delay10KTCYx
 10908 ;;		_PB1pressed
 10909 ;;		_PB2pressed
 10910 ;; This function is called by:
 10911 ;;		_SetMenu
 10912 ;;		_SetAlarm2
 10913 ;; This function uses a non-reentrant model
 10914 ;;
 10915                           
 10916                           	psect	text11
 10917  00635A                     __ptext11:
 10918                           	opt stack 0
 10919  00635A                     _SetYear:
 10920                           	opt stack 24
 10921                           
 10922                           ;mini-project-clock.c: 845: if (PB2pressed() && dy->year_long < 2099) {
 10923                           
 10924                           ;incstack = 0
 10925  00635A  EC60  F039         	call	_PB2pressed	;wreg free
 10926  00635E  0900               	iorlw	0
 10927  006360  B4D8               	btfsc	status,2,c
 10928  006362  D022               	goto	l12620
 10929  006364  0100               	movlb	0	; () banked
 10930  006366  EE20 F003          	lfsr	2,3
 10931  00636A  5162               	movf	SetYear@dy& (0+255),w,b
 10932  00636C  26D9               	addwf	fsr2l,f,c
 10933  00636E  5163               	movf	(SetYear@dy+1)& (0+255),w,b
 10934  006370  22DA               	addwfc	fsr2h,f,c
 10935  006372  0E33               	movlw	51
 10936  006374  5CDE               	subwf	postinc2,w,c
 10937  006376  0E08               	movlw	8
 10938  006378  58DE               	subwfb	postinc2,w,c
 10939  00637A  B0D8               	btfsc	status,0,c
 10940  00637C  D015               	goto	l12620
 10941                           
 10942                           ; BSR set to: 0
 10943                           ;mini-project-clock.c: 846: dy->year_long++;
 10944  00637E  0100               	movlb	0	; () banked
 10945  006380  EE20 F003          	lfsr	2,3
 10946  006384  5162               	movf	SetYear@dy& (0+255),w,b
 10947  006386  26D9               	addwf	fsr2l,f,c
 10948  006388  5163               	movf	(SetYear@dy+1)& (0+255),w,b
 10949  00638A  22DA               	addwfc	fsr2h,f,c
 10950  00638C  2ADE               	incf	postinc2,f,c
 10951  00638E  0E00               	movlw	0
 10952  006390  22DD               	addwfc	postdec2,f,c
 10953                           
 10954                           ;mini-project-clock.c: 847: dy->year_short++;
 10955  006392  0100               	movlb	0	; () banked
 10956  006394  EE20 F002          	lfsr	2,2
 10957  006398  5162               	movf	SetYear@dy& (0+255),w,b
 10958  00639A  26D9               	addwf	fsr2l,f,c
 10959  00639C  5163               	movf	(SetYear@dy+1)& (0+255),w,b
 10960  00639E  22DA               	addwfc	fsr2h,f,c
 10961  0063A0  2ADF               	incf	indf2,f,c
 10962                           
 10963                           ; BSR set to: 0
 10964                           ;mini-project-clock.c: 848: Delay10KTCYx(25);
 10965  0063A2  0E19               	movlw	25
 10966  0063A4  EC88  F039         	call	_Delay10KTCYx
 10967  0063A8                     l12620:
 10968                           
 10969                           ;mini-project-clock.c: 849: }
 10970                           ;mini-project-clock.c: 850: if (PB2pressed() && dy->year_long == 2099) {
 10971  0063A8  EC60  F039         	call	_PB2pressed	;wreg free
 10972  0063AC  0900               	iorlw	0
 10973  0063AE  B4D8               	btfsc	status,2,c
 10974  0063B0  D025               	goto	l12628
 10975  0063B2  0100               	movlb	0	; () banked
 10976  0063B4  EE20 F003          	lfsr	2,3
 10977  0063B8  5162               	movf	SetYear@dy& (0+255),w,b
 10978  0063BA  26D9               	addwf	fsr2l,f,c
 10979  0063BC  5163               	movf	(SetYear@dy+1)& (0+255),w,b
 10980  0063BE  22DA               	addwfc	fsr2h,f,c
 10981  0063C0  0E33               	movlw	51
 10982  0063C2  18DE               	xorwf	postinc2,w,c
 10983  0063C4  E11B               	bnz	l12628
 10984  0063C6  0E08               	movlw	8
 10985  0063C8  18DE               	xorwf	postinc2,w,c
 10986  0063CA  A4D8               	btfss	status,2,c
 10987  0063CC  D017               	goto	l12628
 10988                           
 10989                           ; BSR set to: 0
 10990                           ;mini-project-clock.c: 851: dy->year_long = 2000;
 10991  0063CE  0100               	movlb	0	; () banked
 10992  0063D0  EE20 F003          	lfsr	2,3
 10993  0063D4  5162               	movf	SetYear@dy& (0+255),w,b
 10994  0063D6  26D9               	addwf	fsr2l,f,c
 10995  0063D8  5163               	movf	(SetYear@dy+1)& (0+255),w,b
 10996  0063DA  22DA               	addwfc	fsr2h,f,c
 10997  0063DC  0ED0               	movlw	208
 10998  0063DE  6EDE               	movwf	postinc2,c
 10999  0063E0  0E07               	movlw	7
 11000  0063E2  6EDD               	movwf	postdec2,c
 11001                           
 11002                           ;mini-project-clock.c: 852: dy->year_short = 00;
 11003  0063E4  0100               	movlb	0	; () banked
 11004  0063E6  EE20 F002          	lfsr	2,2
 11005  0063EA  5162               	movf	SetYear@dy& (0+255),w,b
 11006  0063EC  26D9               	addwf	fsr2l,f,c
 11007  0063EE  5163               	movf	(SetYear@dy+1)& (0+255),w,b
 11008  0063F0  22DA               	addwfc	fsr2h,f,c
 11009  0063F2  0E00               	movlw	0
 11010  0063F4  6EDF               	movwf	indf2,c
 11011                           
 11012                           ; BSR set to: 0
 11013                           ;mini-project-clock.c: 853: Delay10KTCYx(25);
 11014  0063F6  0E19               	movlw	25
 11015  0063F8  EC88  F039         	call	_Delay10KTCYx
 11016  0063FC                     l12628:
 11017                           
 11018                           ;mini-project-clock.c: 854: }
 11019                           ;mini-project-clock.c: 855: if (PB1pressed() && dy->year_long > 2000) {
 11020  0063FC  EC74  F039         	call	_PB1pressed	;wreg free
 11021  006400  0900               	iorlw	0
 11022  006402  B4D8               	btfsc	status,2,c
 11023  006404  D022               	goto	l12636
 11024  006406  0100               	movlb	0	; () banked
 11025  006408  EE20 F003          	lfsr	2,3
 11026  00640C  5162               	movf	SetYear@dy& (0+255),w,b
 11027  00640E  26D9               	addwf	fsr2l,f,c
 11028  006410  5163               	movf	(SetYear@dy+1)& (0+255),w,b
 11029  006412  22DA               	addwfc	fsr2h,f,c
 11030  006414  0ED1               	movlw	209
 11031  006416  5CDE               	subwf	postinc2,w,c
 11032  006418  0E07               	movlw	7
 11033  00641A  58DE               	subwfb	postinc2,w,c
 11034  00641C  A0D8               	btfss	status,0,c
 11035  00641E  D015               	goto	l12636
 11036                           
 11037                           ; BSR set to: 0
 11038                           ;mini-project-clock.c: 856: dy->year_long--;
 11039  006420  0100               	movlb	0	; () banked
 11040  006422  EE20 F003          	lfsr	2,3
 11041  006426  5162               	movf	SetYear@dy& (0+255),w,b
 11042  006428  26D9               	addwf	fsr2l,f,c
 11043  00642A  5163               	movf	(SetYear@dy+1)& (0+255),w,b
 11044  00642C  22DA               	addwfc	fsr2h,f,c
 11045  00642E  06DE               	decf	postinc2,f,c
 11046  006430  0E00               	movlw	0
 11047  006432  5ADD               	subwfb	postdec2,f,c
 11048                           
 11049                           ;mini-project-clock.c: 857: dy->year_short--;
 11050  006434  0100               	movlb	0	; () banked
 11051  006436  EE20 F002          	lfsr	2,2
 11052  00643A  5162               	movf	SetYear@dy& (0+255),w,b
 11053  00643C  26D9               	addwf	fsr2l,f,c
 11054  00643E  5163               	movf	(SetYear@dy+1)& (0+255),w,b
 11055  006440  22DA               	addwfc	fsr2h,f,c
 11056  006442  06DF               	decf	indf2,f,c
 11057                           
 11058                           ; BSR set to: 0
 11059                           ;mini-project-clock.c: 858: Delay10KTCYx(25);
 11060  006444  0E19               	movlw	25
 11061  006446  EC88  F039         	call	_Delay10KTCYx
 11062  00644A                     l12636:
 11063                           
 11064                           ;mini-project-clock.c: 859: }
 11065                           ;mini-project-clock.c: 860: if (PB1pressed() && dy->year_long == 2000) {
 11066  00644A  EC74  F039         	call	_PB1pressed	;wreg free
 11067  00644E  0900               	iorlw	0
 11068  006450  B4D8               	btfsc	status,2,c
 11069  006452  0012               	return	
 11070  006454  0100               	movlb	0	; () banked
 11071  006456  EE20 F003          	lfsr	2,3
 11072  00645A  5162               	movf	SetYear@dy& (0+255),w,b
 11073  00645C  26D9               	addwf	fsr2l,f,c
 11074  00645E  5163               	movf	(SetYear@dy+1)& (0+255),w,b
 11075  006460  22DA               	addwfc	fsr2h,f,c
 11076  006462  0ED0               	movlw	208
 11077  006464  18DE               	xorwf	postinc2,w,c
 11078  006466  E11C               	bnz	l408
 11079  006468  0E07               	movlw	7
 11080  00646A  18DE               	xorwf	postinc2,w,c
 11081  00646C  A4D8               	btfss	status,2,c
 11082  00646E  0012               	return	
 11083                           
 11084                           ; BSR set to: 0
 11085                           ;mini-project-clock.c: 861: dy->year_long = 2099;
 11086  006470  0100               	movlb	0	; () banked
 11087  006472  EE20 F003          	lfsr	2,3
 11088  006476  5162               	movf	SetYear@dy& (0+255),w,b
 11089  006478  26D9               	addwf	fsr2l,f,c
 11090  00647A  5163               	movf	(SetYear@dy+1)& (0+255),w,b
 11091  00647C  22DA               	addwfc	fsr2h,f,c
 11092  00647E  0E33               	movlw	51
 11093  006480  6EDE               	movwf	postinc2,c
 11094  006482  0E08               	movlw	8
 11095  006484  6EDD               	movwf	postdec2,c
 11096                           
 11097                           ;mini-project-clock.c: 862: dy->year_short = 99;
 11098  006486  0100               	movlb	0	; () banked
 11099  006488  EE20 F002          	lfsr	2,2
 11100  00648C  5162               	movf	SetYear@dy& (0+255),w,b
 11101  00648E  26D9               	addwf	fsr2l,f,c
 11102  006490  5163               	movf	(SetYear@dy+1)& (0+255),w,b
 11103  006492  22DA               	addwfc	fsr2h,f,c
 11104  006494  0E63               	movlw	99
 11105  006496  6EDF               	movwf	indf2,c
 11106                           
 11107                           ; BSR set to: 0
 11108                           ;mini-project-clock.c: 863: Delay10KTCYx(25);
 11109  006498  0E19               	movlw	25
 11110  00649A  EC88  F039         	call	_Delay10KTCYx
 11111  00649E  0012               	return	
 11112  0064A0                     l408:
 11113  0064A0  0012               	return		;funcret
 11114  0064A2                     __end_of_SetYear:
 11115                           	opt stack 0
 11116                           tblptru	equ	0xFF8
 11117                           tblptrh	equ	0xFF7
 11118                           tblptrl	equ	0xFF6
 11119                           tablat	equ	0xFF5
 11120                           intcon	equ	0xFF2
 11121                           intcon2	equ	0xFF1
 11122                           postinc0	equ	0xFEE
 11123                           wreg	equ	0xFE8
 11124                           indf2	equ	0xFDF
 11125                           postinc2	equ	0xFDE
 11126                           postdec2	equ	0xFDD
 11127                           fsr2h	equ	0xFDA
 11128                           fsr2l	equ	0xFD9
 11129                           status	equ	0xFD8
 11130                           
 11131 ;; *************** function _SetMonth *****************
 11132 ;; Defined at:
 11133 ;;		line 825 in file "mini-project-clock.c"
 11134 ;; Parameters:    Size  Location     Type
 11135 ;;  dm              2    2[BANK0 ] PTR volatile struct .
 11136 ;;		 -> Alarm2Date(5), MainDate(5), 
 11137 ;; Auto vars:     Size  Location     Type
 11138 ;;		None
 11139 ;; Return value:  Size  Location     Type
 11140 ;;                  1    wreg      void 
 11141 ;; Registers used:
 11142 ;;		wreg, fsr2l, fsr2h, status,2, status,0, cstack
 11143 ;; Tracked objects:
 11144 ;;		On entry : 0/0
 11145 ;;		On exit  : 0/0
 11146 ;;		Unchanged: 0/0
 11147 ;; Data sizes:     COMRAM   BANK0   BANK1   BANK2   BANK3   BANK4   BANK5   BANK6   BANK7   BANK8   BANK9  BANK10  BANK1
      +1  BANK12  BANK13  BANK14  BANK15
 11148 ;;      Params:         0       2       0       0       0       0       0       0       0       0       0       0       
      +0       0       0       0       0
 11149 ;;      Locals:         0       0       0       0       0       0       0       0       0       0       0       0       
      +0       0       0       0       0
 11150 ;;      Temps:          0       1       0       0       0       0       0       0       0       0       0       0       
      +0       0       0       0       0
 11151 ;;      Totals:         0       3       0       0       0       0       0       0       0       0       0       0       
      +0       0       0       0       0
 11152 ;;Total ram usage:        3 bytes
 11153 ;; Hardware stack levels used:    1
 11154 ;; Hardware stack levels required when called:    5
 11155 ;; This function calls:
 11156 ;;		_Delay10KTCYx
 11157 ;;		_PB1pressed
 11158 ;;		_PB2pressed
 11159 ;; This function is called by:
 11160 ;;		_SetMenu
 11161 ;;		_SetAlarm2
 11162 ;; This function uses a non-reentrant model
 11163 ;;
 11164                           
 11165                           	psect	text12
 11166  00668A                     __ptext12:
 11167                           	opt stack 0
 11168  00668A                     _SetMonth:
 11169                           	opt stack 24
 11170                           
 11171                           ;mini-project-clock.c: 826: if (PB2pressed() && dm->month < 12) {
 11172                           
 11173                           ;incstack = 0
 11174  00668A  EC60  F039         	call	_PB2pressed	;wreg free
 11175  00668E  0900               	iorlw	0
 11176  006690  B4D8               	btfsc	status,2,c
 11177  006692  D015               	goto	l12558
 11178  006694  0100               	movlb	0	; () banked
 11179  006696  EE20 F001          	lfsr	2,1
 11180  00669A  5162               	movf	SetMonth@dm& (0+255),w,b
 11181  00669C  26D9               	addwf	fsr2l,f,c
 11182  00669E  5163               	movf	(SetMonth@dm+1)& (0+255),w,b
 11183  0066A0  22DA               	addwfc	fsr2h,f,c
 11184  0066A2  0E0C               	movlw	12
 11185  0066A4  60DF               	cpfslt	indf2,c
 11186  0066A6  D00B               	goto	l12558
 11187                           
 11188                           ; BSR set to: 0
 11189                           ;mini-project-clock.c: 827: dm->month++;
 11190  0066A8  0100               	movlb	0	; () banked
 11191  0066AA  EE20 F001          	lfsr	2,1
 11192  0066AE  5162               	movf	SetMonth@dm& (0+255),w,b
 11193  0066B0  26D9               	addwf	fsr2l,f,c
 11194  0066B2  5163               	movf	(SetMonth@dm+1)& (0+255),w,b
 11195  0066B4  22DA               	addwfc	fsr2h,f,c
 11196  0066B6  2ADF               	incf	indf2,f,c
 11197                           
 11198                           ; BSR set to: 0
 11199                           ;mini-project-clock.c: 828: Delay10KTCYx(25);
 11200  0066B8  0E19               	movlw	25
 11201  0066BA  EC88  F039         	call	_Delay10KTCYx
 11202  0066BE                     l12558:
 11203                           
 11204                           ;mini-project-clock.c: 829: }
 11205                           ;mini-project-clock.c: 830: if (PB2pressed() && dm->month == 12) {
 11206  0066BE  EC60  F039         	call	_PB2pressed	;wreg free
 11207  0066C2  0900               	iorlw	0
 11208  0066C4  B4D8               	btfsc	status,2,c
 11209  0066C6  D017               	goto	l12566
 11210  0066C8  0100               	movlb	0	; () banked
 11211  0066CA  EE20 F001          	lfsr	2,1
 11212  0066CE  5162               	movf	SetMonth@dm& (0+255),w,b
 11213  0066D0  26D9               	addwf	fsr2l,f,c
 11214  0066D2  5163               	movf	(SetMonth@dm+1)& (0+255),w,b
 11215  0066D4  22DA               	addwfc	fsr2h,f,c
 11216  0066D6  0E0C               	movlw	12
 11217  0066D8  18DE               	xorwf	postinc2,w,c
 11218  0066DA  A4D8               	btfss	status,2,c
 11219  0066DC  D00C               	goto	l12566
 11220                           
 11221                           ; BSR set to: 0
 11222                           ;mini-project-clock.c: 831: dm->month = 1;
 11223  0066DE  0100               	movlb	0	; () banked
 11224  0066E0  EE20 F001          	lfsr	2,1
 11225  0066E4  5162               	movf	SetMonth@dm& (0+255),w,b
 11226  0066E6  26D9               	addwf	fsr2l,f,c
 11227  0066E8  5163               	movf	(SetMonth@dm+1)& (0+255),w,b
 11228  0066EA  22DA               	addwfc	fsr2h,f,c
 11229  0066EC  0E01               	movlw	1
 11230  0066EE  6EDF               	movwf	indf2,c
 11231                           
 11232                           ; BSR set to: 0
 11233                           ;mini-project-clock.c: 832: Delay10KTCYx(25);
 11234  0066F0  0E19               	movlw	25
 11235  0066F2  EC88  F039         	call	_Delay10KTCYx
 11236  0066F6                     l12566:
 11237                           
 11238                           ;mini-project-clock.c: 833: }
 11239                           ;mini-project-clock.c: 834: if (PB1pressed() && dm->month > 1) {
 11240  0066F6  EC74  F039         	call	_PB1pressed	;wreg free
 11241  0066FA  0900               	iorlw	0
 11242  0066FC  B4D8               	btfsc	status,2,c
 11243  0066FE  D015               	goto	l12574
 11244  006700  0100               	movlb	0	; () banked
 11245  006702  EE20 F001          	lfsr	2,1
 11246  006706  5162               	movf	SetMonth@dm& (0+255),w,b
 11247  006708  26D9               	addwf	fsr2l,f,c
 11248  00670A  5163               	movf	(SetMonth@dm+1)& (0+255),w,b
 11249  00670C  22DA               	addwfc	fsr2h,f,c
 11250  00670E  0E01               	movlw	1
 11251  006710  64DF               	cpfsgt	indf2,c
 11252  006712  D00B               	goto	l12574
 11253                           
 11254                           ; BSR set to: 0
 11255                           ;mini-project-clock.c: 835: dm->month--;
 11256  006714  0100               	movlb	0	; () banked
 11257  006716  EE20 F001          	lfsr	2,1
 11258  00671A  5162               	movf	SetMonth@dm& (0+255),w,b
 11259  00671C  26D9               	addwf	fsr2l,f,c
 11260  00671E  5163               	movf	(SetMonth@dm+1)& (0+255),w,b
 11261  006720  22DA               	addwfc	fsr2h,f,c
 11262  006722  06DF               	decf	indf2,f,c
 11263                           
 11264                           ; BSR set to: 0
 11265                           ;mini-project-clock.c: 836: Delay10KTCYx(25);
 11266  006724  0E19               	movlw	25
 11267  006726  EC88  F039         	call	_Delay10KTCYx
 11268  00672A                     l12574:
 11269                           
 11270                           ;mini-project-clock.c: 837: }
 11271                           ;mini-project-clock.c: 838: if (PB1pressed() && dm->month == 1) {
 11272  00672A  EC74  F039         	call	_PB1pressed	;wreg free
 11273  00672E  0900               	iorlw	0
 11274  006730  B4D8               	btfsc	status,2,c
 11275  006732  0012               	return	
 11276  006734  0100               	movlb	0	; () banked
 11277  006736  EE20 F001          	lfsr	2,1
 11278  00673A  5162               	movf	SetMonth@dm& (0+255),w,b
 11279  00673C  26D9               	addwf	fsr2l,f,c
 11280  00673E  5163               	movf	(SetMonth@dm+1)& (0+255),w,b
 11281  006740  22DA               	addwfc	fsr2h,f,c
 11282  006742  04DE               	decf	postinc2,w,c
 11283  006744  A4D8               	btfss	status,2,c
 11284  006746  0012               	return	
 11285                           
 11286                           ; BSR set to: 0
 11287                           ;mini-project-clock.c: 839: dm->month = 12;
 11288  006748  0100               	movlb	0	; () banked
 11289  00674A  EE20 F001          	lfsr	2,1
 11290  00674E  5162               	movf	SetMonth@dm& (0+255),w,b
 11291  006750  26D9               	addwf	fsr2l,f,c
 11292  006752  5163               	movf	(SetMonth@dm+1)& (0+255),w,b
 11293  006754  22DA               	addwfc	fsr2h,f,c
 11294  006756  0E0C               	movlw	12
 11295  006758  6EDF               	movwf	indf2,c
 11296                           
 11297                           ; BSR set to: 0
 11298                           ;mini-project-clock.c: 840: Delay10KTCYx(25);
 11299  00675A  0E19               	movlw	25
 11300  00675C  EC88  F039         	call	_Delay10KTCYx
 11301  006760  0012               	return	
 11302  006762                     __end_of_SetMonth:
 11303                           	opt stack 0
 11304                           tblptru	equ	0xFF8
 11305                           tblptrh	equ	0xFF7
 11306                           tblptrl	equ	0xFF6
 11307                           tablat	equ	0xFF5
 11308                           intcon	equ	0xFF2
 11309                           intcon2	equ	0xFF1
 11310                           postinc0	equ	0xFEE
 11311                           wreg	equ	0xFE8
 11312                           indf2	equ	0xFDF
 11313                           postinc2	equ	0xFDE
 11314                           postdec2	equ	0xFDD
 11315                           fsr2h	equ	0xFDA
 11316                           fsr2l	equ	0xFD9
 11317                           status	equ	0xFD8
 11318                           
 11319 ;; *************** function _SetDay *****************
 11320 ;; Defined at:
 11321 ;;		line 784 in file "mini-project-clock.c"
 11322 ;; Parameters:    Size  Location     Type
 11323 ;;  dd              2    9[BANK0 ] PTR volatile struct .
 11324 ;;		 -> Alarm2Date(5), MainDate(5), 
 11325 ;; Auto vars:     Size  Location     Type
 11326 ;;		None
 11327 ;; Return value:  Size  Location     Type
 11328 ;;                  1    wreg      void 
 11329 ;; Registers used:
 11330 ;;		wreg, fsr2l, fsr2h, status,2, status,0, tblptrl, tblptrh, tblptru, prodl, prodh, cstack
 11331 ;; Tracked objects:
 11332 ;;		On entry : 0/0
 11333 ;;		On exit  : 0/0
 11334 ;;		Unchanged: 0/0
 11335 ;; Data sizes:     COMRAM   BANK0   BANK1   BANK2   BANK3   BANK4   BANK5   BANK6   BANK7   BANK8   BANK9  BANK10  BANK1
      +1  BANK12  BANK13  BANK14  BANK15
 11336 ;;      Params:         0       2       0       0       0       0       0       0       0       0       0       0       
      +0       0       0       0       0
 11337 ;;      Locals:         0       0       0       0       0       0       0       0       0       0       0       0       
      +0       0       0       0       0
 11338 ;;      Temps:          0       2       0       0       0       0       0       0       0       0       0       0       
      +0       0       0       0       0
 11339 ;;      Totals:         0       4       0       0       0       0       0       0       0       0       0       0       
      +0       0       0       0       0
 11340 ;;Total ram usage:        4 bytes
 11341 ;; Hardware stack levels used:    1
 11342 ;; Hardware stack levels required when called:    6
 11343 ;; This function calls:
 11344 ;;		_CalcLeapYear
 11345 ;;		_Delay10KTCYx
 11346 ;;		_PB1pressed
 11347 ;;		_PB2pressed
 11348 ;; This function is called by:
 11349 ;;		_SetMenu
 11350 ;;		_SetAlarm2
 11351 ;; This function uses a non-reentrant model
 11352 ;;
 11353                           
 11354                           	psect	text13
 11355  0058EC                     __ptext13:
 11356                           	opt stack 0
 11357  0058EC                     _SetDay:
 11358                           	opt stack 23
 11359                           
 11360                           ;mini-project-clock.c: 785: if(CalcLeapYear(dd->year_long) == 1) {
 11361                           
 11362                           ;incstack = 0
 11363  0058EC  0100               	movlb	0	; () banked
 11364  0058EE  EE20 F003          	lfsr	2,3
 11365  0058F2  5169               	movf	SetDay@dd& (0+255),w,b
 11366  0058F4  26D9               	addwf	fsr2l,f,c
 11367  0058F6  516A               	movf	(SetDay@dd+1)& (0+255),w,b
 11368  0058F8  22DA               	addwfc	fsr2h,f,c
 11369  0058FA  CFDE F065          	movff	postinc2,CalcLeapYear@year
 11370  0058FE  CFDD F066          	movff	postdec2,CalcLeapYear@year+1
 11371  005902  ECC6  F036         	call	_CalcLeapYear	;wreg free
 11372  005906  06E8               	decf	wreg,f,c
 11373  005908  A4D8               	btfss	status,2,c
 11374  00590A  D097               	goto	l12490
 11375                           
 11376                           ;mini-project-clock.c: 786: if(PB2pressed() && dd->day < DaysInMonthLeap[dd->month]) {
 11377  00590C  EC60  F039         	call	_PB2pressed	;wreg free
 11378  005910  0900               	iorlw	0
 11379  005912  B4D8               	btfsc	status,2,c
 11380  005914  D02B               	goto	l12466
 11381  005916  C069  FFD9         	movff	SetDay@dd,fsr2l
 11382  00591A  C06A  FFDA         	movff	SetDay@dd+1,fsr2h
 11383  00591E  50DF               	movf	indf2,w,c
 11384  005920  0100               	movlb	0	; () banked
 11385  005922  6F6B               	movwf	??_SetDay& (0+255),b
 11386  005924  0100               	movlb	0	; () banked
 11387  005926  EE20 F001          	lfsr	2,1
 11388  00592A  5169               	movf	SetDay@dd& (0+255),w,b
 11389  00592C  26D9               	addwf	fsr2l,f,c
 11390  00592E  516A               	movf	(SetDay@dd+1)& (0+255),w,b
 11391  005930  22DA               	addwfc	fsr2h,f,c
 11392  005932  50DF               	movf	indf2,w,c
 11393  005934  0100               	movlb	0	; () banked
 11394  005936  6F6C               	movwf	(??_SetDay+1)& (0+255),b
 11395  005938  0100               	movlb	0	; () banked
 11396  00593A  516C               	movf	(??_SetDay+1)& (0+255),w,b
 11397  00593C  0D01               	mullw	1
 11398  00593E  0E27               	movlw	low _DaysInMonthLeap
 11399  005940  24F3               	addwf	prodl,w,c
 11400  005942  6EF6               	movwf	tblptrl,c
 11401  005944  0E10               	movlw	high _DaysInMonthLeap
 11402  005946  20F4               	addwfc	prodh,w,c
 11403  005948  6EF7               	movwf	tblptrh,c
 11404  00594A                     	if	1	;There are 3 active tblptr bytes
 11405  00594A  6AF8               	clrf	tblptru,c
 11406  00594C  0E00               	movlw	low (__mediumconst shr (0+16))
 11407  00594E  22F8               	addwfc	tblptru,f,c
 11408  005950                     	endif
 11409  005950  0008               	tblrd		*
 11410  005952  50F5               	movf	tablat,w,c
 11411  005954  0100               	movlb	0	; () banked
 11412  005956  5D6B               	subwf	??_SetDay& (0+255),w,b
 11413  005958  B0D8               	btfsc	status,0,c
 11414  00595A  D008               	goto	l12466
 11415                           
 11416                           ; BSR set to: 0
 11417                           ;mini-project-clock.c: 787: dd->day++;
 11418  00595C  C069  FFD9         	movff	SetDay@dd,fsr2l
 11419  005960  C06A  FFDA         	movff	SetDay@dd+1,fsr2h
 11420  005964  2ADF               	incf	indf2,f,c
 11421                           
 11422                           ; BSR set to: 0
 11423                           ;mini-project-clock.c: 788: Delay10KTCYx(25);
 11424  005966  0E19               	movlw	25
 11425  005968  EC88  F039         	call	_Delay10KTCYx
 11426  00596C                     l12466:
 11427                           
 11428                           ;mini-project-clock.c: 789: }
 11429                           ;mini-project-clock.c: 790: if(PB2pressed() && dd->day == DaysInMonthLeap[dd->month]) {
 11430  00596C  EC60  F039         	call	_PB2pressed	;wreg free
 11431  005970  0900               	iorlw	0
 11432  005972  B4D8               	btfsc	status,2,c
 11433  005974  D02C               	goto	l12474
 11434  005976  C069  FFD9         	movff	SetDay@dd,fsr2l
 11435  00597A  C06A  FFDA         	movff	SetDay@dd+1,fsr2h
 11436  00597E  50DF               	movf	indf2,w,c
 11437  005980  0100               	movlb	0	; () banked
 11438  005982  6F6B               	movwf	??_SetDay& (0+255),b
 11439  005984  0100               	movlb	0	; () banked
 11440  005986  EE20 F001          	lfsr	2,1
 11441  00598A  5169               	movf	SetDay@dd& (0+255),w,b
 11442  00598C  26D9               	addwf	fsr2l,f,c
 11443  00598E  516A               	movf	(SetDay@dd+1)& (0+255),w,b
 11444  005990  22DA               	addwfc	fsr2h,f,c
 11445  005992  50DF               	movf	indf2,w,c
 11446  005994  0100               	movlb	0	; () banked
 11447  005996  6F6C               	movwf	(??_SetDay+1)& (0+255),b
 11448  005998  0100               	movlb	0	; () banked
 11449  00599A  516C               	movf	(??_SetDay+1)& (0+255),w,b
 11450  00599C  0D01               	mullw	1
 11451  00599E  0E27               	movlw	low _DaysInMonthLeap
 11452  0059A0  24F3               	addwf	prodl,w,c
 11453  0059A2  6EF6               	movwf	tblptrl,c
 11454  0059A4  0E10               	movlw	high _DaysInMonthLeap
 11455  0059A6  20F4               	addwfc	prodh,w,c
 11456  0059A8  6EF7               	movwf	tblptrh,c
 11457  0059AA                     	if	1	;There are 3 active tblptr bytes
 11458  0059AA  6AF8               	clrf	tblptru,c
 11459  0059AC  0E00               	movlw	low (__mediumconst shr (0+16))
 11460  0059AE  22F8               	addwfc	tblptru,f,c
 11461  0059B0                     	endif
 11462  0059B0  0008               	tblrd		*
 11463  0059B2  50F5               	movf	tablat,w,c
 11464  0059B4  0100               	movlb	0	; () banked
 11465  0059B6  196B               	xorwf	??_SetDay& (0+255),w,b
 11466  0059B8  A4D8               	btfss	status,2,c
 11467  0059BA  D009               	goto	l12474
 11468                           
 11469                           ; BSR set to: 0
 11470                           ;mini-project-clock.c: 791: dd->day = 1;
 11471  0059BC  C069  FFD9         	movff	SetDay@dd,fsr2l
 11472  0059C0  C06A  FFDA         	movff	SetDay@dd+1,fsr2h
 11473  0059C4  0E01               	movlw	1
 11474  0059C6  6EDF               	movwf	indf2,c
 11475                           
 11476                           ; BSR set to: 0
 11477                           ;mini-project-clock.c: 792: Delay10KTCYx(25);
 11478  0059C8  0E19               	movlw	25
 11479  0059CA  EC88  F039         	call	_Delay10KTCYx
 11480  0059CE                     l12474:
 11481                           
 11482                           ;mini-project-clock.c: 793: }
 11483                           ;mini-project-clock.c: 794: if(PB1pressed() && dd->day > 1) {
 11484  0059CE  EC74  F039         	call	_PB1pressed	;wreg free
 11485  0059D2  0900               	iorlw	0
 11486  0059D4  B4D8               	btfsc	status,2,c
 11487  0059D6  D00F               	goto	l12482
 11488  0059D8  C069  FFD9         	movff	SetDay@dd,fsr2l
 11489  0059DC  C06A  FFDA         	movff	SetDay@dd+1,fsr2h
 11490  0059E0  0E01               	movlw	1
 11491  0059E2  64DF               	cpfsgt	indf2,c
 11492  0059E4  D008               	goto	l12482
 11493                           
 11494                           ;mini-project-clock.c: 795: dd->day--;
 11495  0059E6  C069  FFD9         	movff	SetDay@dd,fsr2l
 11496  0059EA  C06A  FFDA         	movff	SetDay@dd+1,fsr2h
 11497  0059EE  06DF               	decf	indf2,f,c
 11498                           
 11499                           ;mini-project-clock.c: 796: Delay10KTCYx(25);
 11500  0059F0  0E19               	movlw	25
 11501  0059F2  EC88  F039         	call	_Delay10KTCYx
 11502  0059F6                     l12482:
 11503                           
 11504                           ;mini-project-clock.c: 797: }
 11505                           ;mini-project-clock.c: 798: if(PB1pressed() && dd->day == 1) {
 11506  0059F6  EC74  F039         	call	_PB1pressed	;wreg free
 11507  0059FA  0900               	iorlw	0
 11508  0059FC  B4D8               	btfsc	status,2,c
 11509  0059FE  0012               	return	
 11510  005A00  C069  FFD9         	movff	SetDay@dd,fsr2l
 11511  005A04  C06A  FFDA         	movff	SetDay@dd+1,fsr2h
 11512  005A08  04DE               	decf	postinc2,w,c
 11513  005A0A  A4D8               	btfss	status,2,c
 11514  005A0C  0012               	return	
 11515                           
 11516                           ;mini-project-clock.c: 799: dd->day = DaysInMonth[MainDate.month];
 11517  005A0E  503C               	movf	_MainDate+1,w,c	;volatile
 11518  005A10  0D01               	mullw	1
 11519  005A12  0E1A               	movlw	low _DaysInMonth
 11520  005A14  24F3               	addwf	prodl,w,c
 11521  005A16  6EF6               	movwf	tblptrl,c
 11522  005A18  0E10               	movlw	high _DaysInMonth
 11523  005A1A  20F4               	addwfc	prodh,w,c
 11524  005A1C  6EF7               	movwf	tblptrh,c
 11525  005A1E                     	if	1	;There are 3 active tblptr bytes
 11526  005A1E  6AF8               	clrf	tblptru,c
 11527  005A20  0E00               	movlw	low (__mediumconst shr (0+16))
 11528  005A22  22F8               	addwfc	tblptru,f,c
 11529  005A24                     	endif
 11530  005A24  C069  FFD9         	movff	SetDay@dd,fsr2l
 11531  005A28  C06A  FFDA         	movff	SetDay@dd+1,fsr2h
 11532  005A2C  0008               	tblrd		*
 11533  005A2E  CFF5 FFDF          	movff	tablat,indf2
 11534                           
 11535                           ;mini-project-clock.c: 800: Delay10KTCYx(25);
 11536  005A32  0E19               	movlw	25
 11537  005A34  EC88  F039         	call	_Delay10KTCYx
 11538                           
 11539                           ;mini-project-clock.c: 801: }
 11540                           ;mini-project-clock.c: 802: }
 11541  005A38  0012               	return	
 11542  005A3A                     l12490:
 11543                           
 11544                           ;mini-project-clock.c: 803: else {
 11545                           ;mini-project-clock.c: 804: if(PB2pressed() && dd->day < DaysInMonthLeap[dd->month]) {
 11546  005A3A  EC60  F039         	call	_PB2pressed	;wreg free
 11547  005A3E  0900               	iorlw	0
 11548  005A40  B4D8               	btfsc	status,2,c
 11549  005A42  D02B               	goto	l12498
 11550  005A44  C069  FFD9         	movff	SetDay@dd,fsr2l
 11551  005A48  C06A  FFDA         	movff	SetDay@dd+1,fsr2h
 11552  005A4C  50DF               	movf	indf2,w,c
 11553  005A4E  0100               	movlb	0	; () banked
 11554  005A50  6F6B               	movwf	??_SetDay& (0+255),b
 11555  005A52  0100               	movlb	0	; () banked
 11556  005A54  EE20 F001          	lfsr	2,1
 11557  005A58  5169               	movf	SetDay@dd& (0+255),w,b
 11558  005A5A  26D9               	addwf	fsr2l,f,c
 11559  005A5C  516A               	movf	(SetDay@dd+1)& (0+255),w,b
 11560  005A5E  22DA               	addwfc	fsr2h,f,c
 11561  005A60  50DF               	movf	indf2,w,c
 11562  005A62  0100               	movlb	0	; () banked
 11563  005A64  6F6C               	movwf	(??_SetDay+1)& (0+255),b
 11564  005A66  0100               	movlb	0	; () banked
 11565  005A68  516C               	movf	(??_SetDay+1)& (0+255),w,b
 11566  005A6A  0D01               	mullw	1
 11567  005A6C  0E27               	movlw	low _DaysInMonthLeap
 11568  005A6E  24F3               	addwf	prodl,w,c
 11569  005A70  6EF6               	movwf	tblptrl,c
 11570  005A72  0E10               	movlw	high _DaysInMonthLeap
 11571  005A74  20F4               	addwfc	prodh,w,c
 11572  005A76  6EF7               	movwf	tblptrh,c
 11573  005A78                     	if	1	;There are 3 active tblptr bytes
 11574  005A78  6AF8               	clrf	tblptru,c
 11575  005A7A  0E00               	movlw	low (__mediumconst shr (0+16))
 11576  005A7C  22F8               	addwfc	tblptru,f,c
 11577  005A7E                     	endif
 11578  005A7E  0008               	tblrd		*
 11579  005A80  50F5               	movf	tablat,w,c
 11580  005A82  0100               	movlb	0	; () banked
 11581  005A84  5D6B               	subwf	??_SetDay& (0+255),w,b
 11582  005A86  B0D8               	btfsc	status,0,c
 11583  005A88  D008               	goto	l12498
 11584                           
 11585                           ; BSR set to: 0
 11586                           ;mini-project-clock.c: 805: dd->day++;
 11587  005A8A  C069  FFD9         	movff	SetDay@dd,fsr2l
 11588  005A8E  C06A  FFDA         	movff	SetDay@dd+1,fsr2h
 11589  005A92  2ADF               	incf	indf2,f,c
 11590                           
 11591                           ; BSR set to: 0
 11592                           ;mini-project-clock.c: 806: Delay10KTCYx(25);
 11593  005A94  0E19               	movlw	25
 11594  005A96  EC88  F039         	call	_Delay10KTCYx
 11595  005A9A                     l12498:
 11596                           
 11597                           ;mini-project-clock.c: 807: }
 11598                           ;mini-project-clock.c: 808: if(PB2pressed() && dd->day == DaysInMonth[dd->month]) {
 11599  005A9A  EC60  F039         	call	_PB2pressed	;wreg free
 11600  005A9E  0900               	iorlw	0
 11601  005AA0  B4D8               	btfsc	status,2,c
 11602  005AA2  D02C               	goto	l12506
 11603  005AA4  C069  FFD9         	movff	SetDay@dd,fsr2l
 11604  005AA8  C06A  FFDA         	movff	SetDay@dd+1,fsr2h
 11605  005AAC  50DF               	movf	indf2,w,c
 11606  005AAE  0100               	movlb	0	; () banked
 11607  005AB0  6F6B               	movwf	??_SetDay& (0+255),b
 11608  005AB2  0100               	movlb	0	; () banked
 11609  005AB4  EE20 F001          	lfsr	2,1
 11610  005AB8  5169               	movf	SetDay@dd& (0+255),w,b
 11611  005ABA  26D9               	addwf	fsr2l,f,c
 11612  005ABC  516A               	movf	(SetDay@dd+1)& (0+255),w,b
 11613  005ABE  22DA               	addwfc	fsr2h,f,c
 11614  005AC0  50DF               	movf	indf2,w,c
 11615  005AC2  0100               	movlb	0	; () banked
 11616  005AC4  6F6C               	movwf	(??_SetDay+1)& (0+255),b
 11617  005AC6  0100               	movlb	0	; () banked
 11618  005AC8  516C               	movf	(??_SetDay+1)& (0+255),w,b
 11619  005ACA  0D01               	mullw	1
 11620  005ACC  0E1A               	movlw	low _DaysInMonth
 11621  005ACE  24F3               	addwf	prodl,w,c
 11622  005AD0  6EF6               	movwf	tblptrl,c
 11623  005AD2  0E10               	movlw	high _DaysInMonth
 11624  005AD4  20F4               	addwfc	prodh,w,c
 11625  005AD6  6EF7               	movwf	tblptrh,c
 11626  005AD8                     	if	1	;There are 3 active tblptr bytes
 11627  005AD8  6AF8               	clrf	tblptru,c
 11628  005ADA  0E00               	movlw	low (__mediumconst shr (0+16))
 11629  005ADC  22F8               	addwfc	tblptru,f,c
 11630  005ADE                     	endif
 11631  005ADE  0008               	tblrd		*
 11632  005AE0  50F5               	movf	tablat,w,c
 11633  005AE2  0100               	movlb	0	; () banked
 11634  005AE4  196B               	xorwf	??_SetDay& (0+255),w,b
 11635  005AE6  A4D8               	btfss	status,2,c
 11636  005AE8  D009               	goto	l12506
 11637                           
 11638                           ; BSR set to: 0
 11639                           ;mini-project-clock.c: 809: dd->day = 1;
 11640  005AEA  C069  FFD9         	movff	SetDay@dd,fsr2l
 11641  005AEE  C06A  FFDA         	movff	SetDay@dd+1,fsr2h
 11642  005AF2  0E01               	movlw	1
 11643  005AF4  6EDF               	movwf	indf2,c
 11644                           
 11645                           ; BSR set to: 0
 11646                           ;mini-project-clock.c: 810: Delay10KTCYx(25);
 11647  005AF6  0E19               	movlw	25
 11648  005AF8  EC88  F039         	call	_Delay10KTCYx
 11649  005AFC                     l12506:
 11650                           
 11651                           ;mini-project-clock.c: 811: }
 11652                           ;mini-project-clock.c: 812: if(PB1pressed() && dd->day > 1) {
 11653  005AFC  EC74  F039         	call	_PB1pressed	;wreg free
 11654  005B00  0900               	iorlw	0
 11655  005B02  B4D8               	btfsc	status,2,c
 11656  005B04  D00F               	goto	l12514
 11657  005B06  C069  FFD9         	movff	SetDay@dd,fsr2l
 11658  005B0A  C06A  FFDA         	movff	SetDay@dd+1,fsr2h
 11659  005B0E  0E01               	movlw	1
 11660  005B10  64DF               	cpfsgt	indf2,c
 11661  005B12  D008               	goto	l12514
 11662                           
 11663                           ;mini-project-clock.c: 813: dd->day--;
 11664  005B14  C069  FFD9         	movff	SetDay@dd,fsr2l
 11665  005B18  C06A  FFDA         	movff	SetDay@dd+1,fsr2h
 11666  005B1C  06DF               	decf	indf2,f,c
 11667                           
 11668                           ;mini-project-clock.c: 814: Delay10KTCYx(25);
 11669  005B1E  0E19               	movlw	25
 11670  005B20  EC88  F039         	call	_Delay10KTCYx
 11671  005B24                     l12514:
 11672                           
 11673                           ;mini-project-clock.c: 815: }
 11674                           ;mini-project-clock.c: 816: if(PB1pressed() && dd->day == 1) {
 11675  005B24  EC74  F039         	call	_PB1pressed	;wreg free
 11676  005B28  0900               	iorlw	0
 11677  005B2A  B4D8               	btfsc	status,2,c
 11678  005B2C  0012               	return	
 11679  005B2E  C069  FFD9         	movff	SetDay@dd,fsr2l
 11680  005B32  C06A  FFDA         	movff	SetDay@dd+1,fsr2h
 11681  005B36  04DE               	decf	postinc2,w,c
 11682  005B38  A4D8               	btfss	status,2,c
 11683  005B3A  0012               	return	
 11684                           
 11685                           ;mini-project-clock.c: 817: dd->day = DaysInMonth[MainDate.month];
 11686  005B3C  503C               	movf	_MainDate+1,w,c	;volatile
 11687  005B3E  0D01               	mullw	1
 11688  005B40  0E1A               	movlw	low _DaysInMonth
 11689  005B42  24F3               	addwf	prodl,w,c
 11690  005B44  6EF6               	movwf	tblptrl,c
 11691  005B46  0E10               	movlw	high _DaysInMonth
 11692  005B48  20F4               	addwfc	prodh,w,c
 11693  005B4A  6EF7               	movwf	tblptrh,c
 11694  005B4C                     	if	1	;There are 3 active tblptr bytes
 11695  005B4C  6AF8               	clrf	tblptru,c
 11696  005B4E  0E00               	movlw	low (__mediumconst shr (0+16))
 11697  005B50  22F8               	addwfc	tblptru,f,c
 11698  005B52                     	endif
 11699  005B52  C069  FFD9         	movff	SetDay@dd,fsr2l
 11700  005B56  C06A  FFDA         	movff	SetDay@dd+1,fsr2h
 11701  005B5A  0008               	tblrd		*
 11702  005B5C  CFF5 FFDF          	movff	tablat,indf2
 11703                           
 11704                           ;mini-project-clock.c: 818: Delay10KTCYx(25);
 11705  005B60  0E19               	movlw	25
 11706  005B62  EC88  F039         	call	_Delay10KTCYx
 11707  005B66  0012               	return	
 11708  005B68                     __end_of_SetDay:
 11709                           	opt stack 0
 11710                           tblptru	equ	0xFF8
 11711                           tblptrh	equ	0xFF7
 11712                           tblptrl	equ	0xFF6
 11713                           tablat	equ	0xFF5
 11714                           prodh	equ	0xFF4
 11715                           prodl	equ	0xFF3
 11716                           intcon	equ	0xFF2
 11717                           intcon2	equ	0xFF1
 11718                           postinc0	equ	0xFEE
 11719                           wreg	equ	0xFE8
 11720                           indf2	equ	0xFDF
 11721                           postinc2	equ	0xFDE
 11722                           postdec2	equ	0xFDD
 11723                           fsr2h	equ	0xFDA
 11724                           fsr2l	equ	0xFD9
 11725                           status	equ	0xFD8
 11726                           
 11727 ;; *************** function _MonthFlash *****************
 11728 ;; Defined at:
 11729 ;;		line 939 in file "mini-project-clock.c"
 11730 ;; Parameters:    Size  Location     Type
 11731 ;;		None
 11732 ;; Auto vars:     Size  Location     Type
 11733 ;;		None
 11734 ;; Return value:  Size  Location     Type
 11735 ;;                  1    wreg      void 
 11736 ;; Registers used:
 11737 ;;		wreg, status,2, status,0, tblptrl, tblptrh, tblptru, cstack
 11738 ;; Tracked objects:
 11739 ;;		On entry : 0/0
 11740 ;;		On exit  : 0/0
 11741 ;;		Unchanged: 0/0
 11742 ;; Data sizes:     COMRAM   BANK0   BANK1   BANK2   BANK3   BANK4   BANK5   BANK6   BANK7   BANK8   BANK9  BANK10  BANK1
      +1  BANK12  BANK13  BANK14  BANK15
 11743 ;;      Params:         0       0       0       0       0       0       0       0       0       0       0       0       
      +0       0       0       0       0
 11744 ;;      Locals:         0       0       0       0       0       0       0       0       0       0       0       0       
      +0       0       0       0       0
 11745 ;;      Temps:          0       0       0       0       0       0       0       0       0       0       0       0       
      +0       0       0       0       0
 11746 ;;      Totals:         0       0       0       0       0       0       0       0       0       0       0       0       
      +0       0       0       0       0
 11747 ;;Total ram usage:        0 bytes
 11748 ;; Hardware stack levels used:    1
 11749 ;; Hardware stack levels required when called:    5
 11750 ;; This function calls:
 11751 ;;		_Delay10KTCYx
 11752 ;; This function is called by:
 11753 ;;		_SetMenu
 11754 ;;		_SetAlarm2
 11755 ;; This function uses a non-reentrant model
 11756 ;;
 11757                           
 11758                           	psect	text14
 11759  006D18                     __ptext14:
 11760                           	opt stack 0
 11761  006D18                     _MonthFlash:
 11762                           	opt stack 23
 11763                           
 11764                           ;mini-project-clock.c: 940: disp_LEDS &= 0xC0;
 11765                           
 11766                           ;incstack = 0
 11767  006D18  0EC0               	movlw	192
 11768  006D1A  164C               	andwf	_disp_LEDS,f,c	;volatile
 11769                           
 11770                           ;mini-project-clock.c: 941: disp_LEDS &= 0x10;
 11771  006D1C  0E10               	movlw	16
 11772  006D1E  164C               	andwf	_disp_LEDS,f,c	;volatile
 11773                           
 11774                           ;mini-project-clock.c: 942: dp_mask |= (1 << 2);
 11775  006D20  844A               	bsf	_dp_mask,2,c	;volatile
 11776                           
 11777                           ;mini-project-clock.c: 943: disp_U2 = DispChars.M;
 11778  006D22  0E0F               	movlw	low (_DispChars+14)
 11779  006D24  6EF6               	movwf	tblptrl,c
 11780  006D26  0E10               	movlw	high (_DispChars+14)
 11781  006D28  6EF7               	movwf	tblptrh,c
 11782  006D2A                     	if	0	;tblptru may be non-zero
 11783  006D2A                     	endif
 11784  006D2A                     	if	1	;Program memory is > 0xFFFF, there are 3 active tblptr bytes
 11785  006D2A  0E00               	movlw	low (__mediumconst shr (0+16))
 11786  006D2C  6EF8               	movwf	tblptru,c
 11787  006D2E                     	endif
 11788  006D2E  0008               	tblrd		*
 11789  006D30  CFF5 F034          	movff	tablat,_disp_U2	;volatile
 11790                           
 11791                           ;mini-project-clock.c: 944: disp_U1 = DispChars.o;
 11792  006D34  0E11               	movlw	low (_DispChars+16)
 11793  006D36  6EF6               	movwf	tblptrl,c
 11794  006D38  0E10               	movlw	high (_DispChars+16)
 11795  006D3A  6EF7               	movwf	tblptrh,c
 11796  006D3C                     	if	0	;tblptru may be non-zero
 11797  006D3C                     	endif
 11798  006D3C                     	if	1	;Program memory is > 0xFFFF, there are 3 active tblptr bytes
 11799  006D3C  0E00               	movlw	low (__mediumconst shr (0+16))
 11800  006D3E  6EF8               	movwf	tblptru,c
 11801  006D40                     	endif
 11802  006D40  0008               	tblrd		*
 11803  006D42  CFF5 F033          	movff	tablat,_disp_U1	;volatile
 11804                           
 11805                           ;mini-project-clock.c: 945: Delay10KTCYx(100);
 11806  006D46  0E64               	movlw	100
 11807  006D48  EC88  F039         	call	_Delay10KTCYx
 11808                           
 11809                           ;mini-project-clock.c: 946: disp_U2 = 0xFF;
 11810  006D4C  6834               	setf	_disp_U2,c	;volatile
 11811                           
 11812                           ;mini-project-clock.c: 947: disp_U1 = 0xFF;
 11813  006D4E  6833               	setf	_disp_U1,c	;volatile
 11814                           
 11815                           ;mini-project-clock.c: 948: Delay10KTCYx(100);
 11816  006D50  0E64               	movlw	100
 11817  006D52  EC88  F039         	call	_Delay10KTCYx
 11818                           
 11819                           ;mini-project-clock.c: 949: disp_U2 = DispChars.M;
 11820  006D56  0E0F               	movlw	low (_DispChars+14)
 11821  006D58  6EF6               	movwf	tblptrl,c
 11822  006D5A  0E10               	movlw	high (_DispChars+14)
 11823  006D5C  6EF7               	movwf	tblptrh,c
 11824  006D5E                     	if	0	;tblptru may be non-zero
 11825  006D5E                     	endif
 11826  006D5E                     	if	1	;Program memory is > 0xFFFF, there are 3 active tblptr bytes
 11827  006D5E  0E00               	movlw	low (__mediumconst shr (0+16))
 11828  006D60  6EF8               	movwf	tblptru,c
 11829  006D62                     	endif
 11830  006D62  0008               	tblrd		*
 11831  006D64  CFF5 F034          	movff	tablat,_disp_U2	;volatile
 11832                           
 11833                           ;mini-project-clock.c: 950: disp_U1 = DispChars.o;
 11834  006D68  0E11               	movlw	low (_DispChars+16)
 11835  006D6A  6EF6               	movwf	tblptrl,c
 11836  006D6C  0E10               	movlw	high (_DispChars+16)
 11837  006D6E  6EF7               	movwf	tblptrh,c
 11838  006D70                     	if	0	;tblptru may be non-zero
 11839  006D70                     	endif
 11840  006D70                     	if	1	;Program memory is > 0xFFFF, there are 3 active tblptr bytes
 11841  006D70  0E00               	movlw	low (__mediumconst shr (0+16))
 11842  006D72  6EF8               	movwf	tblptru,c
 11843  006D74                     	endif
 11844  006D74  0008               	tblrd		*
 11845  006D76  CFF5 F033          	movff	tablat,_disp_U1	;volatile
 11846                           
 11847                           ;mini-project-clock.c: 951: Delay10KTCYx(100);
 11848  006D7A  0E64               	movlw	100
 11849  006D7C  EC88  F039         	call	_Delay10KTCYx
 11850                           
 11851                           ;mini-project-clock.c: 952: disp_U2 = 0xFF;
 11852  006D80  6834               	setf	_disp_U2,c	;volatile
 11853                           
 11854                           ;mini-project-clock.c: 953: disp_U1 = 0xFF;
 11855  006D82  6833               	setf	_disp_U1,c	;volatile
 11856                           
 11857                           ;mini-project-clock.c: 954: Delay10KTCYx(100);
 11858  006D84  0E64               	movlw	100
 11859  006D86  EC88  F039         	call	_Delay10KTCYx
 11860  006D8A  0012               	return		;funcret
 11861  006D8C                     __end_of_MonthFlash:
 11862                           	opt stack 0
 11863                           tblptru	equ	0xFF8
 11864                           tblptrh	equ	0xFF7
 11865                           tblptrl	equ	0xFF6
 11866                           tablat	equ	0xFF5
 11867                           prodh	equ	0xFF4
 11868                           prodl	equ	0xFF3
 11869                           intcon	equ	0xFF2
 11870                           intcon2	equ	0xFF1
 11871                           postinc0	equ	0xFEE
 11872                           wreg	equ	0xFE8
 11873                           indf2	equ	0xFDF
 11874                           postinc2	equ	0xFDE
 11875                           postdec2	equ	0xFDD
 11876                           fsr2h	equ	0xFDA
 11877                           fsr2l	equ	0xFD9
 11878                           status	equ	0xFD8
 11879                           
 11880 ;; *************** function _DayFlash *****************
 11881 ;; Defined at:
 11882 ;;		line 921 in file "mini-project-clock.c"
 11883 ;; Parameters:    Size  Location     Type
 11884 ;;		None
 11885 ;; Auto vars:     Size  Location     Type
 11886 ;;		None
 11887 ;; Return value:  Size  Location     Type
 11888 ;;                  1    wreg      void 
 11889 ;; Registers used:
 11890 ;;		wreg, status,2, status,0, tblptrl, tblptrh, tblptru, cstack
 11891 ;; Tracked objects:
 11892 ;;		On entry : 0/0
 11893 ;;		On exit  : 0/0
 11894 ;;		Unchanged: 0/0
 11895 ;; Data sizes:     COMRAM   BANK0   BANK1   BANK2   BANK3   BANK4   BANK5   BANK6   BANK7   BANK8   BANK9  BANK10  BANK1
      +1  BANK12  BANK13  BANK14  BANK15
 11896 ;;      Params:         0       0       0       0       0       0       0       0       0       0       0       0       
      +0       0       0       0       0
 11897 ;;      Locals:         0       0       0       0       0       0       0       0       0       0       0       0       
      +0       0       0       0       0
 11898 ;;      Temps:          0       0       0       0       0       0       0       0       0       0       0       0       
      +0       0       0       0       0
 11899 ;;      Totals:         0       0       0       0       0       0       0       0       0       0       0       0       
      +0       0       0       0       0
 11900 ;;Total ram usage:        0 bytes
 11901 ;; Hardware stack levels used:    1
 11902 ;; Hardware stack levels required when called:    5
 11903 ;; This function calls:
 11904 ;;		_Delay10KTCYx
 11905 ;; This function is called by:
 11906 ;;		_SetMenu
 11907 ;;		_SetAlarm2
 11908 ;; This function uses a non-reentrant model
 11909 ;;
 11910                           
 11911                           	psect	text15
 11912  006E72                     __ptext15:
 11913                           	opt stack 0
 11914  006E72                     _DayFlash:
 11915                           	opt stack 23
 11916                           
 11917                           ;mini-project-clock.c: 922: disp_LEDS &= 0xC0;
 11918                           
 11919                           ;incstack = 0
 11920  006E72  0EC0               	movlw	192
 11921  006E74  164C               	andwf	_disp_LEDS,f,c	;volatile
 11922                           
 11923                           ;mini-project-clock.c: 923: disp_LEDS |= 0x20;
 11924  006E76  8A4C               	bsf	_disp_LEDS,5,c	;volatile
 11925                           
 11926                           ;mini-project-clock.c: 924: dp_mask |= (1 << 2);
 11927  006E78  844A               	bsf	_dp_mask,2,c	;volatile
 11928                           
 11929                           ;mini-project-clock.c: 925: disp_U2 = DispChars.d;
 11930  006E7A  0E05               	movlw	low (_DispChars+4)
 11931  006E7C  6EF6               	movwf	tblptrl,c
 11932  006E7E  0E10               	movlw	high (_DispChars+4)
 11933  006E80  6EF7               	movwf	tblptrh,c
 11934  006E82                     	if	0	;tblptru may be non-zero
 11935  006E82                     	endif
 11936  006E82                     	if	1	;Program memory is > 0xFFFF, there are 3 active tblptr bytes
 11937  006E82  0E00               	movlw	low (__mediumconst shr (0+16))
 11938  006E84  6EF8               	movwf	tblptru,c
 11939  006E86                     	endif
 11940  006E86  0008               	tblrd		*
 11941  006E88  CFF5 F034          	movff	tablat,_disp_U2	;volatile
 11942                           
 11943                           ;mini-project-clock.c: 926: disp_U1 = DispChars.d;
 11944  006E8C  0E05               	movlw	low (_DispChars+4)
 11945  006E8E  6EF6               	movwf	tblptrl,c
 11946  006E90  0E10               	movlw	high (_DispChars+4)
 11947  006E92  6EF7               	movwf	tblptrh,c
 11948  006E94                     	if	0	;tblptru may be non-zero
 11949  006E94                     	endif
 11950  006E94                     	if	1	;Program memory is > 0xFFFF, there are 3 active tblptr bytes
 11951  006E94  0E00               	movlw	low (__mediumconst shr (0+16))
 11952  006E96  6EF8               	movwf	tblptru,c
 11953  006E98                     	endif
 11954  006E98  0008               	tblrd		*
 11955  006E9A  CFF5 F033          	movff	tablat,_disp_U1	;volatile
 11956                           
 11957                           ;mini-project-clock.c: 927: Delay10KTCYx(100);
 11958  006E9E  0E64               	movlw	100
 11959  006EA0  EC88  F039         	call	_Delay10KTCYx
 11960                           
 11961                           ;mini-project-clock.c: 928: disp_U2 = 0xFF;
 11962  006EA4  6834               	setf	_disp_U2,c	;volatile
 11963                           
 11964                           ;mini-project-clock.c: 929: disp_U1 = 0xFF;
 11965  006EA6  6833               	setf	_disp_U1,c	;volatile
 11966                           
 11967                           ;mini-project-clock.c: 930: Delay10KTCYx(100);
 11968  006EA8  0E64               	movlw	100
 11969  006EAA  EC88  F039         	call	_Delay10KTCYx
 11970                           
 11971                           ;mini-project-clock.c: 931: disp_U2 = DispChars.d;
 11972  006EAE  0E05               	movlw	low (_DispChars+4)
 11973  006EB0  6EF6               	movwf	tblptrl,c
 11974  006EB2  0E10               	movlw	high (_DispChars+4)
 11975  006EB4  6EF7               	movwf	tblptrh,c
 11976  006EB6                     	if	0	;tblptru may be non-zero
 11977  006EB6                     	endif
 11978  006EB6                     	if	1	;Program memory is > 0xFFFF, there are 3 active tblptr bytes
 11979  006EB6  0E00               	movlw	low (__mediumconst shr (0+16))
 11980  006EB8  6EF8               	movwf	tblptru,c
 11981  006EBA                     	endif
 11982  006EBA  0008               	tblrd		*
 11983  006EBC  CFF5 F034          	movff	tablat,_disp_U2	;volatile
 11984                           
 11985                           ;mini-project-clock.c: 932: disp_U1 = DispChars.d;
 11986  006EC0  0E05               	movlw	low (_DispChars+4)
 11987  006EC2  6EF6               	movwf	tblptrl,c
 11988  006EC4  0E10               	movlw	high (_DispChars+4)
 11989  006EC6  6EF7               	movwf	tblptrh,c
 11990  006EC8                     	if	0	;tblptru may be non-zero
 11991  006EC8                     	endif
 11992  006EC8                     	if	1	;Program memory is > 0xFFFF, there are 3 active tblptr bytes
 11993  006EC8  0E00               	movlw	low (__mediumconst shr (0+16))
 11994  006ECA  6EF8               	movwf	tblptru,c
 11995  006ECC                     	endif
 11996  006ECC  0008               	tblrd		*
 11997  006ECE  CFF5 F033          	movff	tablat,_disp_U1	;volatile
 11998                           
 11999                           ;mini-project-clock.c: 933: Delay10KTCYx(100);
 12000  006ED2  0E64               	movlw	100
 12001  006ED4  EC88  F039         	call	_Delay10KTCYx
 12002                           
 12003                           ;mini-project-clock.c: 934: disp_U2 = 0xFF;
 12004  006ED8  6834               	setf	_disp_U2,c	;volatile
 12005                           
 12006                           ;mini-project-clock.c: 935: disp_U1 = 0xFF;
 12007  006EDA  6833               	setf	_disp_U1,c	;volatile
 12008                           
 12009                           ;mini-project-clock.c: 936: Delay10KTCYx(100);
 12010  006EDC  0E64               	movlw	100
 12011  006EDE  EC88  F039         	call	_Delay10KTCYx
 12012  006EE2  0012               	return		;funcret
 12013  006EE4                     __end_of_DayFlash:
 12014                           	opt stack 0
 12015                           tblptru	equ	0xFF8
 12016                           tblptrh	equ	0xFF7
 12017                           tblptrl	equ	0xFF6
 12018                           tablat	equ	0xFF5
 12019                           prodh	equ	0xFF4
 12020                           prodl	equ	0xFF3
 12021                           intcon	equ	0xFF2
 12022                           intcon2	equ	0xFF1
 12023                           postinc0	equ	0xFEE
 12024                           wreg	equ	0xFE8
 12025                           indf2	equ	0xFDF
 12026                           postinc2	equ	0xFDE
 12027                           postdec2	equ	0xFDD
 12028                           fsr2h	equ	0xFDA
 12029                           fsr2l	equ	0xFD9
 12030                           status	equ	0xFD8
 12031                           
 12032 ;; *************** function _SetAlarm1 *****************
 12033 ;; Defined at:
 12034 ;;		line 993 in file "mini-project-clock.c"
 12035 ;; Parameters:    Size  Location     Type
 12036 ;;		None
 12037 ;; Auto vars:     Size  Location     Type
 12038 ;;		None
 12039 ;; Return value:  Size  Location     Type
 12040 ;;                  1    wreg      void 
 12041 ;; Registers used:
 12042 ;;		wreg, fsr2l, fsr2h, status,2, status,0, tblptrl, tblptrh, tblptru, prodl, prodh, cstack
 12043 ;; Tracked objects:
 12044 ;;		On entry : 0/0
 12045 ;;		On exit  : 0/0
 12046 ;;		Unchanged: 0/0
 12047 ;; Data sizes:     COMRAM   BANK0   BANK1   BANK2   BANK3   BANK4   BANK5   BANK6   BANK7   BANK8   BANK9  BANK10  BANK1
      +1  BANK12  BANK13  BANK14  BANK15
 12048 ;;      Params:         0       0       0       0       0       0       0       0       0       0       0       0       
      +0       0       0       0       0
 12049 ;;      Locals:         0       0       0       0       0       0       0       0       0       0       0       0       
      +0       0       0       0       0
 12050 ;;      Temps:          0       0       0       0       0       0       0       0       0       0       0       0       
      +0       0       0       0       0
 12051 ;;      Totals:         0       0       0       0       0       0       0       0       0       0       0       0       
      +0       0       0       0       0
 12052 ;;Total ram usage:        0 bytes
 12053 ;; Hardware stack levels used:    1
 12054 ;; Hardware stack levels required when called:    6
 12055 ;; This function calls:
 12056 ;;		_Delay10KTCYx
 12057 ;;		_HrsFlash
 12058 ;;		_MinsFlash
 12059 ;;		_Num2Disp
 12060 ;;		_PB1pressed
 12061 ;;		_PB2pressed
 12062 ;;		_SecsFlash
 12063 ;;		_SetHrs
 12064 ;;		_SetMins
 12065 ;;		_SetSecs
 12066 ;;		_Switches
 12067 ;; This function is called by:
 12068 ;;		_SetMenu
 12069 ;; This function uses a non-reentrant model
 12070 ;;
 12071                           
 12072                           	psect	text16
 12073  0061D8                     __ptext16:
 12074                           	opt stack 0
 12075  0061D8                     _SetAlarm1:
 12076                           	opt stack 23
 12077                           
 12078                           ;mini-project-clock.c: 994: switch(Switches()) {
 12079                           
 12080                           ;incstack = 0
 12081  0061D8  D0B1               	goto	l12730
 12082  0061DA                     l12676:
 12083                           
 12084                           ;mini-project-clock.c: 996: SecsFlash();
 12085  0061DA  EC72  F037         	call	_SecsFlash	;wreg free
 12086                           
 12087                           ;mini-project-clock.c: 997: while(Switches() == 0x81) {
 12088  0061DE  D010               	goto	l12682
 12089  0061E0                     l12678:
 12090                           
 12091                           ;mini-project-clock.c: 998: SetSecs(&Alarm1Time);
 12092  0061E0  0E40               	movlw	low _Alarm1Time
 12093  0061E2  0100               	movlb	0	; () banked
 12094  0061E4  6F62               	movwf	SetSecs@ts& (0+255),b
 12095  0061E6  0E00               	movlw	high _Alarm1Time
 12096  0061E8  0100               	movlb	0	; () banked
 12097  0061EA  6F63               	movwf	(SetSecs@ts+1)& (0+255),b
 12098  0061EC  ECB1  F033         	call	_SetSecs	;wreg free
 12099                           
 12100                           ;mini-project-clock.c: 999: Num2Disp(&Alarm1Time.secs);
 12101  0061F0  0E42               	movlw	low (_Alarm1Time+2)
 12102  0061F2  0100               	movlb	0	; () banked
 12103  0061F4  6F68               	movwf	Num2Disp@time& (0+255),b
 12104  0061F6  0E00               	movlw	high (_Alarm1Time+2)
 12105  0061F8  0100               	movlb	0	; () banked
 12106  0061FA  6F69               	movwf	(Num2Disp@time+1)& (0+255),b
 12107  0061FC  EC89  F034         	call	_Num2Disp	;wreg free
 12108  006200                     l12682:
 12109  006200  EC48  F039         	call	_Switches	;wreg free
 12110  006204  0A81               	xorlw	129
 12111  006206  A4D8               	btfss	status,2,c
 12112  006208  0012               	return	
 12113  00620A  D7EA               	goto	l12678
 12114  00620C                     l12684:
 12115                           
 12116                           ;mini-project-clock.c: 1003: MinsFlash();
 12117  00620C  ECAB  F037         	call	_MinsFlash	;wreg free
 12118                           
 12119                           ;mini-project-clock.c: 1004: while(Switches() == 0x82) {
 12120  006210  D010               	goto	l12690
 12121  006212                     l12686:
 12122                           
 12123                           ;mini-project-clock.c: 1005: SetMins(&Alarm1Time);
 12124  006212  0E40               	movlw	low _Alarm1Time
 12125  006214  0100               	movlb	0	; () banked
 12126  006216  6F62               	movwf	SetMins@tm& (0+255),b
 12127  006218  0E00               	movlw	high _Alarm1Time
 12128  00621A  0100               	movlb	0	; () banked
 12129  00621C  6F63               	movwf	(SetMins@tm+1)& (0+255),b
 12130  00621E  EC1D  F034         	call	_SetMins	;wreg free
 12131                           
 12132                           ;mini-project-clock.c: 1006: Num2Disp(&Alarm1Time.mins);
 12133  006222  0E41               	movlw	low (_Alarm1Time+1)
 12134  006224  0100               	movlb	0	; () banked
 12135  006226  6F68               	movwf	Num2Disp@time& (0+255),b
 12136  006228  0E00               	movlw	high (_Alarm1Time+1)
 12137  00622A  0100               	movlb	0	; () banked
 12138  00622C  6F69               	movwf	(Num2Disp@time+1)& (0+255),b
 12139  00622E  EC89  F034         	call	_Num2Disp	;wreg free
 12140  006232                     l12690:
 12141  006232  EC48  F039         	call	_Switches	;wreg free
 12142  006236  0A82               	xorlw	130
 12143  006238  A4D8               	btfss	status,2,c
 12144  00623A  0012               	return	
 12145  00623C  D7EA               	goto	l12686
 12146  00623E                     l12692:
 12147                           
 12148                           ;mini-project-clock.c: 1010: HrsFlash();
 12149  00623E  ECE4  F037         	call	_HrsFlash	;wreg free
 12150                           
 12151                           ;mini-project-clock.c: 1011: while(Switches() == 0x84) {
 12152  006242  D010               	goto	l12698
 12153  006244                     l12694:
 12154                           
 12155                           ;mini-project-clock.c: 1012: SetHrs(&Alarm1Time);
 12156  006244  0E40               	movlw	low _Alarm1Time
 12157  006246  0100               	movlb	0	; () banked
 12158  006248  6F62               	movwf	SetHrs@th& (0+255),b
 12159  00624A  0E00               	movlw	high _Alarm1Time
 12160  00624C  0100               	movlb	0	; () banked
 12161  00624E  6F63               	movwf	(SetHrs@th+1)& (0+255),b
 12162  006250  EC51  F035         	call	_SetHrs	;wreg free
 12163                           
 12164                           ;mini-project-clock.c: 1013: Num2Disp(&Alarm1Time.hrs);
 12165  006254  0E40               	movlw	low _Alarm1Time
 12166  006256  0100               	movlb	0	; () banked
 12167  006258  6F68               	movwf	Num2Disp@time& (0+255),b
 12168  00625A  0E00               	movlw	high _Alarm1Time
 12169  00625C  0100               	movlb	0	; () banked
 12170  00625E  6F69               	movwf	(Num2Disp@time+1)& (0+255),b
 12171  006260  EC89  F034         	call	_Num2Disp	;wreg free
 12172  006264                     l12698:
 12173  006264  EC48  F039         	call	_Switches	;wreg free
 12174  006268  0A84               	xorlw	132
 12175  00626A  A4D8               	btfss	status,2,c
 12176  00626C  0012               	return	
 12177  00626E  D7EA               	goto	l12694
 12178  006270                     l12700:
 12179                           
 12180                           ;mini-project-clock.c: 1017: disp_LEDS = 0x80;
 12181  006270  0E80               	movlw	128
 12182  006272  6E4C               	movwf	_disp_LEDS,c	;volatile
 12183                           
 12184                           ;mini-project-clock.c: 1018: while(Switches() == 0x80) {
 12185  006274  D048               	goto	l12722
 12186  006276                     l12702:
 12187                           
 12188                           ;mini-project-clock.c: 1019: disp_U2 = DispChars.A;
 12189  006276  0E01               	movlw	low _DispChars
 12190  006278  6EF6               	movwf	tblptrl,c
 12191  00627A                     	if	1	;There is more than 1 active tblptr byte
 12192  00627A  0E10               	movlw	high _DispChars
 12193  00627C  6EF7               	movwf	tblptrh,c
 12194  00627E                     	endif
 12195  00627E                     	if	1	;There are 3 active tblptr bytes
 12196  00627E  0E00               	movlw	low (_DispChars shr (0+16))
 12197  006280  6EF8               	movwf	tblptru,c
 12198  006282                     	endif
 12199  006282  0008               	tblrd		*
 12200  006284  CFF5 F034          	movff	tablat,_disp_U2	;volatile
 12201                           
 12202                           ;mini-project-clock.c: 1020: disp_U1 = DispNums[1];
 12203  006288  0E35               	movlw	low (_DispNums+1)
 12204  00628A  6EF6               	movwf	tblptrl,c
 12205  00628C  0E10               	movlw	high (_DispNums+1)
 12206  00628E  6EF7               	movwf	tblptrh,c
 12207  006290                     	if	0	;tblptru may be non-zero
 12208  006290                     	endif
 12209  006290                     	if	1	;Program memory is > 0xFFFF, there are 3 active tblptr bytes
 12210  006290  0E00               	movlw	low (__mediumconst shr (0+16))
 12211  006292  6EF8               	movwf	tblptru,c
 12212  006294                     	endif
 12213  006294  0008               	tblrd		*
 12214  006296  CFF5 F033          	movff	tablat,_disp_U1	;volatile
 12215                           
 12216                           ;mini-project-clock.c: 1021: Delay10KTCYx(150);
 12217  00629A  0E96               	movlw	150
 12218  00629C  EC88  F039         	call	_Delay10KTCYx
 12219                           
 12220                           ;mini-project-clock.c: 1022: if(PB2pressed() == 1) {
 12221  0062A0  EC60  F039         	call	_PB2pressed	;wreg free
 12222  0062A4  06E8               	decf	wreg,f,c
 12223  0062A6  A4D8               	btfss	status,2,c
 12224  0062A8  D002               	goto	l12710
 12225                           
 12226                           ;mini-project-clock.c: 1023: Alarm1On = 1;
 12227  0062AA  0E01               	movlw	1
 12228  0062AC  6E30               	movwf	_Alarm1On,c
 12229  0062AE                     l12710:
 12230                           
 12231                           ;mini-project-clock.c: 1024: }
 12232                           ;mini-project-clock.c: 1025: if(PB1pressed() == 1) {
 12233  0062AE  EC74  F039         	call	_PB1pressed	;wreg free
 12234  0062B2  06E8               	decf	wreg,f,c
 12235  0062B4  A4D8               	btfss	status,2,c
 12236  0062B6  D002               	goto	l12714
 12237                           
 12238                           ;mini-project-clock.c: 1026: Alarm1On = 0;
 12239  0062B8  0E00               	movlw	0
 12240  0062BA  6E30               	movwf	_Alarm1On,c
 12241  0062BC                     l12714:
 12242                           
 12243                           ;mini-project-clock.c: 1027: }
 12244                           ;mini-project-clock.c: 1028: if(Alarm1On == 1) {
 12245  0062BC  0430               	decf	_Alarm1On,w,c
 12246  0062BE  A4D8               	btfss	status,2,c
 12247  0062C0  D00D               	goto	l12718
 12248                           
 12249                           ;mini-project-clock.c: 1029: disp_U2 = DispChars.o;
 12250  0062C2  0E11               	movlw	low (_DispChars+16)
 12251  0062C4  6EF6               	movwf	tblptrl,c
 12252  0062C6  0E10               	movlw	high (_DispChars+16)
 12253  0062C8  6EF7               	movwf	tblptrh,c
 12254  0062CA                     	if	0	;tblptru may be non-zero
 12255  0062CA                     	endif
 12256  0062CA                     	if	1	;Program memory is > 0xFFFF, there are 3 active tblptr bytes
 12257  0062CA  0E00               	movlw	low (__mediumconst shr (0+16))
 12258  0062CC  6EF8               	movwf	tblptru,c
 12259  0062CE                     	endif
 12260  0062CE  0008               	tblrd		*
 12261  0062D0  CFF5 F034          	movff	tablat,_disp_U2	;volatile
 12262                           
 12263                           ;mini-project-clock.c: 1030: disp_U1 = DispChars.n;
 12264  0062D4  0E10               	movlw	low (_DispChars+15)
 12265  0062D6  6EF6               	movwf	tblptrl,c
 12266  0062D8  0E10               	movlw	high (_DispChars+15)
 12267  0062DA  D00C               	goto	L2
 12268  0062DC                     l12718:
 12269                           
 12270                           ;mini-project-clock.c: 1032: else {
 12271                           ;mini-project-clock.c: 1033: disp_U2 = DispChars.o;
 12272  0062DC  0E11               	movlw	low (_DispChars+16)
 12273  0062DE  6EF6               	movwf	tblptrl,c
 12274  0062E0  0E10               	movlw	high (_DispChars+16)
 12275  0062E2  6EF7               	movwf	tblptrh,c
 12276  0062E4                     	if	0	;tblptru may be non-zero
 12277  0062E4                     	endif
 12278  0062E4                     	if	1	;Program memory is > 0xFFFF, there are 3 active tblptr bytes
 12279  0062E4  0E00               	movlw	low (__mediumconst shr (0+16))
 12280  0062E6  6EF8               	movwf	tblptru,c
 12281  0062E8                     	endif
 12282  0062E8  0008               	tblrd		*
 12283  0062EA  CFF5 F034          	movff	tablat,_disp_U2	;volatile
 12284                           
 12285                           ;mini-project-clock.c: 1034: disp_U1 = DispChars.F;
 12286  0062EE  0E07               	movlw	low (_DispChars+6)
 12287  0062F0  6EF6               	movwf	tblptrl,c
 12288  0062F2  0E10               	movlw	high (_DispChars+6)
 12289  0062F4                     L2:
 12290  0062F4  6EF7               	movwf	tblptrh,c
 12291  0062F6                     	if	0	;tblptru may be non-zero
 12292  0062F6                     	endif
 12293  0062F6                     	if	1	;Program memory is > 0xFFFF, there are 3 active tblptr bytes
 12294  0062F6  0E00               	movlw	low (__mediumconst shr (0+16))
 12295  0062F8  6EF8               	movwf	tblptru,c
 12296  0062FA                     	endif
 12297  0062FA  0008               	tblrd		*
 12298  0062FC  CFF5 F033          	movff	tablat,_disp_U1	;volatile
 12299                           
 12300                           ;mini-project-clock.c: 1035: }
 12301                           ;mini-project-clock.c: 1036: Delay10KTCYx(150);
 12302  006300  0E96               	movlw	150
 12303  006302  EC88  F039         	call	_Delay10KTCYx
 12304  006306                     l12722:
 12305  006306  EC48  F039         	call	_Switches	;wreg free
 12306  00630A  0A80               	xorlw	128
 12307  00630C  A4D8               	btfss	status,2,c
 12308  00630E  0012               	return	
 12309  006310  D7B2               	goto	l12702
 12310  006312                     l12724:
 12311                           
 12312                           ;mini-project-clock.c: 1040: disp_U2 = DispChars.E;
 12313  006312  0E06               	movlw	low (_DispChars+5)
 12314  006314  6EF6               	movwf	tblptrl,c
 12315  006316  0E10               	movlw	high (_DispChars+5)
 12316  006318  6EF7               	movwf	tblptrh,c
 12317  00631A                     	if	0	;tblptru may be non-zero
 12318  00631A                     	endif
 12319  00631A                     	if	1	;Program memory is > 0xFFFF, there are 3 active tblptr bytes
 12320  00631A  0E00               	movlw	low (__mediumconst shr (0+16))
 12321  00631C  6EF8               	movwf	tblptru,c
 12322  00631E                     	endif
 12323  00631E  0008               	tblrd		*
 12324  006320  CFF5 F034          	movff	tablat,_disp_U2	;volatile
 12325                           
 12326                           ;mini-project-clock.c: 1041: disp_U1 = DispChars.r;
 12327  006324  0E13               	movlw	low (_DispChars+18)
 12328  006326  6EF6               	movwf	tblptrl,c
 12329  006328  0E10               	movlw	high (_DispChars+18)
 12330  00632A  6EF7               	movwf	tblptrh,c
 12331  00632C                     	if	0	;tblptru may be non-zero
 12332  00632C                     	endif
 12333  00632C                     	if	1	;Program memory is > 0xFFFF, there are 3 active tblptr bytes
 12334  00632C  0E00               	movlw	low (__mediumconst shr (0+16))
 12335  00632E  6EF8               	movwf	tblptru,c
 12336  006330                     	endif
 12337  006330  0008               	tblrd		*
 12338  006332  CFF5 F033          	movff	tablat,_disp_U1	;volatile
 12339                           
 12340                           ;mini-project-clock.c: 1042: disp_LEDS = 0x04;
 12341  006336  0E04               	movlw	4
 12342  006338  6E4C               	movwf	_disp_LEDS,c	;volatile
 12343                           
 12344                           ;mini-project-clock.c: 1044: }
 12345                           
 12346                           ;mini-project-clock.c: 1043: break;
 12347  00633A  0012               	return	
 12348  00633C                     l12730:
 12349  00633C  EC48  F039         	call	_Switches	;wreg free
 12350                           
 12351                           ; Switch size 1, requested type "space"
 12352                           ; Number of cases is 4, Range of values is 128 to 132
 12353                           ; switch strategies available:
 12354                           ; Name         Instructions Cycles
 12355                           ; simple_byte           13     7 (average)
 12356                           ;	Chosen strategy is simple_byte
 12357  006340  0A80               	xorlw	128	; case 128
 12358  006342  B4D8               	btfsc	status,2,c
 12359  006344  D795               	goto	l12700
 12360  006346  0A01               	xorlw	1	; case 129
 12361  006348  B4D8               	btfsc	status,2,c
 12362  00634A  D747               	goto	l12676
 12363  00634C  0A03               	xorlw	3	; case 130
 12364  00634E  B4D8               	btfsc	status,2,c
 12365  006350  D75D               	goto	l12684
 12366  006352  0A06               	xorlw	6	; case 132
 12367  006354  B4D8               	btfsc	status,2,c
 12368  006356  D773               	goto	l12692
 12369  006358  D7DC               	goto	l12724
 12370  00635A                     __end_of_SetAlarm1:
 12371                           	opt stack 0
 12372                           tblptru	equ	0xFF8
 12373                           tblptrh	equ	0xFF7
 12374                           tblptrl	equ	0xFF6
 12375                           tablat	equ	0xFF5
 12376                           prodh	equ	0xFF4
 12377                           prodl	equ	0xFF3
 12378                           intcon	equ	0xFF2
 12379                           intcon2	equ	0xFF1
 12380                           postinc0	equ	0xFEE
 12381                           wreg	equ	0xFE8
 12382                           indf2	equ	0xFDF
 12383                           postinc2	equ	0xFDE
 12384                           postdec2	equ	0xFDD
 12385                           fsr2h	equ	0xFDA
 12386                           fsr2l	equ	0xFD9
 12387                           status	equ	0xFD8
 12388                           
 12389 ;; *************** function _Switches *****************
 12390 ;; Defined at:
 12391 ;;		line 490 in file "mini-project-clock.c"
 12392 ;; Parameters:    Size  Location     Type
 12393 ;;		None
 12394 ;; Auto vars:     Size  Location     Type
 12395 ;;  temp1           1    2[BANK0 ] unsigned char 
 12396 ;;  temp2           1    1[BANK0 ] unsigned char 
 12397 ;;  temp            1    0[BANK0 ] unsigned char 
 12398 ;; Return value:  Size  Location     Type
 12399 ;;                  1    wreg      unsigned char 
 12400 ;; Registers used:
 12401 ;;		wreg, status,2, status,0
 12402 ;; Tracked objects:
 12403 ;;		On entry : 0/0
 12404 ;;		On exit  : 0/0
 12405 ;;		Unchanged: 0/0
 12406 ;; Data sizes:     COMRAM   BANK0   BANK1   BANK2   BANK3   BANK4   BANK5   BANK6   BANK7   BANK8   BANK9  BANK10  BANK1
      +1  BANK12  BANK13  BANK14  BANK15
 12407 ;;      Params:         0       0       0       0       0       0       0       0       0       0       0       0       
      +0       0       0       0       0
 12408 ;;      Locals:         0       3       0       0       0       0       0       0       0       0       0       0       
      +0       0       0       0       0
 12409 ;;      Temps:          0       0       0       0       0       0       0       0       0       0       0       0       
      +0       0       0       0       0
 12410 ;;      Totals:         0       3       0       0       0       0       0       0       0       0       0       0       
      +0       0       0       0       0
 12411 ;;Total ram usage:        3 bytes
 12412 ;; Hardware stack levels used:    1
 12413 ;; Hardware stack levels required when called:    4
 12414 ;; This function calls:
 12415 ;;		Nothing
 12416 ;; This function is called by:
 12417 ;;		_main
 12418 ;;		_SetMenu
 12419 ;;		_SetAlarm1
 12420 ;;		_SetAlarm2
 12421 ;; This function uses a non-reentrant model
 12422 ;;
 12423                           
 12424                           	psect	text17
 12425  007290                     __ptext17:
 12426                           	opt stack 0
 12427  007290                     _Switches:
 12428                           	opt stack 26
 12429                           
 12430                           ;mini-project-clock.c: 491: char temp, temp1, temp2;
 12431                           ;mini-project-clock.c: 492: temp1 = PORTC;
 12432                           
 12433                           ;incstack = 0
 12434  007290  CF82 F062          	movff	3970,Switches@temp1	;volatile
 12435                           
 12436                           ;mini-project-clock.c: 493: temp1 >>= 2;
 12437  007294  0100               	movlb	0	; () banked
 12438  007296  90D8               	bcf	status,0,c
 12439  007298  3362               	rrcf	Switches@temp1& (0+255),f,b
 12440  00729A  90D8               	bcf	status,0,c
 12441  00729C  3362               	rrcf	Switches@temp1& (0+255),f,b
 12442                           
 12443                           ;mini-project-clock.c: 494: temp1 &= 0x0F;
 12444  00729E  0E0F               	movlw	15
 12445  0072A0  0100               	movlb	0	; () banked
 12446  0072A2  1762               	andwf	Switches@temp1& (0+255),f,b
 12447                           
 12448                           ; BSR set to: 0
 12449                           ;mini-project-clock.c: 495: temp2 = PORTH;
 12450  0072A4  CF87 F061          	movff	3975,Switches@temp2	;volatile
 12451                           
 12452                           ;mini-project-clock.c: 496: temp2 &= 0xF0;
 12453  0072A8  0EF0               	movlw	240
 12454  0072AA  0100               	movlb	0	; () banked
 12455  0072AC  1761               	andwf	Switches@temp2& (0+255),f,b
 12456                           
 12457                           ;mini-project-clock.c: 497: temp = (temp1 | temp2);
 12458  0072AE  0100               	movlb	0	; () banked
 12459  0072B0  5162               	movf	Switches@temp1& (0+255),w,b
 12460  0072B2  0100               	movlb	0	; () banked
 12461  0072B4  1161               	iorwf	Switches@temp2& (0+255),w,b
 12462  0072B6  0100               	movlb	0	; () banked
 12463  0072B8  6F60               	movwf	Switches@temp& (0+255),b
 12464                           
 12465                           ; BSR set to: 0
 12466                           ;mini-project-clock.c: 498: return(temp);
 12467  0072BA  0100               	movlb	0	; () banked
 12468  0072BC  5160               	movf	Switches@temp& (0+255),w,b
 12469  0072BE  0012               	return	
 12470  0072C0                     __end_of_Switches:
 12471                           	opt stack 0
 12472                           tblptru	equ	0xFF8
 12473                           tblptrh	equ	0xFF7
 12474                           tblptrl	equ	0xFF6
 12475                           tablat	equ	0xFF5
 12476                           prodh	equ	0xFF4
 12477                           prodl	equ	0xFF3
 12478                           intcon	equ	0xFF2
 12479                           intcon2	equ	0xFF1
 12480                           postinc0	equ	0xFEE
 12481                           wreg	equ	0xFE8
 12482                           indf2	equ	0xFDF
 12483                           postinc2	equ	0xFDE
 12484                           postdec2	equ	0xFDD
 12485                           fsr2h	equ	0xFDA
 12486                           fsr2l	equ	0xFD9
 12487                           status	equ	0xFD8
 12488                           
 12489 ;; *************** function _SetSecs *****************
 12490 ;; Defined at:
 12491 ;;		line 727 in file "mini-project-clock.c"
 12492 ;; Parameters:    Size  Location     Type
 12493 ;;  ts              2    2[BANK0 ] PTR volatile struct .
 12494 ;;		 -> Alarm2Time(3), Alarm1Time(3), MainTime(3), 
 12495 ;; Auto vars:     Size  Location     Type
 12496 ;;		None
 12497 ;; Return value:  Size  Location     Type
 12498 ;;                  1    wreg      void 
 12499 ;; Registers used:
 12500 ;;		wreg, fsr2l, fsr2h, status,2, status,0, cstack
 12501 ;; Tracked objects:
 12502 ;;		On entry : 0/0
 12503 ;;		On exit  : 0/0
 12504 ;;		Unchanged: 0/0
 12505 ;; Data sizes:     COMRAM   BANK0   BANK1   BANK2   BANK3   BANK4   BANK5   BANK6   BANK7   BANK8   BANK9  BANK10  BANK1
      +1  BANK12  BANK13  BANK14  BANK15
 12506 ;;      Params:         0       2       0       0       0       0       0       0       0       0       0       0       
      +0       0       0       0       0
 12507 ;;      Locals:         0       0       0       0       0       0       0       0       0       0       0       0       
      +0       0       0       0       0
 12508 ;;      Temps:          0       1       0       0       0       0       0       0       0       0       0       0       
      +0       0       0       0       0
 12509 ;;      Totals:         0       3       0       0       0       0       0       0       0       0       0       0       
      +0       0       0       0       0
 12510 ;;Total ram usage:        3 bytes
 12511 ;; Hardware stack levels used:    1
 12512 ;; Hardware stack levels required when called:    5
 12513 ;; This function calls:
 12514 ;;		_Delay10KTCYx
 12515 ;;		_PB1pressed
 12516 ;;		_PB2pressed
 12517 ;; This function is called by:
 12518 ;;		_SetMenu
 12519 ;;		_SetAlarm1
 12520 ;;		_SetAlarm2
 12521 ;; This function uses a non-reentrant model
 12522 ;;
 12523                           
 12524                           	psect	text18
 12525  006762                     __ptext18:
 12526                           	opt stack 0
 12527  006762                     _SetSecs:
 12528                           	opt stack 24
 12529                           
 12530                           ;mini-project-clock.c: 728: if(PB2pressed() && ts->secs < 59) {
 12531                           
 12532                           ; BSR set to: 0
 12533                           ;incstack = 0
 12534  006762  EC60  F039         	call	_PB2pressed	;wreg free
 12535  006766  0900               	iorlw	0
 12536  006768  B4D8               	btfsc	status,2,c
 12537  00676A  D015               	goto	l12278
 12538  00676C  0100               	movlb	0	; () banked
 12539  00676E  EE20 F002          	lfsr	2,2
 12540  006772  5162               	movf	SetSecs@ts& (0+255),w,b
 12541  006774  26D9               	addwf	fsr2l,f,c
 12542  006776  5163               	movf	(SetSecs@ts+1)& (0+255),w,b
 12543  006778  22DA               	addwfc	fsr2h,f,c
 12544  00677A  0E3B               	movlw	59
 12545  00677C  60DF               	cpfslt	indf2,c
 12546  00677E  D00B               	goto	l12278
 12547                           
 12548                           ; BSR set to: 0
 12549                           ;mini-project-clock.c: 729: ts->secs++;
 12550  006780  0100               	movlb	0	; () banked
 12551  006782  EE20 F002          	lfsr	2,2
 12552  006786  5162               	movf	SetSecs@ts& (0+255),w,b
 12553  006788  26D9               	addwf	fsr2l,f,c
 12554  00678A  5163               	movf	(SetSecs@ts+1)& (0+255),w,b
 12555  00678C  22DA               	addwfc	fsr2h,f,c
 12556  00678E  2ADF               	incf	indf2,f,c
 12557                           
 12558                           ; BSR set to: 0
 12559                           ;mini-project-clock.c: 730: Delay10KTCYx(25);
 12560  006790  0E19               	movlw	25
 12561  006792  EC88  F039         	call	_Delay10KTCYx
 12562  006796                     l12278:
 12563                           
 12564                           ;mini-project-clock.c: 731: }
 12565                           ;mini-project-clock.c: 732: if(PB2pressed() && ts->secs == 59) {
 12566  006796  EC60  F039         	call	_PB2pressed	;wreg free
 12567  00679A  0900               	iorlw	0
 12568  00679C  B4D8               	btfsc	status,2,c
 12569  00679E  D017               	goto	l12286
 12570  0067A0  0100               	movlb	0	; () banked
 12571  0067A2  EE20 F002          	lfsr	2,2
 12572  0067A6  5162               	movf	SetSecs@ts& (0+255),w,b
 12573  0067A8  26D9               	addwf	fsr2l,f,c
 12574  0067AA  5163               	movf	(SetSecs@ts+1)& (0+255),w,b
 12575  0067AC  22DA               	addwfc	fsr2h,f,c
 12576  0067AE  0E3B               	movlw	59
 12577  0067B0  18DE               	xorwf	postinc2,w,c
 12578  0067B2  A4D8               	btfss	status,2,c
 12579  0067B4  D00C               	goto	l12286
 12580                           
 12581                           ; BSR set to: 0
 12582                           ;mini-project-clock.c: 733: ts->secs = 0;
 12583  0067B6  0100               	movlb	0	; () banked
 12584  0067B8  EE20 F002          	lfsr	2,2
 12585  0067BC  5162               	movf	SetSecs@ts& (0+255),w,b
 12586  0067BE  26D9               	addwf	fsr2l,f,c
 12587  0067C0  5163               	movf	(SetSecs@ts+1)& (0+255),w,b
 12588  0067C2  22DA               	addwfc	fsr2h,f,c
 12589  0067C4  0E00               	movlw	0
 12590  0067C6  6EDF               	movwf	indf2,c
 12591                           
 12592                           ; BSR set to: 0
 12593                           ;mini-project-clock.c: 734: Delay10KTCYx(25);
 12594  0067C8  0E19               	movlw	25
 12595  0067CA  EC88  F039         	call	_Delay10KTCYx
 12596  0067CE                     l12286:
 12597                           
 12598                           ;mini-project-clock.c: 735: }
 12599                           ;mini-project-clock.c: 736: if(PB1pressed() && ts->secs > 0) {
 12600  0067CE  EC74  F039         	call	_PB1pressed	;wreg free
 12601  0067D2  0900               	iorlw	0
 12602  0067D4  B4D8               	btfsc	status,2,c
 12603  0067D6  D015               	goto	l12294
 12604  0067D8  0100               	movlb	0	; () banked
 12605  0067DA  EE20 F002          	lfsr	2,2
 12606  0067DE  5162               	movf	SetSecs@ts& (0+255),w,b
 12607  0067E0  26D9               	addwf	fsr2l,f,c
 12608  0067E2  5163               	movf	(SetSecs@ts+1)& (0+255),w,b
 12609  0067E4  22DA               	addwfc	fsr2h,f,c
 12610  0067E6  50DF               	movf	indf2,w,c
 12611  0067E8  B4D8               	btfsc	status,2,c
 12612  0067EA  D00B               	goto	l12294
 12613                           
 12614                           ; BSR set to: 0
 12615                           ;mini-project-clock.c: 737: ts->secs--;
 12616  0067EC  0100               	movlb	0	; () banked
 12617  0067EE  EE20 F002          	lfsr	2,2
 12618  0067F2  5162               	movf	SetSecs@ts& (0+255),w,b
 12619  0067F4  26D9               	addwf	fsr2l,f,c
 12620  0067F6  5163               	movf	(SetSecs@ts+1)& (0+255),w,b
 12621  0067F8  22DA               	addwfc	fsr2h,f,c
 12622  0067FA  06DF               	decf	indf2,f,c
 12623                           
 12624                           ; BSR set to: 0
 12625                           ;mini-project-clock.c: 738: Delay10KTCYx(25);
 12626  0067FC  0E19               	movlw	25
 12627  0067FE  EC88  F039         	call	_Delay10KTCYx
 12628  006802                     l12294:
 12629                           
 12630                           ;mini-project-clock.c: 739: }
 12631                           ;mini-project-clock.c: 740: if(PB1pressed() && ts->secs == 0) {
 12632  006802  EC74  F039         	call	_PB1pressed	;wreg free
 12633  006806  0900               	iorlw	0
 12634  006808  B4D8               	btfsc	status,2,c
 12635  00680A  0012               	return	
 12636  00680C  0100               	movlb	0	; () banked
 12637  00680E  EE20 F002          	lfsr	2,2
 12638  006812  5162               	movf	SetSecs@ts& (0+255),w,b
 12639  006814  26D9               	addwf	fsr2l,f,c
 12640  006816  5163               	movf	(SetSecs@ts+1)& (0+255),w,b
 12641  006818  22DA               	addwfc	fsr2h,f,c
 12642  00681A  50DF               	movf	indf2,w,c
 12643  00681C  A4D8               	btfss	status,2,c
 12644  00681E  0012               	return	
 12645                           
 12646                           ; BSR set to: 0
 12647                           ;mini-project-clock.c: 741: ts->secs = 59;
 12648  006820  0100               	movlb	0	; () banked
 12649  006822  EE20 F002          	lfsr	2,2
 12650  006826  5162               	movf	SetSecs@ts& (0+255),w,b
 12651  006828  26D9               	addwf	fsr2l,f,c
 12652  00682A  5163               	movf	(SetSecs@ts+1)& (0+255),w,b
 12653  00682C  22DA               	addwfc	fsr2h,f,c
 12654  00682E  0E3B               	movlw	59
 12655  006830  6EDF               	movwf	indf2,c
 12656                           
 12657                           ; BSR set to: 0
 12658                           ;mini-project-clock.c: 742: Delay10KTCYx(25);
 12659  006832  0E19               	movlw	25
 12660  006834  EC88  F039         	call	_Delay10KTCYx
 12661  006838  0012               	return	
 12662  00683A                     __end_of_SetSecs:
 12663                           	opt stack 0
 12664                           tblptru	equ	0xFF8
 12665                           tblptrh	equ	0xFF7
 12666                           tblptrl	equ	0xFF6
 12667                           tablat	equ	0xFF5
 12668                           prodh	equ	0xFF4
 12669                           prodl	equ	0xFF3
 12670                           intcon	equ	0xFF2
 12671                           intcon2	equ	0xFF1
 12672                           postinc0	equ	0xFEE
 12673                           wreg	equ	0xFE8
 12674                           indf2	equ	0xFDF
 12675                           postinc2	equ	0xFDE
 12676                           postdec2	equ	0xFDD
 12677                           fsr2h	equ	0xFDA
 12678                           fsr2l	equ	0xFD9
 12679                           status	equ	0xFD8
 12680                           
 12681 ;; *************** function _SetMins *****************
 12682 ;; Defined at:
 12683 ;;		line 746 in file "mini-project-clock.c"
 12684 ;; Parameters:    Size  Location     Type
 12685 ;;  tm              2    2[BANK0 ] PTR volatile struct .
 12686 ;;		 -> Alarm2Time(3), Alarm1Time(3), MainTime(3), 
 12687 ;; Auto vars:     Size  Location     Type
 12688 ;;		None
 12689 ;; Return value:  Size  Location     Type
 12690 ;;                  1    wreg      void 
 12691 ;; Registers used:
 12692 ;;		wreg, fsr2l, fsr2h, status,2, status,0, cstack
 12693 ;; Tracked objects:
 12694 ;;		On entry : 0/0
 12695 ;;		On exit  : 0/0
 12696 ;;		Unchanged: 0/0
 12697 ;; Data sizes:     COMRAM   BANK0   BANK1   BANK2   BANK3   BANK4   BANK5   BANK6   BANK7   BANK8   BANK9  BANK10  BANK1
      +1  BANK12  BANK13  BANK14  BANK15
 12698 ;;      Params:         0       2       0       0       0       0       0       0       0       0       0       0       
      +0       0       0       0       0
 12699 ;;      Locals:         0       0       0       0       0       0       0       0       0       0       0       0       
      +0       0       0       0       0
 12700 ;;      Temps:          0       1       0       0       0       0       0       0       0       0       0       0       
      +0       0       0       0       0
 12701 ;;      Totals:         0       3       0       0       0       0       0       0       0       0       0       0       
      +0       0       0       0       0
 12702 ;;Total ram usage:        3 bytes
 12703 ;; Hardware stack levels used:    1
 12704 ;; Hardware stack levels required when called:    5
 12705 ;; This function calls:
 12706 ;;		_Delay10KTCYx
 12707 ;;		_PB1pressed
 12708 ;;		_PB2pressed
 12709 ;; This function is called by:
 12710 ;;		_SetMenu
 12711 ;;		_SetAlarm1
 12712 ;;		_SetAlarm2
 12713 ;; This function uses a non-reentrant model
 12714 ;;
 12715                           
 12716                           	psect	text19
 12717  00683A                     __ptext19:
 12718                           	opt stack 0
 12719  00683A                     _SetMins:
 12720                           	opt stack 24
 12721                           
 12722                           ;mini-project-clock.c: 747: if(PB2pressed() && tm->mins < 59) {
 12723                           
 12724                           ;incstack = 0
 12725  00683A  EC60  F039         	call	_PB2pressed	;wreg free
 12726  00683E  0900               	iorlw	0
 12727  006840  B4D8               	btfsc	status,2,c
 12728  006842  D015               	goto	l12340
 12729  006844  0100               	movlb	0	; () banked
 12730  006846  EE20 F001          	lfsr	2,1
 12731  00684A  5162               	movf	SetMins@tm& (0+255),w,b
 12732  00684C  26D9               	addwf	fsr2l,f,c
 12733  00684E  5163               	movf	(SetMins@tm+1)& (0+255),w,b
 12734  006850  22DA               	addwfc	fsr2h,f,c
 12735  006852  0E3B               	movlw	59
 12736  006854  60DF               	cpfslt	indf2,c
 12737  006856  D00B               	goto	l12340
 12738                           
 12739                           ; BSR set to: 0
 12740                           ;mini-project-clock.c: 748: tm->mins++;
 12741  006858  0100               	movlb	0	; () banked
 12742  00685A  EE20 F001          	lfsr	2,1
 12743  00685E  5162               	movf	SetMins@tm& (0+255),w,b
 12744  006860  26D9               	addwf	fsr2l,f,c
 12745  006862  5163               	movf	(SetMins@tm+1)& (0+255),w,b
 12746  006864  22DA               	addwfc	fsr2h,f,c
 12747  006866  2ADF               	incf	indf2,f,c
 12748                           
 12749                           ; BSR set to: 0
 12750                           ;mini-project-clock.c: 749: Delay10KTCYx(25);
 12751  006868  0E19               	movlw	25
 12752  00686A  EC88  F039         	call	_Delay10KTCYx
 12753  00686E                     l12340:
 12754                           
 12755                           ;mini-project-clock.c: 750: }
 12756                           ;mini-project-clock.c: 751: if(PB2pressed() && tm->mins == 59) {
 12757  00686E  EC60  F039         	call	_PB2pressed	;wreg free
 12758  006872  0900               	iorlw	0
 12759  006874  B4D8               	btfsc	status,2,c
 12760  006876  D017               	goto	l12348
 12761  006878  0100               	movlb	0	; () banked
 12762  00687A  EE20 F001          	lfsr	2,1
 12763  00687E  5162               	movf	SetMins@tm& (0+255),w,b
 12764  006880  26D9               	addwf	fsr2l,f,c
 12765  006882  5163               	movf	(SetMins@tm+1)& (0+255),w,b
 12766  006884  22DA               	addwfc	fsr2h,f,c
 12767  006886  0E3B               	movlw	59
 12768  006888  18DE               	xorwf	postinc2,w,c
 12769  00688A  A4D8               	btfss	status,2,c
 12770  00688C  D00C               	goto	l12348
 12771                           
 12772                           ; BSR set to: 0
 12773                           ;mini-project-clock.c: 752: tm->mins = 0;
 12774  00688E  0100               	movlb	0	; () banked
 12775  006890  EE20 F001          	lfsr	2,1
 12776  006894  5162               	movf	SetMins@tm& (0+255),w,b
 12777  006896  26D9               	addwf	fsr2l,f,c
 12778  006898  5163               	movf	(SetMins@tm+1)& (0+255),w,b
 12779  00689A  22DA               	addwfc	fsr2h,f,c
 12780  00689C  0E00               	movlw	0
 12781  00689E  6EDF               	movwf	indf2,c
 12782                           
 12783                           ; BSR set to: 0
 12784                           ;mini-project-clock.c: 753: Delay10KTCYx(25);
 12785  0068A0  0E19               	movlw	25
 12786  0068A2  EC88  F039         	call	_Delay10KTCYx
 12787  0068A6                     l12348:
 12788                           
 12789                           ;mini-project-clock.c: 754: }
 12790                           ;mini-project-clock.c: 755: if(PB1pressed() && tm->mins > 0) {
 12791  0068A6  EC74  F039         	call	_PB1pressed	;wreg free
 12792  0068AA  0900               	iorlw	0
 12793  0068AC  B4D8               	btfsc	status,2,c
 12794  0068AE  D015               	goto	l12356
 12795  0068B0  0100               	movlb	0	; () banked
 12796  0068B2  EE20 F001          	lfsr	2,1
 12797  0068B6  5162               	movf	SetMins@tm& (0+255),w,b
 12798  0068B8  26D9               	addwf	fsr2l,f,c
 12799  0068BA  5163               	movf	(SetMins@tm+1)& (0+255),w,b
 12800  0068BC  22DA               	addwfc	fsr2h,f,c
 12801  0068BE  50DF               	movf	indf2,w,c
 12802  0068C0  B4D8               	btfsc	status,2,c
 12803  0068C2  D00B               	goto	l12356
 12804                           
 12805                           ; BSR set to: 0
 12806                           ;mini-project-clock.c: 756: tm->mins--;
 12807  0068C4  0100               	movlb	0	; () banked
 12808  0068C6  EE20 F001          	lfsr	2,1
 12809  0068CA  5162               	movf	SetMins@tm& (0+255),w,b
 12810  0068CC  26D9               	addwf	fsr2l,f,c
 12811  0068CE  5163               	movf	(SetMins@tm+1)& (0+255),w,b
 12812  0068D0  22DA               	addwfc	fsr2h,f,c
 12813  0068D2  06DF               	decf	indf2,f,c
 12814                           
 12815                           ; BSR set to: 0
 12816                           ;mini-project-clock.c: 757: Delay10KTCYx(25);
 12817  0068D4  0E19               	movlw	25
 12818  0068D6  EC88  F039         	call	_Delay10KTCYx
 12819  0068DA                     l12356:
 12820                           
 12821                           ;mini-project-clock.c: 758: }
 12822                           ;mini-project-clock.c: 759: if(PB1pressed() && tm->mins == 0) {
 12823  0068DA  EC74  F039         	call	_PB1pressed	;wreg free
 12824  0068DE  0900               	iorlw	0
 12825  0068E0  B4D8               	btfsc	status,2,c
 12826  0068E2  0012               	return	
 12827  0068E4  0100               	movlb	0	; () banked
 12828  0068E6  EE20 F001          	lfsr	2,1
 12829  0068EA  5162               	movf	SetMins@tm& (0+255),w,b
 12830  0068EC  26D9               	addwf	fsr2l,f,c
 12831  0068EE  5163               	movf	(SetMins@tm+1)& (0+255),w,b
 12832  0068F0  22DA               	addwfc	fsr2h,f,c
 12833  0068F2  50DF               	movf	indf2,w,c
 12834  0068F4  A4D8               	btfss	status,2,c
 12835  0068F6  0012               	return	
 12836                           
 12837                           ; BSR set to: 0
 12838                           ;mini-project-clock.c: 760: tm->mins = 59;
 12839  0068F8  0100               	movlb	0	; () banked
 12840  0068FA  EE20 F001          	lfsr	2,1
 12841  0068FE  5162               	movf	SetMins@tm& (0+255),w,b
 12842  006900  26D9               	addwf	fsr2l,f,c
 12843  006902  5163               	movf	(SetMins@tm+1)& (0+255),w,b
 12844  006904  22DA               	addwfc	fsr2h,f,c
 12845  006906  0E3B               	movlw	59
 12846  006908  6EDF               	movwf	indf2,c
 12847                           
 12848                           ; BSR set to: 0
 12849                           ;mini-project-clock.c: 761: Delay10KTCYx(25);
 12850  00690A  0E19               	movlw	25
 12851  00690C  EC88  F039         	call	_Delay10KTCYx
 12852  006910  0012               	return	
 12853  006912                     __end_of_SetMins:
 12854                           	opt stack 0
 12855                           tblptru	equ	0xFF8
 12856                           tblptrh	equ	0xFF7
 12857                           tblptrl	equ	0xFF6
 12858                           tablat	equ	0xFF5
 12859                           prodh	equ	0xFF4
 12860                           prodl	equ	0xFF3
 12861                           intcon	equ	0xFF2
 12862                           intcon2	equ	0xFF1
 12863                           postinc0	equ	0xFEE
 12864                           wreg	equ	0xFE8
 12865                           indf2	equ	0xFDF
 12866                           postinc2	equ	0xFDE
 12867                           postdec2	equ	0xFDD
 12868                           fsr2h	equ	0xFDA
 12869                           fsr2l	equ	0xFD9
 12870                           status	equ	0xFD8
 12871                           
 12872 ;; *************** function _SetHrs *****************
 12873 ;; Defined at:
 12874 ;;		line 765 in file "mini-project-clock.c"
 12875 ;; Parameters:    Size  Location     Type
 12876 ;;  th              2    2[BANK0 ] PTR volatile struct .
 12877 ;;		 -> Alarm2Time(3), Alarm1Time(3), MainTime(3), 
 12878 ;; Auto vars:     Size  Location     Type
 12879 ;;		None
 12880 ;; Return value:  Size  Location     Type
 12881 ;;                  1    wreg      void 
 12882 ;; Registers used:
 12883 ;;		wreg, fsr2l, fsr2h, status,2, status,0, cstack
 12884 ;; Tracked objects:
 12885 ;;		On entry : 0/0
 12886 ;;		On exit  : 0/0
 12887 ;;		Unchanged: 0/0
 12888 ;; Data sizes:     COMRAM   BANK0   BANK1   BANK2   BANK3   BANK4   BANK5   BANK6   BANK7   BANK8   BANK9  BANK10  BANK1
      +1  BANK12  BANK13  BANK14  BANK15
 12889 ;;      Params:         0       2       0       0       0       0       0       0       0       0       0       0       
      +0       0       0       0       0
 12890 ;;      Locals:         0       0       0       0       0       0       0       0       0       0       0       0       
      +0       0       0       0       0
 12891 ;;      Temps:          0       1       0       0       0       0       0       0       0       0       0       0       
      +0       0       0       0       0
 12892 ;;      Totals:         0       3       0       0       0       0       0       0       0       0       0       0       
      +0       0       0       0       0
 12893 ;;Total ram usage:        3 bytes
 12894 ;; Hardware stack levels used:    1
 12895 ;; Hardware stack levels required when called:    5
 12896 ;; This function calls:
 12897 ;;		_Delay10KTCYx
 12898 ;;		_PB1pressed
 12899 ;;		_PB2pressed
 12900 ;; This function is called by:
 12901 ;;		_SetMenu
 12902 ;;		_SetAlarm1
 12903 ;;		_SetAlarm2
 12904 ;; This function uses a non-reentrant model
 12905 ;;
 12906                           
 12907                           	psect	text20
 12908  006AA2                     __ptext20:
 12909                           	opt stack 0
 12910  006AA2                     _SetHrs:
 12911                           	opt stack 24
 12912                           
 12913                           ;mini-project-clock.c: 766: if(PB2pressed() && th->hrs < 23) {
 12914                           
 12915                           ;incstack = 0
 12916  006AA2  EC60  F039         	call	_PB2pressed	;wreg free
 12917  006AA6  0900               	iorlw	0
 12918  006AA8  B4D8               	btfsc	status,2,c
 12919  006AAA  D00F               	goto	l12402
 12920  006AAC  C062  FFD9         	movff	SetHrs@th,fsr2l
 12921  006AB0  C063  FFDA         	movff	SetHrs@th+1,fsr2h
 12922  006AB4  0E17               	movlw	23
 12923  006AB6  60DF               	cpfslt	indf2,c
 12924  006AB8  D008               	goto	l12402
 12925                           
 12926                           ;mini-project-clock.c: 767: th->hrs++;
 12927  006ABA  C062  FFD9         	movff	SetHrs@th,fsr2l
 12928  006ABE  C063  FFDA         	movff	SetHrs@th+1,fsr2h
 12929  006AC2  2ADF               	incf	indf2,f,c
 12930                           
 12931                           ;mini-project-clock.c: 768: Delay10KTCYx(25);
 12932  006AC4  0E19               	movlw	25
 12933  006AC6  EC88  F039         	call	_Delay10KTCYx
 12934  006ACA                     l12402:
 12935                           
 12936                           ;mini-project-clock.c: 769: }
 12937                           ;mini-project-clock.c: 770: if(PB2pressed() && th->hrs == 23) {
 12938  006ACA  EC60  F039         	call	_PB2pressed	;wreg free
 12939  006ACE  0900               	iorlw	0
 12940  006AD0  B4D8               	btfsc	status,2,c
 12941  006AD2  D011               	goto	l12410
 12942  006AD4  C062  FFD9         	movff	SetHrs@th,fsr2l
 12943  006AD8  C063  FFDA         	movff	SetHrs@th+1,fsr2h
 12944  006ADC  0E17               	movlw	23
 12945  006ADE  18DE               	xorwf	postinc2,w,c
 12946  006AE0  A4D8               	btfss	status,2,c
 12947  006AE2  D009               	goto	l12410
 12948                           
 12949                           ;mini-project-clock.c: 771: th->hrs = 0;
 12950  006AE4  C062  FFD9         	movff	SetHrs@th,fsr2l
 12951  006AE8  C063  FFDA         	movff	SetHrs@th+1,fsr2h
 12952  006AEC  0E00               	movlw	0
 12953  006AEE  6EDF               	movwf	indf2,c
 12954                           
 12955                           ;mini-project-clock.c: 772: Delay10KTCYx(25);
 12956  006AF0  0E19               	movlw	25
 12957  006AF2  EC88  F039         	call	_Delay10KTCYx
 12958  006AF6                     l12410:
 12959                           
 12960                           ;mini-project-clock.c: 773: }
 12961                           ;mini-project-clock.c: 774: if(PB1pressed() && th->hrs > 0) {
 12962  006AF6  EC74  F039         	call	_PB1pressed	;wreg free
 12963  006AFA  0900               	iorlw	0
 12964  006AFC  B4D8               	btfsc	status,2,c
 12965  006AFE  D00F               	goto	l12418
 12966  006B00  C062  FFD9         	movff	SetHrs@th,fsr2l
 12967  006B04  C063  FFDA         	movff	SetHrs@th+1,fsr2h
 12968  006B08  50DF               	movf	indf2,w,c
 12969  006B0A  B4D8               	btfsc	status,2,c
 12970  006B0C  D008               	goto	l12418
 12971                           
 12972                           ;mini-project-clock.c: 775: th->hrs--;
 12973  006B0E  C062  FFD9         	movff	SetHrs@th,fsr2l
 12974  006B12  C063  FFDA         	movff	SetHrs@th+1,fsr2h
 12975  006B16  06DF               	decf	indf2,f,c
 12976                           
 12977                           ;mini-project-clock.c: 776: Delay10KTCYx(25);
 12978  006B18  0E19               	movlw	25
 12979  006B1A  EC88  F039         	call	_Delay10KTCYx
 12980  006B1E                     l12418:
 12981                           
 12982                           ;mini-project-clock.c: 777: }
 12983                           ;mini-project-clock.c: 778: if(PB1pressed() && th->hrs == 0) {
 12984  006B1E  EC74  F039         	call	_PB1pressed	;wreg free
 12985  006B22  0900               	iorlw	0
 12986  006B24  B4D8               	btfsc	status,2,c
 12987  006B26  0012               	return	
 12988  006B28  C062  FFD9         	movff	SetHrs@th,fsr2l
 12989  006B2C  C063  FFDA         	movff	SetHrs@th+1,fsr2h
 12990  006B30  50DF               	movf	indf2,w,c
 12991  006B32  A4D8               	btfss	status,2,c
 12992  006B34  0012               	return	
 12993                           
 12994                           ;mini-project-clock.c: 779: th->hrs = 23;
 12995  006B36  C062  FFD9         	movff	SetHrs@th,fsr2l
 12996  006B3A  C063  FFDA         	movff	SetHrs@th+1,fsr2h
 12997  006B3E  0E17               	movlw	23
 12998  006B40  6EDF               	movwf	indf2,c
 12999                           
 13000                           ;mini-project-clock.c: 780: Delay10KTCYx(25);
 13001  006B42  0E19               	movlw	25
 13002  006B44  EC88  F039         	call	_Delay10KTCYx
 13003  006B48  0012               	return	
 13004  006B4A                     __end_of_SetHrs:
 13005                           	opt stack 0
 13006                           tblptru	equ	0xFF8
 13007                           tblptrh	equ	0xFF7
 13008                           tblptrl	equ	0xFF6
 13009                           tablat	equ	0xFF5
 13010                           prodh	equ	0xFF4
 13011                           prodl	equ	0xFF3
 13012                           intcon	equ	0xFF2
 13013                           intcon2	equ	0xFF1
 13014                           postinc0	equ	0xFEE
 13015                           wreg	equ	0xFE8
 13016                           indf2	equ	0xFDF
 13017                           postinc2	equ	0xFDE
 13018                           postdec2	equ	0xFDD
 13019                           fsr2h	equ	0xFDA
 13020                           fsr2l	equ	0xFD9
 13021                           status	equ	0xFD8
 13022                           
 13023 ;; *************** function _PB2pressed *****************
 13024 ;; Defined at:
 13025 ;;		line 602 in file "mini-project-clock.c"
 13026 ;; Parameters:    Size  Location     Type
 13027 ;;		None
 13028 ;; Auto vars:     Size  Location     Type
 13029 ;;		None
 13030 ;; Return value:  Size  Location     Type
 13031 ;;                  1    wreg      unsigned char 
 13032 ;; Registers used:
 13033 ;;		wreg, status,2, status,0
 13034 ;; Tracked objects:
 13035 ;;		On entry : 0/0
 13036 ;;		On exit  : 0/0
 13037 ;;		Unchanged: 0/0
 13038 ;; Data sizes:     COMRAM   BANK0   BANK1   BANK2   BANK3   BANK4   BANK5   BANK6   BANK7   BANK8   BANK9  BANK10  BANK1
      +1  BANK12  BANK13  BANK14  BANK15
 13039 ;;      Params:         0       0       0       0       0       0       0       0       0       0       0       0       
      +0       0       0       0       0
 13040 ;;      Locals:         0       0       0       0       0       0       0       0       0       0       0       0       
      +0       0       0       0       0
 13041 ;;      Temps:          0       0       0       0       0       0       0       0       0       0       0       0       
      +0       0       0       0       0
 13042 ;;      Totals:         0       0       0       0       0       0       0       0       0       0       0       0       
      +0       0       0       0       0
 13043 ;;Total ram usage:        0 bytes
 13044 ;; Hardware stack levels used:    1
 13045 ;; Hardware stack levels required when called:    4
 13046 ;; This function calls:
 13047 ;;		Nothing
 13048 ;; This function is called by:
 13049 ;;		_main
 13050 ;;		_SetSecs
 13051 ;;		_SetMins
 13052 ;;		_SetHrs
 13053 ;;		_SetDay
 13054 ;;		_SetMonth
 13055 ;;		_SetYear
 13056 ;;		_SetAlarm1
 13057 ;;		_SoundAlarm1
 13058 ;;		_SetAlarm2
 13059 ;;		_SoundAlarm2
 13060 ;; This function uses a non-reentrant model
 13061 ;;
 13062                           
 13063                           	psect	text21
 13064  0072C0                     __ptext21:
 13065                           	opt stack 0
 13066  0072C0                     _PB2pressed:
 13067                           	opt stack 25
 13068                           
 13069                           ;mini-project-clock.c: 603: if(PORTBbits.RB0 == 0) {
 13070                           
 13071                           ;incstack = 0
 13072  0072C0  B081               	btfsc	3969,0,c	;volatile
 13073  0072C2  D010               	goto	l12104
 13074                           
 13075                           ;mini-project-clock.c: 604: ms_count1 = 0;
 13076  0072C4  0E00               	movlw	0
 13077  0072C6  6E2B               	movwf	_ms_count1+1,c	;volatile
 13078  0072C8  0E00               	movlw	0
 13079  0072CA  6E2A               	movwf	_ms_count1,c	;volatile
 13080  0072CC                     l12092:
 13081  0072CC  502B               	movf	_ms_count1+1,w,c	;volatile
 13082  0072CE  E104               	bnz	u25330
 13083  0072D0  0E19               	movlw	25
 13084  0072D2  5C2A               	subwf	_ms_count1,w,c	;volatile
 13085  0072D4  A0D8               	btfss	status,0,c
 13086  0072D6  D7FA               	goto	l12092
 13087  0072D8                     u25330:
 13088                           
 13089                           ;mini-project-clock.c: 606: }
 13090                           ;mini-project-clock.c: 607: if(PORTBbits.RB0 == 0) {
 13091  0072D8  B081               	btfsc	3969,0,c	;volatile
 13092  0072DA  D002               	goto	l12100
 13093                           
 13094                           ;mini-project-clock.c: 608: return(1);
 13095  0072DC  0E01               	movlw	1
 13096                           
 13097                           ;mini-project-clock.c: 609: }
 13098  0072DE  0012               	return	
 13099  0072E0                     l12100:
 13100                           
 13101                           ;mini-project-clock.c: 610: else {
 13102                           ;mini-project-clock.c: 611: return(0);
 13103  0072E0  0E00               	movlw	0
 13104                           
 13105                           ;mini-project-clock.c: 612: }
 13106                           ;mini-project-clock.c: 613: }
 13107  0072E2  0012               	return	
 13108  0072E4                     l12104:
 13109                           
 13110                           ;mini-project-clock.c: 614: else {
 13111                           ;mini-project-clock.c: 615: return(0);
 13112  0072E4  0E00               	movlw	0
 13113  0072E6  0012               	return	
 13114  0072E8                     __end_of_PB2pressed:
 13115                           	opt stack 0
 13116                           tblptru	equ	0xFF8
 13117                           tblptrh	equ	0xFF7
 13118                           tblptrl	equ	0xFF6
 13119                           tablat	equ	0xFF5
 13120                           prodh	equ	0xFF4
 13121                           prodl	equ	0xFF3
 13122                           intcon	equ	0xFF2
 13123                           intcon2	equ	0xFF1
 13124                           postinc0	equ	0xFEE
 13125                           wreg	equ	0xFE8
 13126                           indf2	equ	0xFDF
 13127                           postinc2	equ	0xFDE
 13128                           postdec2	equ	0xFDD
 13129                           fsr2h	equ	0xFDA
 13130                           fsr2l	equ	0xFD9
 13131                           status	equ	0xFD8
 13132                           
 13133 ;; *************** function _PB1pressed *****************
 13134 ;; Defined at:
 13135 ;;		line 585 in file "mini-project-clock.c"
 13136 ;; Parameters:    Size  Location     Type
 13137 ;;		None
 13138 ;; Auto vars:     Size  Location     Type
 13139 ;;		None
 13140 ;; Return value:  Size  Location     Type
 13141 ;;                  1    wreg      unsigned char 
 13142 ;; Registers used:
 13143 ;;		wreg, status,2, status,0
 13144 ;; Tracked objects:
 13145 ;;		On entry : 0/0
 13146 ;;		On exit  : 0/0
 13147 ;;		Unchanged: 0/0
 13148 ;; Data sizes:     COMRAM   BANK0   BANK1   BANK2   BANK3   BANK4   BANK5   BANK6   BANK7   BANK8   BANK9  BANK10  BANK1
      +1  BANK12  BANK13  BANK14  BANK15
 13149 ;;      Params:         0       0       0       0       0       0       0       0       0       0       0       0       
      +0       0       0       0       0
 13150 ;;      Locals:         0       0       0       0       0       0       0       0       0       0       0       0       
      +0       0       0       0       0
 13151 ;;      Temps:          0       0       0       0       0       0       0       0       0       0       0       0       
      +0       0       0       0       0
 13152 ;;      Totals:         0       0       0       0       0       0       0       0       0       0       0       0       
      +0       0       0       0       0
 13153 ;;Total ram usage:        0 bytes
 13154 ;; Hardware stack levels used:    1
 13155 ;; Hardware stack levels required when called:    4
 13156 ;; This function calls:
 13157 ;;		Nothing
 13158 ;; This function is called by:
 13159 ;;		_main
 13160 ;;		_SetSecs
 13161 ;;		_SetMins
 13162 ;;		_SetHrs
 13163 ;;		_SetDay
 13164 ;;		_SetMonth
 13165 ;;		_SetYear
 13166 ;;		_SetAlarm1
 13167 ;;		_SoundAlarm1
 13168 ;;		_SetAlarm2
 13169 ;;		_SoundAlarm2
 13170 ;; This function uses a non-reentrant model
 13171 ;;
 13172                           
 13173                           	psect	text22
 13174  0072E8                     __ptext22:
 13175                           	opt stack 0
 13176  0072E8                     _PB1pressed:
 13177                           	opt stack 25
 13178                           
 13179                           ;mini-project-clock.c: 586: if(PORTJbits.RJ5 == 0) {
 13180                           
 13181                           ;incstack = 0
 13182  0072E8  BA88               	btfsc	3976,5,c	;volatile
 13183  0072EA  D010               	goto	l12080
 13184                           
 13185                           ;mini-project-clock.c: 587: ms_count1 = 0;
 13186  0072EC  0E00               	movlw	0
 13187  0072EE  6E2B               	movwf	_ms_count1+1,c	;volatile
 13188  0072F0  0E00               	movlw	0
 13189  0072F2  6E2A               	movwf	_ms_count1,c	;volatile
 13190  0072F4                     l12068:
 13191  0072F4  502B               	movf	_ms_count1+1,w,c	;volatile
 13192  0072F6  E104               	bnz	u25300
 13193  0072F8  0E19               	movlw	25
 13194  0072FA  5C2A               	subwf	_ms_count1,w,c	;volatile
 13195  0072FC  A0D8               	btfss	status,0,c
 13196  0072FE  D7FA               	goto	l12068
 13197  007300                     u25300:
 13198                           
 13199                           ;mini-project-clock.c: 589: }
 13200                           ;mini-project-clock.c: 590: if(PORTJbits.RJ0 == 0) {
 13201  007300  B088               	btfsc	3976,0,c	;volatile
 13202  007302  D002               	goto	l12076
 13203                           
 13204                           ;mini-project-clock.c: 591: return(1);
 13205  007304  0E01               	movlw	1
 13206                           
 13207                           ;mini-project-clock.c: 592: }
 13208  007306  0012               	return	
 13209  007308                     l12076:
 13210                           
 13211                           ;mini-project-clock.c: 593: else {
 13212                           ;mini-project-clock.c: 594: return(0);
 13213  007308  0E00               	movlw	0
 13214                           
 13215                           ;mini-project-clock.c: 595: }
 13216                           ;mini-project-clock.c: 596: }
 13217  00730A  0012               	return	
 13218  00730C                     l12080:
 13219                           
 13220                           ;mini-project-clock.c: 597: else {
 13221                           ;mini-project-clock.c: 598: return(0);
 13222  00730C  0E00               	movlw	0
 13223  00730E  0012               	return	
 13224  007310                     __end_of_PB1pressed:
 13225                           	opt stack 0
 13226                           tblptru	equ	0xFF8
 13227                           tblptrh	equ	0xFF7
 13228                           tblptrl	equ	0xFF6
 13229                           tablat	equ	0xFF5
 13230                           prodh	equ	0xFF4
 13231                           prodl	equ	0xFF3
 13232                           intcon	equ	0xFF2
 13233                           intcon2	equ	0xFF1
 13234                           postinc0	equ	0xFEE
 13235                           wreg	equ	0xFE8
 13236                           indf2	equ	0xFDF
 13237                           postinc2	equ	0xFDE
 13238                           postdec2	equ	0xFDD
 13239                           fsr2h	equ	0xFDA
 13240                           fsr2l	equ	0xFD9
 13241                           status	equ	0xFD8
 13242                           
 13243 ;; *************** function _SecsFlash *****************
 13244 ;; Defined at:
 13245 ;;		line 867 in file "mini-project-clock.c"
 13246 ;; Parameters:    Size  Location     Type
 13247 ;;		None
 13248 ;; Auto vars:     Size  Location     Type
 13249 ;;		None
 13250 ;; Return value:  Size  Location     Type
 13251 ;;                  1    wreg      void 
 13252 ;; Registers used:
 13253 ;;		wreg, status,2, status,0, tblptrl, tblptrh, tblptru, cstack
 13254 ;; Tracked objects:
 13255 ;;		On entry : 0/0
 13256 ;;		On exit  : 0/0
 13257 ;;		Unchanged: 0/0
 13258 ;; Data sizes:     COMRAM   BANK0   BANK1   BANK2   BANK3   BANK4   BANK5   BANK6   BANK7   BANK8   BANK9  BANK10  BANK1
      +1  BANK12  BANK13  BANK14  BANK15
 13259 ;;      Params:         0       0       0       0       0       0       0       0       0       0       0       0       
      +0       0       0       0       0
 13260 ;;      Locals:         0       0       0       0       0       0       0       0       0       0       0       0       
      +0       0       0       0       0
 13261 ;;      Temps:          0       0       0       0       0       0       0       0       0       0       0       0       
      +0       0       0       0       0
 13262 ;;      Totals:         0       0       0       0       0       0       0       0       0       0       0       0       
      +0       0       0       0       0
 13263 ;;Total ram usage:        0 bytes
 13264 ;; Hardware stack levels used:    1
 13265 ;; Hardware stack levels required when called:    5
 13266 ;; This function calls:
 13267 ;;		_Delay10KTCYx
 13268 ;; This function is called by:
 13269 ;;		_SetMenu
 13270 ;;		_SetAlarm1
 13271 ;;		_SetAlarm2
 13272 ;; This function uses a non-reentrant model
 13273 ;;
 13274                           
 13275                           	psect	text23
 13276  006EE4                     __ptext23:
 13277                           	opt stack 0
 13278  006EE4                     _SecsFlash:
 13279                           	opt stack 23
 13280                           
 13281                           ;mini-project-clock.c: 868: disp_LEDS &= 0xC0;
 13282                           
 13283                           ;incstack = 0
 13284  006EE4  0EC0               	movlw	192
 13285  006EE6  164C               	andwf	_disp_LEDS,f,c	;volatile
 13286                           
 13287                           ;mini-project-clock.c: 869: disp_LEDS |= 0x01;
 13288  006EE8  804C               	bsf	_disp_LEDS,0,c	;volatile
 13289                           
 13290                           ;mini-project-clock.c: 870: dp_mask |= (1 << 2);
 13291  006EEA  844A               	bsf	_dp_mask,2,c	;volatile
 13292                           
 13293                           ;mini-project-clock.c: 871: disp_U2 = DispChars.S;
 13294  006EEC  0E14               	movlw	low (_DispChars+19)
 13295  006EEE  6EF6               	movwf	tblptrl,c
 13296  006EF0  0E10               	movlw	high (_DispChars+19)
 13297  006EF2  6EF7               	movwf	tblptrh,c
 13298  006EF4                     	if	0	;tblptru may be non-zero
 13299  006EF4                     	endif
 13300  006EF4                     	if	1	;Program memory is > 0xFFFF, there are 3 active tblptr bytes
 13301  006EF4  0E00               	movlw	low (__mediumconst shr (0+16))
 13302  006EF6  6EF8               	movwf	tblptru,c
 13303  006EF8                     	endif
 13304  006EF8  0008               	tblrd		*
 13305  006EFA  CFF5 F034          	movff	tablat,_disp_U2	;volatile
 13306                           
 13307                           ;mini-project-clock.c: 872: disp_U1 = DispChars.S;
 13308  006EFE  0E14               	movlw	low (_DispChars+19)
 13309  006F00  6EF6               	movwf	tblptrl,c
 13310  006F02  0E10               	movlw	high (_DispChars+19)
 13311  006F04  6EF7               	movwf	tblptrh,c
 13312  006F06                     	if	0	;tblptru may be non-zero
 13313  006F06                     	endif
 13314  006F06                     	if	1	;Program memory is > 0xFFFF, there are 3 active tblptr bytes
 13315  006F06  0E00               	movlw	low (__mediumconst shr (0+16))
 13316  006F08  6EF8               	movwf	tblptru,c
 13317  006F0A                     	endif
 13318  006F0A  0008               	tblrd		*
 13319  006F0C  CFF5 F033          	movff	tablat,_disp_U1	;volatile
 13320                           
 13321                           ;mini-project-clock.c: 873: Delay10KTCYx(100);
 13322  006F10  0E64               	movlw	100
 13323  006F12  EC88  F039         	call	_Delay10KTCYx
 13324                           
 13325                           ;mini-project-clock.c: 874: disp_U2 = 0xFF;
 13326  006F16  6834               	setf	_disp_U2,c	;volatile
 13327                           
 13328                           ;mini-project-clock.c: 875: disp_U1 = 0xFF;
 13329  006F18  6833               	setf	_disp_U1,c	;volatile
 13330                           
 13331                           ;mini-project-clock.c: 876: Delay10KTCYx(100);
 13332  006F1A  0E64               	movlw	100
 13333  006F1C  EC88  F039         	call	_Delay10KTCYx
 13334                           
 13335                           ;mini-project-clock.c: 877: disp_U2 = DispChars.S;
 13336  006F20  0E14               	movlw	low (_DispChars+19)
 13337  006F22  6EF6               	movwf	tblptrl,c
 13338  006F24  0E10               	movlw	high (_DispChars+19)
 13339  006F26  6EF7               	movwf	tblptrh,c
 13340  006F28                     	if	0	;tblptru may be non-zero
 13341  006F28                     	endif
 13342  006F28                     	if	1	;Program memory is > 0xFFFF, there are 3 active tblptr bytes
 13343  006F28  0E00               	movlw	low (__mediumconst shr (0+16))
 13344  006F2A  6EF8               	movwf	tblptru,c
 13345  006F2C                     	endif
 13346  006F2C  0008               	tblrd		*
 13347  006F2E  CFF5 F034          	movff	tablat,_disp_U2	;volatile
 13348                           
 13349                           ;mini-project-clock.c: 878: disp_U1 = DispChars.S;
 13350  006F32  0E14               	movlw	low (_DispChars+19)
 13351  006F34  6EF6               	movwf	tblptrl,c
 13352  006F36  0E10               	movlw	high (_DispChars+19)
 13353  006F38  6EF7               	movwf	tblptrh,c
 13354  006F3A                     	if	0	;tblptru may be non-zero
 13355  006F3A                     	endif
 13356  006F3A                     	if	1	;Program memory is > 0xFFFF, there are 3 active tblptr bytes
 13357  006F3A  0E00               	movlw	low (__mediumconst shr (0+16))
 13358  006F3C  6EF8               	movwf	tblptru,c
 13359  006F3E                     	endif
 13360  006F3E  0008               	tblrd		*
 13361  006F40  CFF5 F033          	movff	tablat,_disp_U1	;volatile
 13362                           
 13363                           ;mini-project-clock.c: 879: Delay10KTCYx(100);
 13364  006F44  0E64               	movlw	100
 13365  006F46  EC88  F039         	call	_Delay10KTCYx
 13366                           
 13367                           ;mini-project-clock.c: 880: disp_U2 = 0xFF;
 13368  006F4A  6834               	setf	_disp_U2,c	;volatile
 13369                           
 13370                           ;mini-project-clock.c: 881: disp_U1 = 0xFF;
 13371  006F4C  6833               	setf	_disp_U1,c	;volatile
 13372                           
 13373                           ;mini-project-clock.c: 882: Delay10KTCYx(100);
 13374  006F4E  0E64               	movlw	100
 13375  006F50  EC88  F039         	call	_Delay10KTCYx
 13376  006F54  0012               	return		;funcret
 13377  006F56                     __end_of_SecsFlash:
 13378                           	opt stack 0
 13379                           tblptru	equ	0xFF8
 13380                           tblptrh	equ	0xFF7
 13381                           tblptrl	equ	0xFF6
 13382                           tablat	equ	0xFF5
 13383                           prodh	equ	0xFF4
 13384                           prodl	equ	0xFF3
 13385                           intcon	equ	0xFF2
 13386                           intcon2	equ	0xFF1
 13387                           postinc0	equ	0xFEE
 13388                           wreg	equ	0xFE8
 13389                           indf2	equ	0xFDF
 13390                           postinc2	equ	0xFDE
 13391                           postdec2	equ	0xFDD
 13392                           fsr2h	equ	0xFDA
 13393                           fsr2l	equ	0xFD9
 13394                           status	equ	0xFD8
 13395                           
 13396 ;; *************** function _MinsFlash *****************
 13397 ;; Defined at:
 13398 ;;		line 885 in file "mini-project-clock.c"
 13399 ;; Parameters:    Size  Location     Type
 13400 ;;		None
 13401 ;; Auto vars:     Size  Location     Type
 13402 ;;		None
 13403 ;; Return value:  Size  Location     Type
 13404 ;;                  1    wreg      void 
 13405 ;; Registers used:
 13406 ;;		wreg, status,2, status,0, tblptrl, tblptrh, tblptru, cstack
 13407 ;; Tracked objects:
 13408 ;;		On entry : 0/0
 13409 ;;		On exit  : 0/0
 13410 ;;		Unchanged: 0/0
 13411 ;; Data sizes:     COMRAM   BANK0   BANK1   BANK2   BANK3   BANK4   BANK5   BANK6   BANK7   BANK8   BANK9  BANK10  BANK1
      +1  BANK12  BANK13  BANK14  BANK15
 13412 ;;      Params:         0       0       0       0       0       0       0       0       0       0       0       0       
      +0       0       0       0       0
 13413 ;;      Locals:         0       0       0       0       0       0       0       0       0       0       0       0       
      +0       0       0       0       0
 13414 ;;      Temps:          0       0       0       0       0       0       0       0       0       0       0       0       
      +0       0       0       0       0
 13415 ;;      Totals:         0       0       0       0       0       0       0       0       0       0       0       0       
      +0       0       0       0       0
 13416 ;;Total ram usage:        0 bytes
 13417 ;; Hardware stack levels used:    1
 13418 ;; Hardware stack levels required when called:    5
 13419 ;; This function calls:
 13420 ;;		_Delay10KTCYx
 13421 ;; This function is called by:
 13422 ;;		_SetMenu
 13423 ;;		_SetAlarm1
 13424 ;;		_SetAlarm2
 13425 ;; This function uses a non-reentrant model
 13426 ;;
 13427                           
 13428                           	psect	text24
 13429  006F56                     __ptext24:
 13430                           	opt stack 0
 13431  006F56                     _MinsFlash:
 13432                           	opt stack 23
 13433                           
 13434                           ;mini-project-clock.c: 886: disp_LEDS &= 0xC0;
 13435                           
 13436                           ;incstack = 0
 13437  006F56  0EC0               	movlw	192
 13438  006F58  164C               	andwf	_disp_LEDS,f,c	;volatile
 13439                           
 13440                           ;mini-project-clock.c: 887: disp_LEDS |= 0x02;
 13441  006F5A  824C               	bsf	_disp_LEDS,1,c	;volatile
 13442                           
 13443                           ;mini-project-clock.c: 888: dp_mask |= (1 << 2);
 13444  006F5C  844A               	bsf	_dp_mask,2,c	;volatile
 13445                           
 13446                           ;mini-project-clock.c: 889: disp_U2 = DispChars.M;
 13447  006F5E  0E0F               	movlw	low (_DispChars+14)
 13448  006F60  6EF6               	movwf	tblptrl,c
 13449  006F62  0E10               	movlw	high (_DispChars+14)
 13450  006F64  6EF7               	movwf	tblptrh,c
 13451  006F66                     	if	0	;tblptru may be non-zero
 13452  006F66                     	endif
 13453  006F66                     	if	1	;Program memory is > 0xFFFF, there are 3 active tblptr bytes
 13454  006F66  0E00               	movlw	low (__mediumconst shr (0+16))
 13455  006F68  6EF8               	movwf	tblptru,c
 13456  006F6A                     	endif
 13457  006F6A  0008               	tblrd		*
 13458  006F6C  CFF5 F034          	movff	tablat,_disp_U2	;volatile
 13459                           
 13460                           ;mini-project-clock.c: 890: disp_U1 = DispChars.i;
 13461  006F70  0E0C               	movlw	low (_DispChars+11)
 13462  006F72  6EF6               	movwf	tblptrl,c
 13463  006F74  0E10               	movlw	high (_DispChars+11)
 13464  006F76  6EF7               	movwf	tblptrh,c
 13465  006F78                     	if	0	;tblptru may be non-zero
 13466  006F78                     	endif
 13467  006F78                     	if	1	;Program memory is > 0xFFFF, there are 3 active tblptr bytes
 13468  006F78  0E00               	movlw	low (__mediumconst shr (0+16))
 13469  006F7A  6EF8               	movwf	tblptru,c
 13470  006F7C                     	endif
 13471  006F7C  0008               	tblrd		*
 13472  006F7E  CFF5 F033          	movff	tablat,_disp_U1	;volatile
 13473                           
 13474                           ;mini-project-clock.c: 891: Delay10KTCYx(100);
 13475  006F82  0E64               	movlw	100
 13476  006F84  EC88  F039         	call	_Delay10KTCYx
 13477                           
 13478                           ;mini-project-clock.c: 892: disp_U2 = 0xFF;
 13479  006F88  6834               	setf	_disp_U2,c	;volatile
 13480                           
 13481                           ;mini-project-clock.c: 893: disp_U1 = 0xFF;
 13482  006F8A  6833               	setf	_disp_U1,c	;volatile
 13483                           
 13484                           ;mini-project-clock.c: 894: Delay10KTCYx(100);
 13485  006F8C  0E64               	movlw	100
 13486  006F8E  EC88  F039         	call	_Delay10KTCYx
 13487                           
 13488                           ;mini-project-clock.c: 895: disp_U2 = DispChars.M;
 13489  006F92  0E0F               	movlw	low (_DispChars+14)
 13490  006F94  6EF6               	movwf	tblptrl,c
 13491  006F96  0E10               	movlw	high (_DispChars+14)
 13492  006F98  6EF7               	movwf	tblptrh,c
 13493  006F9A                     	if	0	;tblptru may be non-zero
 13494  006F9A                     	endif
 13495  006F9A                     	if	1	;Program memory is > 0xFFFF, there are 3 active tblptr bytes
 13496  006F9A  0E00               	movlw	low (__mediumconst shr (0+16))
 13497  006F9C  6EF8               	movwf	tblptru,c
 13498  006F9E                     	endif
 13499  006F9E  0008               	tblrd		*
 13500  006FA0  CFF5 F034          	movff	tablat,_disp_U2	;volatile
 13501                           
 13502                           ;mini-project-clock.c: 896: disp_U1 = DispChars.i;
 13503  006FA4  0E0C               	movlw	low (_DispChars+11)
 13504  006FA6  6EF6               	movwf	tblptrl,c
 13505  006FA8  0E10               	movlw	high (_DispChars+11)
 13506  006FAA  6EF7               	movwf	tblptrh,c
 13507  006FAC                     	if	0	;tblptru may be non-zero
 13508  006FAC                     	endif
 13509  006FAC                     	if	1	;Program memory is > 0xFFFF, there are 3 active tblptr bytes
 13510  006FAC  0E00               	movlw	low (__mediumconst shr (0+16))
 13511  006FAE  6EF8               	movwf	tblptru,c
 13512  006FB0                     	endif
 13513  006FB0  0008               	tblrd		*
 13514  006FB2  CFF5 F033          	movff	tablat,_disp_U1	;volatile
 13515                           
 13516                           ;mini-project-clock.c: 897: Delay10KTCYx(100);
 13517  006FB6  0E64               	movlw	100
 13518  006FB8  EC88  F039         	call	_Delay10KTCYx
 13519                           
 13520                           ;mini-project-clock.c: 898: disp_U2 = 0xFF;
 13521  006FBC  6834               	setf	_disp_U2,c	;volatile
 13522                           
 13523                           ;mini-project-clock.c: 899: disp_U1 = 0xFF;
 13524  006FBE  6833               	setf	_disp_U1,c	;volatile
 13525                           
 13526                           ;mini-project-clock.c: 900: Delay10KTCYx(100);
 13527  006FC0  0E64               	movlw	100
 13528  006FC2  EC88  F039         	call	_Delay10KTCYx
 13529  006FC6  0012               	return		;funcret
 13530  006FC8                     __end_of_MinsFlash:
 13531                           	opt stack 0
 13532                           tblptru	equ	0xFF8
 13533                           tblptrh	equ	0xFF7
 13534                           tblptrl	equ	0xFF6
 13535                           tablat	equ	0xFF5
 13536                           prodh	equ	0xFF4
 13537                           prodl	equ	0xFF3
 13538                           intcon	equ	0xFF2
 13539                           intcon2	equ	0xFF1
 13540                           postinc0	equ	0xFEE
 13541                           wreg	equ	0xFE8
 13542                           indf2	equ	0xFDF
 13543                           postinc2	equ	0xFDE
 13544                           postdec2	equ	0xFDD
 13545                           fsr2h	equ	0xFDA
 13546                           fsr2l	equ	0xFD9
 13547                           status	equ	0xFD8
 13548                           
 13549 ;; *************** function _HrsFlash *****************
 13550 ;; Defined at:
 13551 ;;		line 903 in file "mini-project-clock.c"
 13552 ;; Parameters:    Size  Location     Type
 13553 ;;		None
 13554 ;; Auto vars:     Size  Location     Type
 13555 ;;		None
 13556 ;; Return value:  Size  Location     Type
 13557 ;;                  1    wreg      void 
 13558 ;; Registers used:
 13559 ;;		wreg, status,2, status,0, tblptrl, tblptrh, tblptru, cstack
 13560 ;; Tracked objects:
 13561 ;;		On entry : 0/0
 13562 ;;		On exit  : 0/0
 13563 ;;		Unchanged: 0/0
 13564 ;; Data sizes:     COMRAM   BANK0   BANK1   BANK2   BANK3   BANK4   BANK5   BANK6   BANK7   BANK8   BANK9  BANK10  BANK1
      +1  BANK12  BANK13  BANK14  BANK15
 13565 ;;      Params:         0       0       0       0       0       0       0       0       0       0       0       0       
      +0       0       0       0       0
 13566 ;;      Locals:         0       0       0       0       0       0       0       0       0       0       0       0       
      +0       0       0       0       0
 13567 ;;      Temps:          0       0       0       0       0       0       0       0       0       0       0       0       
      +0       0       0       0       0
 13568 ;;      Totals:         0       0       0       0       0       0       0       0       0       0       0       0       
      +0       0       0       0       0
 13569 ;;Total ram usage:        0 bytes
 13570 ;; Hardware stack levels used:    1
 13571 ;; Hardware stack levels required when called:    5
 13572 ;; This function calls:
 13573 ;;		_Delay10KTCYx
 13574 ;; This function is called by:
 13575 ;;		_SetMenu
 13576 ;;		_SetAlarm1
 13577 ;;		_SetAlarm2
 13578 ;; This function uses a non-reentrant model
 13579 ;;
 13580                           
 13581                           	psect	text25
 13582  006FC8                     __ptext25:
 13583                           	opt stack 0
 13584  006FC8                     _HrsFlash:
 13585                           	opt stack 23
 13586                           
 13587                           ;mini-project-clock.c: 904: disp_LEDS &= 0xC0;
 13588                           
 13589                           ;incstack = 0
 13590  006FC8  0EC0               	movlw	192
 13591  006FCA  164C               	andwf	_disp_LEDS,f,c	;volatile
 13592                           
 13593                           ;mini-project-clock.c: 905: disp_LEDS |= 0x04;
 13594  006FCC  844C               	bsf	_disp_LEDS,2,c	;volatile
 13595                           
 13596                           ;mini-project-clock.c: 906: dp_mask |= (1 << 2);
 13597  006FCE  844A               	bsf	_dp_mask,2,c	;volatile
 13598                           
 13599                           ;mini-project-clock.c: 907: disp_U2 = DispChars.h;
 13600  006FD0  0E0A               	movlw	low (_DispChars+9)
 13601  006FD2  6EF6               	movwf	tblptrl,c
 13602  006FD4  0E10               	movlw	high (_DispChars+9)
 13603  006FD6  6EF7               	movwf	tblptrh,c
 13604  006FD8                     	if	0	;tblptru may be non-zero
 13605  006FD8                     	endif
 13606  006FD8                     	if	1	;Program memory is > 0xFFFF, there are 3 active tblptr bytes
 13607  006FD8  0E00               	movlw	low (__mediumconst shr (0+16))
 13608  006FDA  6EF8               	movwf	tblptru,c
 13609  006FDC                     	endif
 13610  006FDC  0008               	tblrd		*
 13611  006FDE  CFF5 F034          	movff	tablat,_disp_U2	;volatile
 13612                           
 13613                           ;mini-project-clock.c: 908: disp_U1 = DispChars.h;
 13614  006FE2  0E0A               	movlw	low (_DispChars+9)
 13615  006FE4  6EF6               	movwf	tblptrl,c
 13616  006FE6  0E10               	movlw	high (_DispChars+9)
 13617  006FE8  6EF7               	movwf	tblptrh,c
 13618  006FEA                     	if	0	;tblptru may be non-zero
 13619  006FEA                     	endif
 13620  006FEA                     	if	1	;Program memory is > 0xFFFF, there are 3 active tblptr bytes
 13621  006FEA  0E00               	movlw	low (__mediumconst shr (0+16))
 13622  006FEC  6EF8               	movwf	tblptru,c
 13623  006FEE                     	endif
 13624  006FEE  0008               	tblrd		*
 13625  006FF0  CFF5 F033          	movff	tablat,_disp_U1	;volatile
 13626                           
 13627                           ;mini-project-clock.c: 909: Delay10KTCYx(100);
 13628  006FF4  0E64               	movlw	100
 13629  006FF6  EC88  F039         	call	_Delay10KTCYx
 13630                           
 13631                           ;mini-project-clock.c: 910: disp_U2 = 0xFF;
 13632  006FFA  6834               	setf	_disp_U2,c	;volatile
 13633                           
 13634                           ;mini-project-clock.c: 911: disp_U1 = 0xFF;
 13635  006FFC  6833               	setf	_disp_U1,c	;volatile
 13636                           
 13637                           ;mini-project-clock.c: 912: Delay10KTCYx(100);
 13638  006FFE  0E64               	movlw	100
 13639  007000  EC88  F039         	call	_Delay10KTCYx
 13640                           
 13641                           ;mini-project-clock.c: 913: disp_U2 = DispChars.h;
 13642  007004  0E0A               	movlw	low (_DispChars+9)
 13643  007006  6EF6               	movwf	tblptrl,c
 13644  007008  0E10               	movlw	high (_DispChars+9)
 13645  00700A  6EF7               	movwf	tblptrh,c
 13646  00700C                     	if	0	;tblptru may be non-zero
 13647  00700C                     	endif
 13648  00700C                     	if	1	;Program memory is > 0xFFFF, there are 3 active tblptr bytes
 13649  00700C  0E00               	movlw	low (__mediumconst shr (0+16))
 13650  00700E  6EF8               	movwf	tblptru,c
 13651  007010                     	endif
 13652  007010  0008               	tblrd		*
 13653  007012  CFF5 F034          	movff	tablat,_disp_U2	;volatile
 13654                           
 13655                           ;mini-project-clock.c: 914: disp_U1 = DispChars.h;
 13656  007016  0E0A               	movlw	low (_DispChars+9)
 13657  007018  6EF6               	movwf	tblptrl,c
 13658  00701A  0E10               	movlw	high (_DispChars+9)
 13659  00701C  6EF7               	movwf	tblptrh,c
 13660  00701E                     	if	0	;tblptru may be non-zero
 13661  00701E                     	endif
 13662  00701E                     	if	1	;Program memory is > 0xFFFF, there are 3 active tblptr bytes
 13663  00701E  0E00               	movlw	low (__mediumconst shr (0+16))
 13664  007020  6EF8               	movwf	tblptru,c
 13665  007022                     	endif
 13666  007022  0008               	tblrd		*
 13667  007024  CFF5 F033          	movff	tablat,_disp_U1	;volatile
 13668                           
 13669                           ;mini-project-clock.c: 915: Delay10KTCYx(100);
 13670  007028  0E64               	movlw	100
 13671  00702A  EC88  F039         	call	_Delay10KTCYx
 13672                           
 13673                           ;mini-project-clock.c: 916: disp_U2 = 0xFF;
 13674  00702E  6834               	setf	_disp_U2,c	;volatile
 13675                           
 13676                           ;mini-project-clock.c: 917: disp_U1 = 0xFF;
 13677  007030  6833               	setf	_disp_U1,c	;volatile
 13678                           
 13679                           ;mini-project-clock.c: 918: Delay10KTCYx(100);
 13680  007032  0E64               	movlw	100
 13681  007034  EC88  F039         	call	_Delay10KTCYx
 13682  007038  0012               	return		;funcret
 13683  00703A                     __end_of_HrsFlash:
 13684                           	opt stack 0
 13685                           tblptru	equ	0xFF8
 13686                           tblptrh	equ	0xFF7
 13687                           tblptrl	equ	0xFF6
 13688                           tablat	equ	0xFF5
 13689                           prodh	equ	0xFF4
 13690                           prodl	equ	0xFF3
 13691                           intcon	equ	0xFF2
 13692                           intcon2	equ	0xFF1
 13693                           postinc0	equ	0xFEE
 13694                           wreg	equ	0xFE8
 13695                           indf2	equ	0xFDF
 13696                           postinc2	equ	0xFDE
 13697                           postdec2	equ	0xFDD
 13698                           fsr2h	equ	0xFDA
 13699                           fsr2l	equ	0xFD9
 13700                           status	equ	0xFD8
 13701                           
 13702 ;; *************** function _Alarm2Flash *****************
 13703 ;; Defined at:
 13704 ;;		line 1193 in file "mini-project-clock.c"
 13705 ;; Parameters:    Size  Location     Type
 13706 ;;		None
 13707 ;; Auto vars:     Size  Location     Type
 13708 ;;		None
 13709 ;; Return value:  Size  Location     Type
 13710 ;;                  1    wreg      void 
 13711 ;; Registers used:
 13712 ;;		wreg, status,2, status,0, tblptrl, tblptrh, tblptru, cstack
 13713 ;; Tracked objects:
 13714 ;;		On entry : 0/0
 13715 ;;		On exit  : 0/0
 13716 ;;		Unchanged: 0/0
 13717 ;; Data sizes:     COMRAM   BANK0   BANK1   BANK2   BANK3   BANK4   BANK5   BANK6   BANK7   BANK8   BANK9  BANK10  BANK1
      +1  BANK12  BANK13  BANK14  BANK15
 13718 ;;      Params:         0       0       0       0       0       0       0       0       0       0       0       0       
      +0       0       0       0       0
 13719 ;;      Locals:         0       0       0       0       0       0       0       0       0       0       0       0       
      +0       0       0       0       0
 13720 ;;      Temps:          0       0       0       0       0       0       0       0       0       0       0       0       
      +0       0       0       0       0
 13721 ;;      Totals:         0       0       0       0       0       0       0       0       0       0       0       0       
      +0       0       0       0       0
 13722 ;;Total ram usage:        0 bytes
 13723 ;; Hardware stack levels used:    1
 13724 ;; Hardware stack levels required when called:    5
 13725 ;; This function calls:
 13726 ;;		_Delay10KTCYx
 13727 ;; This function is called by:
 13728 ;;		_SetMenu
 13729 ;; This function uses a non-reentrant model
 13730 ;;
 13731                           
 13732                           	psect	text26
 13733  00703A                     __ptext26:
 13734                           	opt stack 0
 13735  00703A                     _Alarm2Flash:
 13736                           	opt stack 24
 13737                           
 13738                           ;mini-project-clock.c: 1194: disp_LEDS &= 0xC0;
 13739                           
 13740                           ;incstack = 0
 13741  00703A  0EC0               	movlw	192
 13742  00703C  164C               	andwf	_disp_LEDS,f,c	;volatile
 13743                           
 13744                           ;mini-project-clock.c: 1195: disp_LEDS |= 0x40;
 13745  00703E  8C4C               	bsf	_disp_LEDS,6,c	;volatile
 13746                           
 13747                           ;mini-project-clock.c: 1196: dp_mask |= (1 << 2);
 13748  007040  844A               	bsf	_dp_mask,2,c	;volatile
 13749                           
 13750                           ;mini-project-clock.c: 1197: disp_U2 = DispChars.A;
 13751  007042  0E01               	movlw	low _DispChars
 13752  007044  6EF6               	movwf	tblptrl,c
 13753  007046                     	if	1	;There is more than 1 active tblptr byte
 13754  007046  0E10               	movlw	high _DispChars
 13755  007048  6EF7               	movwf	tblptrh,c
 13756  00704A                     	endif
 13757  00704A                     	if	1	;There are 3 active tblptr bytes
 13758  00704A  0E00               	movlw	low (_DispChars shr (0+16))
 13759  00704C  6EF8               	movwf	tblptru,c
 13760  00704E                     	endif
 13761  00704E  0008               	tblrd		*
 13762  007050  CFF5 F034          	movff	tablat,_disp_U2	;volatile
 13763                           
 13764                           ;mini-project-clock.c: 1198: disp_U1 = DispNums[2];
 13765  007054  0E36               	movlw	low (_DispNums+2)
 13766  007056  6EF6               	movwf	tblptrl,c
 13767  007058  0E10               	movlw	high (_DispNums+2)
 13768  00705A  6EF7               	movwf	tblptrh,c
 13769  00705C                     	if	0	;tblptru may be non-zero
 13770  00705C                     	endif
 13771  00705C                     	if	1	;Program memory is > 0xFFFF, there are 3 active tblptr bytes
 13772  00705C  0E00               	movlw	low (__mediumconst shr (0+16))
 13773  00705E  6EF8               	movwf	tblptru,c
 13774  007060                     	endif
 13775  007060  0008               	tblrd		*
 13776  007062  CFF5 F033          	movff	tablat,_disp_U1	;volatile
 13777                           
 13778                           ;mini-project-clock.c: 1199: Delay10KTCYx(100);
 13779  007066  0E64               	movlw	100
 13780  007068  EC88  F039         	call	_Delay10KTCYx
 13781                           
 13782                           ;mini-project-clock.c: 1200: disp_U2 = 0xFF;
 13783  00706C  6834               	setf	_disp_U2,c	;volatile
 13784                           
 13785                           ;mini-project-clock.c: 1201: disp_U1 = 0xFF;
 13786  00706E  6833               	setf	_disp_U1,c	;volatile
 13787                           
 13788                           ;mini-project-clock.c: 1202: Delay10KTCYx(100);
 13789  007070  0E64               	movlw	100
 13790  007072  EC88  F039         	call	_Delay10KTCYx
 13791                           
 13792                           ;mini-project-clock.c: 1203: disp_U2 = DispChars.A;
 13793  007076  0E01               	movlw	low _DispChars
 13794  007078  6EF6               	movwf	tblptrl,c
 13795  00707A                     	if	1	;There is more than 1 active tblptr byte
 13796  00707A  0E10               	movlw	high _DispChars
 13797  00707C  6EF7               	movwf	tblptrh,c
 13798  00707E                     	endif
 13799  00707E                     	if	1	;There are 3 active tblptr bytes
 13800  00707E  0E00               	movlw	low (_DispChars shr (0+16))
 13801  007080  6EF8               	movwf	tblptru,c
 13802  007082                     	endif
 13803  007082  0008               	tblrd		*
 13804  007084  CFF5 F034          	movff	tablat,_disp_U2	;volatile
 13805                           
 13806                           ;mini-project-clock.c: 1204: disp_U1 = DispNums[2];
 13807  007088  0E36               	movlw	low (_DispNums+2)
 13808  00708A  6EF6               	movwf	tblptrl,c
 13809  00708C  0E10               	movlw	high (_DispNums+2)
 13810  00708E  6EF7               	movwf	tblptrh,c
 13811  007090                     	if	0	;tblptru may be non-zero
 13812  007090                     	endif
 13813  007090                     	if	1	;Program memory is > 0xFFFF, there are 3 active tblptr bytes
 13814  007090  0E00               	movlw	low (__mediumconst shr (0+16))
 13815  007092  6EF8               	movwf	tblptru,c
 13816  007094                     	endif
 13817  007094  0008               	tblrd		*
 13818  007096  CFF5 F033          	movff	tablat,_disp_U1	;volatile
 13819                           
 13820                           ;mini-project-clock.c: 1205: Delay10KTCYx(100);
 13821  00709A  0E64               	movlw	100
 13822  00709C  EC88  F039         	call	_Delay10KTCYx
 13823                           
 13824                           ;mini-project-clock.c: 1206: disp_U2 = 0xFF;
 13825  0070A0  6834               	setf	_disp_U2,c	;volatile
 13826                           
 13827                           ;mini-project-clock.c: 1207: disp_U1 = 0xFF;
 13828  0070A2  6833               	setf	_disp_U1,c	;volatile
 13829                           
 13830                           ;mini-project-clock.c: 1208: Delay10KTCYx(100);
 13831  0070A4  0E64               	movlw	100
 13832  0070A6  EC88  F039         	call	_Delay10KTCYx
 13833  0070AA  0012               	return		;funcret
 13834  0070AC                     __end_of_Alarm2Flash:
 13835                           	opt stack 0
 13836                           tblptru	equ	0xFF8
 13837                           tblptrh	equ	0xFF7
 13838                           tblptrl	equ	0xFF6
 13839                           tablat	equ	0xFF5
 13840                           prodh	equ	0xFF4
 13841                           prodl	equ	0xFF3
 13842                           intcon	equ	0xFF2
 13843                           intcon2	equ	0xFF1
 13844                           postinc0	equ	0xFEE
 13845                           wreg	equ	0xFE8
 13846                           indf2	equ	0xFDF
 13847                           postinc2	equ	0xFDE
 13848                           postdec2	equ	0xFDD
 13849                           fsr2h	equ	0xFDA
 13850                           fsr2l	equ	0xFD9
 13851                           status	equ	0xFD8
 13852                           
 13853 ;; *************** function _Alarm1Flash *****************
 13854 ;; Defined at:
 13855 ;;		line 975 in file "mini-project-clock.c"
 13856 ;; Parameters:    Size  Location     Type
 13857 ;;		None
 13858 ;; Auto vars:     Size  Location     Type
 13859 ;;		None
 13860 ;; Return value:  Size  Location     Type
 13861 ;;                  1    wreg      void 
 13862 ;; Registers used:
 13863 ;;		wreg, status,2, status,0, tblptrl, tblptrh, tblptru, cstack
 13864 ;; Tracked objects:
 13865 ;;		On entry : 0/0
 13866 ;;		On exit  : 0/0
 13867 ;;		Unchanged: 0/0
 13868 ;; Data sizes:     COMRAM   BANK0   BANK1   BANK2   BANK3   BANK4   BANK5   BANK6   BANK7   BANK8   BANK9  BANK10  BANK1
      +1  BANK12  BANK13  BANK14  BANK15
 13869 ;;      Params:         0       0       0       0       0       0       0       0       0       0       0       0       
      +0       0       0       0       0
 13870 ;;      Locals:         0       0       0       0       0       0       0       0       0       0       0       0       
      +0       0       0       0       0
 13871 ;;      Temps:          0       0       0       0       0       0       0       0       0       0       0       0       
      +0       0       0       0       0
 13872 ;;      Totals:         0       0       0       0       0       0       0       0       0       0       0       0       
      +0       0       0       0       0
 13873 ;;Total ram usage:        0 bytes
 13874 ;; Hardware stack levels used:    1
 13875 ;; Hardware stack levels required when called:    5
 13876 ;; This function calls:
 13877 ;;		_Delay10KTCYx
 13878 ;; This function is called by:
 13879 ;;		_SetMenu
 13880 ;; This function uses a non-reentrant model
 13881 ;;
 13882                           
 13883                           	psect	text27
 13884  0070AC                     __ptext27:
 13885                           	opt stack 0
 13886  0070AC                     _Alarm1Flash:
 13887                           	opt stack 24
 13888                           
 13889                           ;mini-project-clock.c: 976: disp_LEDS &= 0xC0;
 13890                           
 13891                           ;incstack = 0
 13892  0070AC  0EC0               	movlw	192
 13893  0070AE  164C               	andwf	_disp_LEDS,f,c	;volatile
 13894                           
 13895                           ;mini-project-clock.c: 977: disp_LEDS |= 0x80;
 13896  0070B0  8E4C               	bsf	_disp_LEDS,7,c	;volatile
 13897                           
 13898                           ;mini-project-clock.c: 978: dp_mask |= (1 << 2);
 13899  0070B2  844A               	bsf	_dp_mask,2,c	;volatile
 13900                           
 13901                           ;mini-project-clock.c: 979: disp_U2 = DispChars.A;
 13902  0070B4  0E01               	movlw	low _DispChars
 13903  0070B6  6EF6               	movwf	tblptrl,c
 13904  0070B8                     	if	1	;There is more than 1 active tblptr byte
 13905  0070B8  0E10               	movlw	high _DispChars
 13906  0070BA  6EF7               	movwf	tblptrh,c
 13907  0070BC                     	endif
 13908  0070BC                     	if	1	;There are 3 active tblptr bytes
 13909  0070BC  0E00               	movlw	low (_DispChars shr (0+16))
 13910  0070BE  6EF8               	movwf	tblptru,c
 13911  0070C0                     	endif
 13912  0070C0  0008               	tblrd		*
 13913  0070C2  CFF5 F034          	movff	tablat,_disp_U2	;volatile
 13914                           
 13915                           ;mini-project-clock.c: 980: disp_U1 = DispNums[1];
 13916  0070C6  0E35               	movlw	low (_DispNums+1)
 13917  0070C8  6EF6               	movwf	tblptrl,c
 13918  0070CA  0E10               	movlw	high (_DispNums+1)
 13919  0070CC  6EF7               	movwf	tblptrh,c
 13920  0070CE                     	if	0	;tblptru may be non-zero
 13921  0070CE                     	endif
 13922  0070CE                     	if	1	;Program memory is > 0xFFFF, there are 3 active tblptr bytes
 13923  0070CE  0E00               	movlw	low (__mediumconst shr (0+16))
 13924  0070D0  6EF8               	movwf	tblptru,c
 13925  0070D2                     	endif
 13926  0070D2  0008               	tblrd		*
 13927  0070D4  CFF5 F033          	movff	tablat,_disp_U1	;volatile
 13928                           
 13929                           ;mini-project-clock.c: 981: Delay10KTCYx(100);
 13930  0070D8  0E64               	movlw	100
 13931  0070DA  EC88  F039         	call	_Delay10KTCYx
 13932                           
 13933                           ;mini-project-clock.c: 982: disp_U2 = 0xFF;
 13934  0070DE  6834               	setf	_disp_U2,c	;volatile
 13935                           
 13936                           ;mini-project-clock.c: 983: disp_U1 = 0xFF;
 13937  0070E0  6833               	setf	_disp_U1,c	;volatile
 13938                           
 13939                           ;mini-project-clock.c: 984: Delay10KTCYx(100);
 13940  0070E2  0E64               	movlw	100
 13941  0070E4  EC88  F039         	call	_Delay10KTCYx
 13942                           
 13943                           ;mini-project-clock.c: 985: disp_U2 = DispChars.A;
 13944  0070E8  0E01               	movlw	low _DispChars
 13945  0070EA  6EF6               	movwf	tblptrl,c
 13946  0070EC                     	if	1	;There is more than 1 active tblptr byte
 13947  0070EC  0E10               	movlw	high _DispChars
 13948  0070EE  6EF7               	movwf	tblptrh,c
 13949  0070F0                     	endif
 13950  0070F0                     	if	1	;There are 3 active tblptr bytes
 13951  0070F0  0E00               	movlw	low (_DispChars shr (0+16))
 13952  0070F2  6EF8               	movwf	tblptru,c
 13953  0070F4                     	endif
 13954  0070F4  0008               	tblrd		*
 13955  0070F6  CFF5 F034          	movff	tablat,_disp_U2	;volatile
 13956                           
 13957                           ;mini-project-clock.c: 986: disp_U1 = DispNums[1];
 13958  0070FA  0E35               	movlw	low (_DispNums+1)
 13959  0070FC  6EF6               	movwf	tblptrl,c
 13960  0070FE  0E10               	movlw	high (_DispNums+1)
 13961  007100  6EF7               	movwf	tblptrh,c
 13962  007102                     	if	0	;tblptru may be non-zero
 13963  007102                     	endif
 13964  007102                     	if	1	;Program memory is > 0xFFFF, there are 3 active tblptr bytes
 13965  007102  0E00               	movlw	low (__mediumconst shr (0+16))
 13966  007104  6EF8               	movwf	tblptru,c
 13967  007106                     	endif
 13968  007106  0008               	tblrd		*
 13969  007108  CFF5 F033          	movff	tablat,_disp_U1	;volatile
 13970                           
 13971                           ;mini-project-clock.c: 987: Delay10KTCYx(100);
 13972  00710C  0E64               	movlw	100
 13973  00710E  EC88  F039         	call	_Delay10KTCYx
 13974                           
 13975                           ;mini-project-clock.c: 988: disp_U2 = 0xFF;
 13976  007112  6834               	setf	_disp_U2,c	;volatile
 13977                           
 13978                           ;mini-project-clock.c: 989: disp_U1 = 0xFF;
 13979  007114  6833               	setf	_disp_U1,c	;volatile
 13980                           
 13981                           ;mini-project-clock.c: 990: Delay10KTCYx(100);
 13982  007116  0E64               	movlw	100
 13983  007118  EC88  F039         	call	_Delay10KTCYx
 13984  00711C  0012               	return		;funcret
 13985  00711E                     __end_of_Alarm1Flash:
 13986                           	opt stack 0
 13987                           tblptru	equ	0xFF8
 13988                           tblptrh	equ	0xFF7
 13989                           tblptrl	equ	0xFF6
 13990                           tablat	equ	0xFF5
 13991                           prodh	equ	0xFF4
 13992                           prodl	equ	0xFF3
 13993                           intcon	equ	0xFF2
 13994                           intcon2	equ	0xFF1
 13995                           postinc0	equ	0xFEE
 13996                           wreg	equ	0xFE8
 13997                           indf2	equ	0xFDF
 13998                           postinc2	equ	0xFDE
 13999                           postdec2	equ	0xFDD
 14000                           fsr2h	equ	0xFDA
 14001                           fsr2l	equ	0xFD9
 14002                           status	equ	0xFD8
 14003                           
 14004 ;; *************** function _CurrentDisplay *****************
 14005 ;; Defined at:
 14006 ;;		line 456 in file "mini-project-clock.c"
 14007 ;; Parameters:    Size  Location     Type
 14008 ;;  i               2   13[BANK0 ] PTR unsigned char 
 14009 ;;		 -> disp_index(1), 
 14010 ;; Auto vars:     Size  Location     Type
 14011 ;;		None
 14012 ;; Return value:  Size  Location     Type
 14013 ;;                  1    wreg      void 
 14014 ;; Registers used:
 14015 ;;		wreg, fsr2l, fsr2h, status,2, status,0, tblptrl, tblptrh, tblptru, prodl, prodh, cstack
 14016 ;; Tracked objects:
 14017 ;;		On entry : 0/0
 14018 ;;		On exit  : 0/0
 14019 ;;		Unchanged: 0/0
 14020 ;; Data sizes:     COMRAM   BANK0   BANK1   BANK2   BANK3   BANK4   BANK5   BANK6   BANK7   BANK8   BANK9  BANK10  BANK1
      +1  BANK12  BANK13  BANK14  BANK15
 14021 ;;      Params:         0       2       0       0       0       0       0       0       0       0       0       0       
      +0       0       0       0       0
 14022 ;;      Locals:         0       0       0       0       0       0       0       0       0       0       0       0       
      +0       0       0       0       0
 14023 ;;      Temps:          0       0       0       0       0       0       0       0       0       0       0       0       
      +0       0       0       0       0
 14024 ;;      Totals:         0       2       0       0       0       0       0       0       0       0       0       0       
      +0       0       0       0       0
 14025 ;;Total ram usage:        2 bytes
 14026 ;; Hardware stack levels used:    1
 14027 ;; Hardware stack levels required when called:    6
 14028 ;; This function calls:
 14029 ;;		_Num2Disp
 14030 ;; This function is called by:
 14031 ;;		_main
 14032 ;; This function uses a non-reentrant model
 14033 ;;
 14034                           
 14035                           	psect	text28
 14036  0065AA                     __ptext28:
 14037                           	opt stack 0
 14038  0065AA                     _CurrentDisplay:
 14039                           	opt stack 24
 14040                           
 14041                           ;mini-project-clock.c: 457: switch(*i) {
 14042                           
 14043                           ;incstack = 0
 14044  0065AA  D057               	goto	l12980
 14045  0065AC                     l12950:
 14046                           
 14047                           ;mini-project-clock.c: 459: Num2Disp(&MainDate.day);
 14048  0065AC  0E3B               	movlw	low _MainDate
 14049  0065AE  0100               	movlb	0	; () banked
 14050  0065B0  6F68               	movwf	Num2Disp@time& (0+255),b
 14051  0065B2  0E00               	movlw	high _MainDate
 14052  0065B4  0100               	movlb	0	; () banked
 14053  0065B6  6F69               	movwf	(Num2Disp@time+1)& (0+255),b
 14054  0065B8  EC89  F034         	call	_Num2Disp	;wreg free
 14055                           
 14056                           ;mini-project-clock.c: 460: disp_LEDS = 0x20;
 14057  0065BC  0E20               	movlw	32
 14058  0065BE  6E4C               	movwf	_disp_LEDS,c	;volatile
 14059                           
 14060                           ;mini-project-clock.c: 461: break;
 14061  0065C0  0012               	return	
 14062  0065C2                     l12954:
 14063                           
 14064                           ;mini-project-clock.c: 463: Num2Disp(&MainDate.month);
 14065  0065C2  0E3C               	movlw	low (_MainDate+1)
 14066  0065C4  0100               	movlb	0	; () banked
 14067  0065C6  6F68               	movwf	Num2Disp@time& (0+255),b
 14068  0065C8  0E00               	movlw	high (_MainDate+1)
 14069  0065CA  0100               	movlb	0	; () banked
 14070  0065CC  6F69               	movwf	(Num2Disp@time+1)& (0+255),b
 14071  0065CE  EC89  F034         	call	_Num2Disp	;wreg free
 14072                           
 14073                           ;mini-project-clock.c: 464: disp_LEDS = 0x10;
 14074  0065D2  0E10               	movlw	16
 14075  0065D4  6E4C               	movwf	_disp_LEDS,c	;volatile
 14076                           
 14077                           ;mini-project-clock.c: 465: break;
 14078  0065D6  0012               	return	
 14079  0065D8                     l12958:
 14080                           
 14081                           ;mini-project-clock.c: 467: Num2Disp(&MainDate.year_short);
 14082  0065D8  0E3D               	movlw	low (_MainDate+2)
 14083  0065DA  0100               	movlb	0	; () banked
 14084  0065DC  6F68               	movwf	Num2Disp@time& (0+255),b
 14085  0065DE  0E00               	movlw	high (_MainDate+2)
 14086  0065E0  0100               	movlb	0	; () banked
 14087  0065E2  6F69               	movwf	(Num2Disp@time+1)& (0+255),b
 14088  0065E4  EC89  F034         	call	_Num2Disp	;wreg free
 14089                           
 14090                           ;mini-project-clock.c: 468: disp_LEDS = 0x08;
 14091  0065E8  0E08               	movlw	8
 14092  0065EA  6E4C               	movwf	_disp_LEDS,c	;volatile
 14093                           
 14094                           ;mini-project-clock.c: 469: break;
 14095  0065EC  0012               	return	
 14096  0065EE                     l12962:
 14097                           
 14098                           ;mini-project-clock.c: 471: Num2Disp(&MainTime.hrs);
 14099  0065EE  0E46               	movlw	low _MainTime
 14100  0065F0  0100               	movlb	0	; () banked
 14101  0065F2  6F68               	movwf	Num2Disp@time& (0+255),b
 14102  0065F4  0E00               	movlw	high _MainTime
 14103  0065F6  0100               	movlb	0	; () banked
 14104  0065F8  6F69               	movwf	(Num2Disp@time+1)& (0+255),b
 14105  0065FA  EC89  F034         	call	_Num2Disp	;wreg free
 14106                           
 14107                           ;mini-project-clock.c: 472: disp_LEDS = 0x04;
 14108  0065FE  0E04               	movlw	4
 14109  006600  6E4C               	movwf	_disp_LEDS,c	;volatile
 14110                           
 14111                           ;mini-project-clock.c: 473: break;
 14112  006602  0012               	return	
 14113  006604                     l12966:
 14114                           
 14115                           ;mini-project-clock.c: 475: Num2Disp(&MainTime.mins);
 14116  006604  0E47               	movlw	low (_MainTime+1)
 14117  006606  0100               	movlb	0	; () banked
 14118  006608  6F68               	movwf	Num2Disp@time& (0+255),b
 14119  00660A  0E00               	movlw	high (_MainTime+1)
 14120  00660C  0100               	movlb	0	; () banked
 14121  00660E  6F69               	movwf	(Num2Disp@time+1)& (0+255),b
 14122  006610  EC89  F034         	call	_Num2Disp	;wreg free
 14123                           
 14124                           ;mini-project-clock.c: 476: disp_LEDS = 0x02;
 14125  006614  0E02               	movlw	2
 14126  006616  6E4C               	movwf	_disp_LEDS,c	;volatile
 14127                           
 14128                           ;mini-project-clock.c: 477: break;
 14129  006618  0012               	return	
 14130  00661A                     l12970:
 14131                           
 14132                           ;mini-project-clock.c: 479: Num2Disp(&MainTime.secs);
 14133  00661A  0E48               	movlw	low (_MainTime+2)
 14134  00661C  0100               	movlb	0	; () banked
 14135  00661E  6F68               	movwf	Num2Disp@time& (0+255),b
 14136  006620  0E00               	movlw	high (_MainTime+2)
 14137  006622  0100               	movlb	0	; () banked
 14138  006624  6F69               	movwf	(Num2Disp@time+1)& (0+255),b
 14139  006626  EC89  F034         	call	_Num2Disp	;wreg free
 14140                           
 14141                           ;mini-project-clock.c: 480: disp_LEDS = 0x01;
 14142  00662A  0E01               	movlw	1
 14143  00662C  6E4C               	movwf	_disp_LEDS,c	;volatile
 14144                           
 14145                           ;mini-project-clock.c: 481: break;
 14146  00662E  0012               	return	
 14147  006630                     l12974:
 14148                           
 14149                           ;mini-project-clock.c: 483: disp_U2 = DispChars.E;
 14150  006630  0E06               	movlw	low (_DispChars+5)
 14151  006632  6EF6               	movwf	tblptrl,c
 14152  006634  0E10               	movlw	high (_DispChars+5)
 14153  006636  6EF7               	movwf	tblptrh,c
 14154  006638                     	if	0	;tblptru may be non-zero
 14155  006638                     	endif
 14156  006638                     	if	1	;Program memory is > 0xFFFF, there are 3 active tblptr bytes
 14157  006638  0E00               	movlw	low (__mediumconst shr (0+16))
 14158  00663A  6EF8               	movwf	tblptru,c
 14159  00663C                     	endif
 14160  00663C  0008               	tblrd		*
 14161  00663E  CFF5 F034          	movff	tablat,_disp_U2	;volatile
 14162                           
 14163                           ;mini-project-clock.c: 484: disp_U1 = DispChars.r;
 14164  006642  0E13               	movlw	low (_DispChars+18)
 14165  006644  6EF6               	movwf	tblptrl,c
 14166  006646  0E10               	movlw	high (_DispChars+18)
 14167  006648  6EF7               	movwf	tblptrh,c
 14168  00664A                     	if	0	;tblptru may be non-zero
 14169  00664A                     	endif
 14170  00664A                     	if	1	;Program memory is > 0xFFFF, there are 3 active tblptr bytes
 14171  00664A  0E00               	movlw	low (__mediumconst shr (0+16))
 14172  00664C  6EF8               	movwf	tblptru,c
 14173  00664E                     	endif
 14174  00664E  0008               	tblrd		*
 14175  006650  CFF5 F033          	movff	tablat,_disp_U1	;volatile
 14176                           
 14177                           ;mini-project-clock.c: 485: disp_LEDS = 0x03;
 14178  006654  0E03               	movlw	3
 14179  006656  6E4C               	movwf	_disp_LEDS,c	;volatile
 14180                           
 14181                           ;mini-project-clock.c: 487: }
 14182                           
 14183                           ;mini-project-clock.c: 486: break;
 14184  006658  0012               	return	
 14185  00665A                     l12980:
 14186  00665A  C06D  FFD9         	movff	CurrentDisplay@i,fsr2l
 14187  00665E  C06E  FFDA         	movff	CurrentDisplay@i+1,fsr2h
 14188  006662  50DF               	movf	indf2,w,c
 14189                           
 14190                           ; Switch size 1, requested type "space"
 14191                           ; Number of cases is 6, Range of values is 0 to 5
 14192                           ; switch strategies available:
 14193                           ; Name         Instructions Cycles
 14194                           ; simple_byte           19    10 (average)
 14195                           ;	Chosen strategy is simple_byte
 14196  006664  0A00               	xorlw	0	; case 0
 14197  006666  B4D8               	btfsc	status,2,c
 14198  006668  D7A1               	goto	l12950
 14199  00666A  0A01               	xorlw	1	; case 1
 14200  00666C  B4D8               	btfsc	status,2,c
 14201  00666E  D7A9               	goto	l12954
 14202  006670  0A03               	xorlw	3	; case 2
 14203  006672  B4D8               	btfsc	status,2,c
 14204  006674  D7B1               	goto	l12958
 14205  006676  0A01               	xorlw	1	; case 3
 14206  006678  B4D8               	btfsc	status,2,c
 14207  00667A  D7B9               	goto	l12962
 14208  00667C  0A07               	xorlw	7	; case 4
 14209  00667E  B4D8               	btfsc	status,2,c
 14210  006680  D7C1               	goto	l12966
 14211  006682  0A01               	xorlw	1	; case 5
 14212  006684  B4D8               	btfsc	status,2,c
 14213  006686  D7C9               	goto	l12970
 14214  006688  D7D3               	goto	l12974
 14215  00668A                     __end_of_CurrentDisplay:
 14216                           	opt stack 0
 14217                           tblptru	equ	0xFF8
 14218                           tblptrh	equ	0xFF7
 14219                           tblptrl	equ	0xFF6
 14220                           tablat	equ	0xFF5
 14221                           prodh	equ	0xFF4
 14222                           prodl	equ	0xFF3
 14223                           intcon	equ	0xFF2
 14224                           intcon2	equ	0xFF1
 14225                           postinc0	equ	0xFEE
 14226                           wreg	equ	0xFE8
 14227                           indf2	equ	0xFDF
 14228                           postinc2	equ	0xFDE
 14229                           postdec2	equ	0xFDD
 14230                           fsr2h	equ	0xFDA
 14231                           fsr2l	equ	0xFD9
 14232                           status	equ	0xFD8
 14233                           
 14234 ;; *************** function _Num2Disp *****************
 14235 ;; Defined at:
 14236 ;;		line 439 in file "mini-project-clock.c"
 14237 ;; Parameters:    Size  Location     Type
 14238 ;;  time            2    8[BANK0 ] PTR volatile unsigned ch
 14239 ;;		 -> Alarm2Date(5), Alarm2Time(3), Alarm1Time(3), MainDate(5), 
 14240 ;;		 -> MainTime(3), 
 14241 ;; Auto vars:     Size  Location     Type
 14242 ;;  units           1   12[BANK0 ] unsigned char 
 14243 ;;  tens            1   11[BANK0 ] unsigned char 
 14244 ;; Return value:  Size  Location     Type
 14245 ;;                  1    wreg      void 
 14246 ;; Registers used:
 14247 ;;		wreg, fsr2l, fsr2h, status,2, status,0, tblptrl, tblptrh, tblptru, prodl, prodh, cstack
 14248 ;; Tracked objects:
 14249 ;;		On entry : 0/0
 14250 ;;		On exit  : 0/0
 14251 ;;		Unchanged: 0/0
 14252 ;; Data sizes:     COMRAM   BANK0   BANK1   BANK2   BANK3   BANK4   BANK5   BANK6   BANK7   BANK8   BANK9  BANK10  BANK1
      +1  BANK12  BANK13  BANK14  BANK15
 14253 ;;      Params:         0       2       0       0       0       0       0       0       0       0       0       0       
      +0       0       0       0       0
 14254 ;;      Locals:         0       2       0       0       0       0       0       0       0       0       0       0       
      +0       0       0       0       0
 14255 ;;      Temps:          0       1       0       0       0       0       0       0       0       0       0       0       
      +0       0       0       0       0
 14256 ;;      Totals:         0       5       0       0       0       0       0       0       0       0       0       0       
      +0       0       0       0       0
 14257 ;;Total ram usage:        5 bytes
 14258 ;; Hardware stack levels used:    1
 14259 ;; Hardware stack levels required when called:    5
 14260 ;; This function calls:
 14261 ;;		___awdiv
 14262 ;;		___awmod
 14263 ;; This function is called by:
 14264 ;;		_CurrentDisplay
 14265 ;;		_SetMenu
 14266 ;;		_SetAlarm1
 14267 ;;		_SetAlarm2
 14268 ;; This function uses a non-reentrant model
 14269 ;;
 14270                           
 14271                           	psect	text29
 14272  006912                     __ptext29:
 14273                           	opt stack 0
 14274  006912                     _Num2Disp:
 14275                           	opt stack 23
 14276                           
 14277                           ;mini-project-clock.c: 440: char tens, units;
 14278                           ;mini-project-clock.c: 441: if(*time > 99) {
 14279                           
 14280                           ;incstack = 0
 14281  006912  C068  FFD9         	movff	Num2Disp@time,fsr2l
 14282  006916  C069  FFDA         	movff	Num2Disp@time+1,fsr2h
 14283  00691A  0E63               	movlw	99
 14284  00691C  64DF               	cpfsgt	indf2,c
 14285  00691E  D015               	goto	l12232
 14286                           
 14287                           ;mini-project-clock.c: 442: disp_U1 = DispChars.r;
 14288  006920  0E13               	movlw	low (_DispChars+18)
 14289  006922  6EF6               	movwf	tblptrl,c
 14290  006924  0E10               	movlw	high (_DispChars+18)
 14291  006926  6EF7               	movwf	tblptrh,c
 14292  006928                     	if	0	;tblptru may be non-zero
 14293  006928                     	endif
 14294  006928                     	if	1	;Program memory is > 0xFFFF, there are 3 active tblptr bytes
 14295  006928  0E00               	movlw	low (__mediumconst shr (0+16))
 14296  00692A  6EF8               	movwf	tblptru,c
 14297  00692C                     	endif
 14298  00692C  0008               	tblrd		*
 14299  00692E  CFF5 F033          	movff	tablat,_disp_U1	;volatile
 14300                           
 14301                           ;mini-project-clock.c: 443: disp_U2 = DispChars.E;
 14302  006932  0E06               	movlw	low (_DispChars+5)
 14303  006934  6EF6               	movwf	tblptrl,c
 14304  006936  0E10               	movlw	high (_DispChars+5)
 14305  006938  6EF7               	movwf	tblptrh,c
 14306  00693A                     	if	0	;tblptru may be non-zero
 14307  00693A                     	endif
 14308  00693A                     	if	1	;Program memory is > 0xFFFF, there are 3 active tblptr bytes
 14309  00693A  0E00               	movlw	low (__mediumconst shr (0+16))
 14310  00693C  6EF8               	movwf	tblptru,c
 14311  00693E                     	endif
 14312  00693E  0008               	tblrd		*
 14313  006940  CFF5 F034          	movff	tablat,_disp_U2	;volatile
 14314                           
 14315                           ;mini-project-clock.c: 444: disp_LEDS = 0x01;
 14316  006944  0E01               	movlw	1
 14317  006946  6E4C               	movwf	_disp_LEDS,c	;volatile
 14318                           
 14319                           ;mini-project-clock.c: 446: }
 14320                           
 14321                           ;mini-project-clock.c: 445: return;
 14322  006948  0012               	return	
 14323  00694A                     l12232:
 14324                           
 14325                           ;mini-project-clock.c: 447: else {
 14326                           ;mini-project-clock.c: 448: tens = *time / 10;
 14327  00694A  C068  FFD9         	movff	Num2Disp@time,fsr2l
 14328  00694E  C069  FFDA         	movff	Num2Disp@time+1,fsr2h
 14329  006952  50DF               	movf	indf2,w,c
 14330  006954  0100               	movlb	0	; () banked
 14331  006956  6F6A               	movwf	??_Num2Disp& (0+255),b
 14332  006958  0100               	movlb	0	; () banked
 14333  00695A  516A               	movf	??_Num2Disp& (0+255),w,b
 14334  00695C  0100               	movlb	0	; () banked
 14335  00695E  6F60               	movwf	___awdiv@dividend& (0+255),b
 14336  006960  6B61               	clrf	(___awdiv@dividend+1)& (0+255),b
 14337  006962  0E00               	movlw	0
 14338  006964  0100               	movlb	0	; () banked
 14339  006966  6F63               	movwf	(___awdiv@divisor+1)& (0+255),b
 14340  006968  0E0A               	movlw	10
 14341  00696A  6F62               	movwf	___awdiv@divisor& (0+255),b
 14342  00696C  ECF2  F034         	call	___awdiv	;wreg free
 14343  006970  0100               	movlb	0	; () banked
 14344  006972  5160               	movf	?___awdiv& (0+255),w,b
 14345  006974  0100               	movlb	0	; () banked
 14346  006976  6F6B               	movwf	Num2Disp@tens& (0+255),b
 14347                           
 14348                           ;mini-project-clock.c: 449: units = *time % 10;
 14349  006978  C068  FFD9         	movff	Num2Disp@time,fsr2l
 14350  00697C  C069  FFDA         	movff	Num2Disp@time+1,fsr2h
 14351  006980  50DF               	movf	indf2,w,c
 14352  006982  0100               	movlb	0	; () banked
 14353  006984  6F6A               	movwf	??_Num2Disp& (0+255),b
 14354  006986  0100               	movlb	0	; () banked
 14355  006988  516A               	movf	??_Num2Disp& (0+255),w,b
 14356  00698A  0100               	movlb	0	; () banked
 14357  00698C  6F60               	movwf	___awmod@dividend& (0+255),b
 14358  00698E  6B61               	clrf	(___awmod@dividend+1)& (0+255),b
 14359  006990  0E00               	movlw	0
 14360  006992  0100               	movlb	0	; () banked
 14361  006994  6F63               	movwf	(___awmod@divisor+1)& (0+255),b
 14362  006996  0E0A               	movlw	10
 14363  006998  6F62               	movwf	___awmod@divisor& (0+255),b
 14364  00699A  ECF9  F035         	call	___awmod	;wreg free
 14365  00699E  0100               	movlb	0	; () banked
 14366  0069A0  5160               	movf	?___awmod& (0+255),w,b
 14367  0069A2  0100               	movlb	0	; () banked
 14368  0069A4  6F6C               	movwf	Num2Disp@units& (0+255),b
 14369                           
 14370                           ; BSR set to: 0
 14371                           ;mini-project-clock.c: 450: disp_U2 = DispNums[tens];
 14372  0069A6  0100               	movlb	0	; () banked
 14373  0069A8  516B               	movf	Num2Disp@tens& (0+255),w,b
 14374  0069AA  0D01               	mullw	1
 14375  0069AC  0E34               	movlw	low _DispNums
 14376  0069AE  24F3               	addwf	prodl,w,c
 14377  0069B0  6EF6               	movwf	tblptrl,c
 14378  0069B2  0E10               	movlw	high _DispNums
 14379  0069B4  20F4               	addwfc	prodh,w,c
 14380  0069B6  6EF7               	movwf	tblptrh,c
 14381  0069B8                     	if	1	;There are 3 active tblptr bytes
 14382  0069B8  6AF8               	clrf	tblptru,c
 14383  0069BA  0E00               	movlw	low (__mediumconst shr (0+16))
 14384  0069BC  22F8               	addwfc	tblptru,f,c
 14385  0069BE                     	endif
 14386  0069BE  0008               	tblrd		*
 14387  0069C0  CFF5 F034          	movff	tablat,_disp_U2	;volatile
 14388                           
 14389                           ; BSR set to: 0
 14390                           ;mini-project-clock.c: 451: disp_U1 = DispNums[units];
 14391  0069C4  0100               	movlb	0	; () banked
 14392  0069C6  516C               	movf	Num2Disp@units& (0+255),w,b
 14393  0069C8  0D01               	mullw	1
 14394  0069CA  0E34               	movlw	low _DispNums
 14395  0069CC  24F3               	addwf	prodl,w,c
 14396  0069CE  6EF6               	movwf	tblptrl,c
 14397  0069D0  0E10               	movlw	high _DispNums
 14398  0069D2  20F4               	addwfc	prodh,w,c
 14399  0069D4  6EF7               	movwf	tblptrh,c
 14400  0069D6                     	if	1	;There are 3 active tblptr bytes
 14401  0069D6  6AF8               	clrf	tblptru,c
 14402  0069D8  0E00               	movlw	low (__mediumconst shr (0+16))
 14403  0069DA  22F8               	addwfc	tblptru,f,c
 14404  0069DC                     	endif
 14405  0069DC  0008               	tblrd		*
 14406  0069DE  CFF5 F033          	movff	tablat,_disp_U1	;volatile
 14407                           
 14408                           ; BSR set to: 0
 14409                           ;mini-project-clock.c: 452: return;
 14410  0069E2  0012               	return	
 14411  0069E4                     __end_of_Num2Disp:
 14412                           	opt stack 0
 14413                           tblptru	equ	0xFF8
 14414                           tblptrh	equ	0xFF7
 14415                           tblptrl	equ	0xFF6
 14416                           tablat	equ	0xFF5
 14417                           prodh	equ	0xFF4
 14418                           prodl	equ	0xFF3
 14419                           intcon	equ	0xFF2
 14420                           intcon2	equ	0xFF1
 14421                           postinc0	equ	0xFEE
 14422                           wreg	equ	0xFE8
 14423                           indf2	equ	0xFDF
 14424                           postinc2	equ	0xFDE
 14425                           postdec2	equ	0xFDD
 14426                           fsr2h	equ	0xFDA
 14427                           fsr2l	equ	0xFD9
 14428                           status	equ	0xFD8
 14429                           
 14430 ;; *************** function ___awmod *****************
 14431 ;; Defined at:
 14432 ;;		line 8 in file "C:\Program Files (x86)\Microchip\xc8\v1.38\sources\common\awmod.c"
 14433 ;; Parameters:    Size  Location     Type
 14434 ;;  dividend        2    0[BANK0 ] int 
 14435 ;;  divisor         2    2[BANK0 ] int 
 14436 ;; Auto vars:     Size  Location     Type
 14437 ;;  sign            1    5[BANK0 ] unsigned char 
 14438 ;;  counter         1    4[BANK0 ] unsigned char 
 14439 ;; Return value:  Size  Location     Type
 14440 ;;                  2    0[BANK0 ] int 
 14441 ;; Registers used:
 14442 ;;		wreg, status,2, status,0
 14443 ;; Tracked objects:
 14444 ;;		On entry : 0/0
 14445 ;;		On exit  : 0/0
 14446 ;;		Unchanged: 0/0
 14447 ;; Data sizes:     COMRAM   BANK0   BANK1   BANK2   BANK3   BANK4   BANK5   BANK6   BANK7   BANK8   BANK9  BANK10  BANK1
      +1  BANK12  BANK13  BANK14  BANK15
 14448 ;;      Params:         0       4       0       0       0       0       0       0       0       0       0       0       
      +0       0       0       0       0
 14449 ;;      Locals:         0       2       0       0       0       0       0       0       0       0       0       0       
      +0       0       0       0       0
 14450 ;;      Temps:          0       0       0       0       0       0       0       0       0       0       0       0       
      +0       0       0       0       0
 14451 ;;      Totals:         0       6       0       0       0       0       0       0       0       0       0       0       
      +0       0       0       0       0
 14452 ;;Total ram usage:        6 bytes
 14453 ;; Hardware stack levels used:    1
 14454 ;; Hardware stack levels required when called:    4
 14455 ;; This function calls:
 14456 ;;		Nothing
 14457 ;; This function is called by:
 14458 ;;		_Num2Disp
 14459 ;; This function uses a non-reentrant model
 14460 ;;
 14461                           
 14462                           	psect	text30
 14463  006BF2                     __ptext30:
 14464                           	opt stack 0
 14465  006BF2                     ___awmod:
 14466                           	opt stack 23
 14467                           
 14468                           ;incstack = 0
 14469  006BF2  0E00               	movlw	0
 14470  006BF4  0100               	movlb	0	; () banked
 14471  006BF6  6F65               	movwf	___awmod@sign& (0+255),b
 14472                           
 14473                           ; BSR set to: 0
 14474  006BF8  0100               	movlb	0	; () banked
 14475  006BFA  AF61               	btfss	(___awmod@dividend+1)& (0+255),7,b
 14476  006BFC  D008               	goto	l12184
 14477                           
 14478                           ; BSR set to: 0
 14479  006BFE  0100               	movlb	0	; () banked
 14480  006C00  6D60               	negf	___awmod@dividend& (0+255),b
 14481  006C02  1F61               	comf	(___awmod@dividend+1)& (0+255),f,b
 14482  006C04  B0D8               	btfsc	status,0,c
 14483  006C06  2B61               	incf	(___awmod@dividend+1)& (0+255),f,b
 14484                           
 14485                           ; BSR set to: 0
 14486  006C08  0E01               	movlw	1
 14487  006C0A  0100               	movlb	0	; () banked
 14488  006C0C  6F65               	movwf	___awmod@sign& (0+255),b
 14489  006C0E                     l12184:
 14490                           
 14491                           ; BSR set to: 0
 14492  006C0E  0100               	movlb	0	; () banked
 14493  006C10  AF63               	btfss	(___awmod@divisor+1)& (0+255),7,b
 14494  006C12  D005               	goto	l12188
 14495                           
 14496                           ; BSR set to: 0
 14497  006C14  0100               	movlb	0	; () banked
 14498  006C16  6D62               	negf	___awmod@divisor& (0+255),b
 14499  006C18  1F63               	comf	(___awmod@divisor+1)& (0+255),f,b
 14500  006C1A  B0D8               	btfsc	status,0,c
 14501  006C1C  2B63               	incf	(___awmod@divisor+1)& (0+255),f,b
 14502  006C1E                     l12188:
 14503                           
 14504                           ; BSR set to: 0
 14505  006C1E  0100               	movlb	0	; () banked
 14506  006C20  5162               	movf	___awmod@divisor& (0+255),w,b
 14507  006C22  0100               	movlb	0	; () banked
 14508  006C24  1163               	iorwf	(___awmod@divisor+1)& (0+255),w,b
 14509  006C26  B4D8               	btfsc	status,2,c
 14510  006C28  D026               	goto	l12204
 14511                           
 14512                           ; BSR set to: 0
 14513  006C2A  0E01               	movlw	1
 14514  006C2C  0100               	movlb	0	; () banked
 14515  006C2E  6F64               	movwf	___awmod@counter& (0+255),b
 14516  006C30  D006               	goto	l12194
 14517  006C32                     l12192:
 14518                           
 14519                           ; BSR set to: 0
 14520  006C32  0100               	movlb	0	; () banked
 14521  006C34  90D8               	bcf	status,0,c
 14522  006C36  3762               	rlcf	___awmod@divisor& (0+255),f,b
 14523  006C38  3763               	rlcf	(___awmod@divisor+1)& (0+255),f,b
 14524  006C3A  0100               	movlb	0	; () banked
 14525  006C3C  2B64               	incf	___awmod@counter& (0+255),f,b
 14526  006C3E                     l12194:
 14527                           
 14528                           ; BSR set to: 0
 14529  006C3E  0100               	movlb	0	; () banked
 14530  006C40  AF63               	btfss	(___awmod@divisor+1)& (0+255),7,b
 14531  006C42  D7F7               	goto	l12192
 14532  006C44                     l12196:
 14533                           
 14534                           ; BSR set to: 0
 14535  006C44  0100               	movlb	0	; () banked
 14536  006C46  5162               	movf	___awmod@divisor& (0+255),w,b
 14537  006C48  0100               	movlb	0	; () banked
 14538  006C4A  5D60               	subwf	___awmod@dividend& (0+255),w,b
 14539  006C4C  0100               	movlb	0	; () banked
 14540  006C4E  5163               	movf	(___awmod@divisor+1)& (0+255),w,b
 14541  006C50  0100               	movlb	0	; () banked
 14542  006C52  5961               	subwfb	(___awmod@dividend+1)& (0+255),w,b
 14543  006C54  A0D8               	btfss	status,0,c
 14544  006C56  D008               	goto	l12200
 14545                           
 14546                           ; BSR set to: 0
 14547  006C58  0100               	movlb	0	; () banked
 14548  006C5A  5162               	movf	___awmod@divisor& (0+255),w,b
 14549  006C5C  0100               	movlb	0	; () banked
 14550  006C5E  5F60               	subwf	___awmod@dividend& (0+255),f,b
 14551  006C60  0100               	movlb	0	; () banked
 14552  006C62  5163               	movf	(___awmod@divisor+1)& (0+255),w,b
 14553  006C64  0100               	movlb	0	; () banked
 14554  006C66  5B61               	subwfb	(___awmod@dividend+1)& (0+255),f,b
 14555  006C68                     l12200:
 14556                           
 14557                           ; BSR set to: 0
 14558  006C68  0100               	movlb	0	; () banked
 14559  006C6A  90D8               	bcf	status,0,c
 14560  006C6C  3363               	rrcf	(___awmod@divisor+1)& (0+255),f,b
 14561  006C6E  3362               	rrcf	___awmod@divisor& (0+255),f,b
 14562                           
 14563                           ; BSR set to: 0
 14564  006C70  0100               	movlb	0	; () banked
 14565  006C72  2F64               	decfsz	___awmod@counter& (0+255),f,b
 14566  006C74  D7E7               	goto	l12196
 14567  006C76                     l12204:
 14568                           
 14569                           ; BSR set to: 0
 14570  006C76  0100               	movlb	0	; () banked
 14571  006C78  5165               	movf	___awmod@sign& (0+255),w,b
 14572  006C7A  0100               	movlb	0	; () banked
 14573  006C7C  B4D8               	btfsc	status,2,c
 14574  006C7E  D005               	goto	l12208
 14575                           
 14576                           ; BSR set to: 0
 14577  006C80  0100               	movlb	0	; () banked
 14578  006C82  6D60               	negf	___awmod@dividend& (0+255),b
 14579  006C84  1F61               	comf	(___awmod@dividend+1)& (0+255),f,b
 14580  006C86  B0D8               	btfsc	status,0,c
 14581  006C88  2B61               	incf	(___awmod@dividend+1)& (0+255),f,b
 14582  006C8A                     l12208:
 14583                           
 14584                           ; BSR set to: 0
 14585  006C8A  C060  F060         	movff	___awmod@dividend,?___awmod
 14586  006C8E  C061  F061         	movff	___awmod@dividend+1,?___awmod+1
 14587  006C92  0012               	return	
 14588  006C94                     __end_of___awmod:
 14589                           	opt stack 0
 14590                           tblptru	equ	0xFF8
 14591                           tblptrh	equ	0xFF7
 14592                           tblptrl	equ	0xFF6
 14593                           tablat	equ	0xFF5
 14594                           prodh	equ	0xFF4
 14595                           prodl	equ	0xFF3
 14596                           intcon	equ	0xFF2
 14597                           intcon2	equ	0xFF1
 14598                           postinc0	equ	0xFEE
 14599                           wreg	equ	0xFE8
 14600                           indf2	equ	0xFDF
 14601                           postinc2	equ	0xFDE
 14602                           postdec2	equ	0xFDD
 14603                           fsr2h	equ	0xFDA
 14604                           fsr2l	equ	0xFD9
 14605                           status	equ	0xFD8
 14606                           
 14607 ;; *************** function ___awdiv *****************
 14608 ;; Defined at:
 14609 ;;		line 8 in file "C:\Program Files (x86)\Microchip\xc8\v1.38\sources\common\awdiv.c"
 14610 ;; Parameters:    Size  Location     Type
 14611 ;;  dividend        2    0[BANK0 ] int 
 14612 ;;  divisor         2    2[BANK0 ] int 
 14613 ;; Auto vars:     Size  Location     Type
 14614 ;;  quotient        2    6[BANK0 ] int 
 14615 ;;  sign            1    5[BANK0 ] unsigned char 
 14616 ;;  counter         1    4[BANK0 ] unsigned char 
 14617 ;; Return value:  Size  Location     Type
 14618 ;;                  2    0[BANK0 ] int 
 14619 ;; Registers used:
 14620 ;;		wreg, status,2, status,0
 14621 ;; Tracked objects:
 14622 ;;		On entry : 0/0
 14623 ;;		On exit  : 0/0
 14624 ;;		Unchanged: 0/0
 14625 ;; Data sizes:     COMRAM   BANK0   BANK1   BANK2   BANK3   BANK4   BANK5   BANK6   BANK7   BANK8   BANK9  BANK10  BANK1
      +1  BANK12  BANK13  BANK14  BANK15
 14626 ;;      Params:         0       4       0       0       0       0       0       0       0       0       0       0       
      +0       0       0       0       0
 14627 ;;      Locals:         0       4       0       0       0       0       0       0       0       0       0       0       
      +0       0       0       0       0
 14628 ;;      Temps:          0       0       0       0       0       0       0       0       0       0       0       0       
      +0       0       0       0       0
 14629 ;;      Totals:         0       8       0       0       0       0       0       0       0       0       0       0       
      +0       0       0       0       0
 14630 ;;Total ram usage:        8 bytes
 14631 ;; Hardware stack levels used:    1
 14632 ;; Hardware stack levels required when called:    4
 14633 ;; This function calls:
 14634 ;;		Nothing
 14635 ;; This function is called by:
 14636 ;;		_Num2Disp
 14637 ;; This function uses a non-reentrant model
 14638 ;;
 14639                           
 14640                           	psect	text31
 14641  0069E4                     __ptext31:
 14642                           	opt stack 0
 14643  0069E4                     ___awdiv:
 14644                           	opt stack 23
 14645                           
 14646                           ; BSR set to: 0
 14647                           ;incstack = 0
 14648  0069E4  0E00               	movlw	0
 14649  0069E6  0100               	movlb	0	; () banked
 14650  0069E8  6F65               	movwf	___awdiv@sign& (0+255),b
 14651                           
 14652                           ; BSR set to: 0
 14653  0069EA  0100               	movlb	0	; () banked
 14654  0069EC  AF63               	btfss	(___awdiv@divisor+1)& (0+255),7,b
 14655  0069EE  D008               	goto	l12140
 14656                           
 14657                           ; BSR set to: 0
 14658  0069F0  0100               	movlb	0	; () banked
 14659  0069F2  6D62               	negf	___awdiv@divisor& (0+255),b
 14660  0069F4  1F63               	comf	(___awdiv@divisor+1)& (0+255),f,b
 14661  0069F6  B0D8               	btfsc	status,0,c
 14662  0069F8  2B63               	incf	(___awdiv@divisor+1)& (0+255),f,b
 14663                           
 14664                           ; BSR set to: 0
 14665  0069FA  0E01               	movlw	1
 14666  0069FC  0100               	movlb	0	; () banked
 14667  0069FE  6F65               	movwf	___awdiv@sign& (0+255),b
 14668  006A00                     l12140:
 14669                           
 14670                           ; BSR set to: 0
 14671  006A00  0100               	movlb	0	; () banked
 14672  006A02  AF61               	btfss	(___awdiv@dividend+1)& (0+255),7,b
 14673  006A04  D008               	goto	l12146
 14674                           
 14675                           ; BSR set to: 0
 14676  006A06  0100               	movlb	0	; () banked
 14677  006A08  6D60               	negf	___awdiv@dividend& (0+255),b
 14678  006A0A  1F61               	comf	(___awdiv@dividend+1)& (0+255),f,b
 14679  006A0C  B0D8               	btfsc	status,0,c
 14680  006A0E  2B61               	incf	(___awdiv@dividend+1)& (0+255),f,b
 14681                           
 14682                           ; BSR set to: 0
 14683  006A10  0E01               	movlw	1
 14684  006A12  0100               	movlb	0	; () banked
 14685  006A14  1B65               	xorwf	___awdiv@sign& (0+255),f,b
 14686  006A16                     l12146:
 14687                           
 14688                           ; BSR set to: 0
 14689  006A16  0E00               	movlw	0
 14690  006A18  0100               	movlb	0	; () banked
 14691  006A1A  6F67               	movwf	(___awdiv@quotient+1)& (0+255),b
 14692  006A1C  0E00               	movlw	0
 14693  006A1E  6F66               	movwf	___awdiv@quotient& (0+255),b
 14694                           
 14695                           ; BSR set to: 0
 14696  006A20  0100               	movlb	0	; () banked
 14697  006A22  5162               	movf	___awdiv@divisor& (0+255),w,b
 14698  006A24  0100               	movlb	0	; () banked
 14699  006A26  1163               	iorwf	(___awdiv@divisor+1)& (0+255),w,b
 14700  006A28  B4D8               	btfsc	status,2,c
 14701  006A2A  D02C               	goto	l12168
 14702                           
 14703                           ; BSR set to: 0
 14704  006A2C  0E01               	movlw	1
 14705  006A2E  0100               	movlb	0	; () banked
 14706  006A30  6F64               	movwf	___awdiv@counter& (0+255),b
 14707  006A32  D006               	goto	l12154
 14708  006A34                     l12152:
 14709                           
 14710                           ; BSR set to: 0
 14711  006A34  0100               	movlb	0	; () banked
 14712  006A36  90D8               	bcf	status,0,c
 14713  006A38  3762               	rlcf	___awdiv@divisor& (0+255),f,b
 14714  006A3A  3763               	rlcf	(___awdiv@divisor+1)& (0+255),f,b
 14715  006A3C  0100               	movlb	0	; () banked
 14716  006A3E  2B64               	incf	___awdiv@counter& (0+255),f,b
 14717  006A40                     l12154:
 14718                           
 14719                           ; BSR set to: 0
 14720  006A40  0100               	movlb	0	; () banked
 14721  006A42  AF63               	btfss	(___awdiv@divisor+1)& (0+255),7,b
 14722  006A44  D7F7               	goto	l12152
 14723  006A46                     l12156:
 14724                           
 14725                           ; BSR set to: 0
 14726  006A46  0100               	movlb	0	; () banked
 14727  006A48  90D8               	bcf	status,0,c
 14728  006A4A  3766               	rlcf	___awdiv@quotient& (0+255),f,b
 14729  006A4C  3767               	rlcf	(___awdiv@quotient+1)& (0+255),f,b
 14730                           
 14731                           ; BSR set to: 0
 14732  006A4E  0100               	movlb	0	; () banked
 14733  006A50  5162               	movf	___awdiv@divisor& (0+255),w,b
 14734  006A52  0100               	movlb	0	; () banked
 14735  006A54  5D60               	subwf	___awdiv@dividend& (0+255),w,b
 14736  006A56  0100               	movlb	0	; () banked
 14737  006A58  5163               	movf	(___awdiv@divisor+1)& (0+255),w,b
 14738  006A5A  0100               	movlb	0	; () banked
 14739  006A5C  5961               	subwfb	(___awdiv@dividend+1)& (0+255),w,b
 14740  006A5E  A0D8               	btfss	status,0,c
 14741  006A60  D00A               	goto	l12164
 14742                           
 14743                           ; BSR set to: 0
 14744  006A62  0100               	movlb	0	; () banked
 14745  006A64  5162               	movf	___awdiv@divisor& (0+255),w,b
 14746  006A66  0100               	movlb	0	; () banked
 14747  006A68  5F60               	subwf	___awdiv@dividend& (0+255),f,b
 14748  006A6A  0100               	movlb	0	; () banked
 14749  006A6C  5163               	movf	(___awdiv@divisor+1)& (0+255),w,b
 14750  006A6E  0100               	movlb	0	; () banked
 14751  006A70  5B61               	subwfb	(___awdiv@dividend+1)& (0+255),f,b
 14752                           
 14753                           ; BSR set to: 0
 14754  006A72  0100               	movlb	0	; () banked
 14755  006A74  8166               	bsf	___awdiv@quotient& (0+255),0,b
 14756  006A76                     l12164:
 14757                           
 14758                           ; BSR set to: 0
 14759  006A76  0100               	movlb	0	; () banked
 14760  006A78  90D8               	bcf	status,0,c
 14761  006A7A  3363               	rrcf	(___awdiv@divisor+1)& (0+255),f,b
 14762  006A7C  3362               	rrcf	___awdiv@divisor& (0+255),f,b
 14763                           
 14764                           ; BSR set to: 0
 14765  006A7E  0100               	movlb	0	; () banked
 14766  006A80  2F64               	decfsz	___awdiv@counter& (0+255),f,b
 14767  006A82  D7E1               	goto	l12156
 14768  006A84                     l12168:
 14769                           
 14770                           ; BSR set to: 0
 14771  006A84  0100               	movlb	0	; () banked
 14772  006A86  5165               	movf	___awdiv@sign& (0+255),w,b
 14773  006A88  0100               	movlb	0	; () banked
 14774  006A8A  B4D8               	btfsc	status,2,c
 14775  006A8C  D005               	goto	l12172
 14776                           
 14777                           ; BSR set to: 0
 14778  006A8E  0100               	movlb	0	; () banked
 14779  006A90  6D66               	negf	___awdiv@quotient& (0+255),b
 14780  006A92  1F67               	comf	(___awdiv@quotient+1)& (0+255),f,b
 14781  006A94  B0D8               	btfsc	status,0,c
 14782  006A96  2B67               	incf	(___awdiv@quotient+1)& (0+255),f,b
 14783  006A98                     l12172:
 14784                           
 14785                           ; BSR set to: 0
 14786  006A98  C066  F060         	movff	___awdiv@quotient,?___awdiv
 14787  006A9C  C067  F061         	movff	___awdiv@quotient+1,?___awdiv+1
 14788  006AA0  0012               	return	
 14789  006AA2                     __end_of___awdiv:
 14790                           	opt stack 0
 14791                           tblptru	equ	0xFF8
 14792                           tblptrh	equ	0xFF7
 14793                           tblptrl	equ	0xFF6
 14794                           tablat	equ	0xFF5
 14795                           prodh	equ	0xFF4
 14796                           prodl	equ	0xFF3
 14797                           intcon	equ	0xFF2
 14798                           intcon2	equ	0xFF1
 14799                           postinc0	equ	0xFEE
 14800                           wreg	equ	0xFE8
 14801                           indf2	equ	0xFDF
 14802                           postinc2	equ	0xFDE
 14803                           postdec2	equ	0xFDD
 14804                           fsr2h	equ	0xFDA
 14805                           fsr2l	equ	0xFD9
 14806                           status	equ	0xFD8
 14807                           
 14808 ;; *************** function _ConfigureIO *****************
 14809 ;; Defined at:
 14810 ;;		line 619 in file "mini-project-clock.c"
 14811 ;; Parameters:    Size  Location     Type
 14812 ;;		None
 14813 ;; Auto vars:     Size  Location     Type
 14814 ;;		None
 14815 ;; Return value:  Size  Location     Type
 14816 ;;                  1    wreg      void 
 14817 ;; Registers used:
 14818 ;;		wreg, status,2
 14819 ;; Tracked objects:
 14820 ;;		On entry : 0/0
 14821 ;;		On exit  : 0/0
 14822 ;;		Unchanged: 0/0
 14823 ;; Data sizes:     COMRAM   BANK0   BANK1   BANK2   BANK3   BANK4   BANK5   BANK6   BANK7   BANK8   BANK9  BANK10  BANK1
      +1  BANK12  BANK13  BANK14  BANK15
 14824 ;;      Params:         0       0       0       0       0       0       0       0       0       0       0       0       
      +0       0       0       0       0
 14825 ;;      Locals:         0       0       0       0       0       0       0       0       0       0       0       0       
      +0       0       0       0       0
 14826 ;;      Temps:          0       0       0       0       0       0       0       0       0       0       0       0       
      +0       0       0       0       0
 14827 ;;      Totals:         0       0       0       0       0       0       0       0       0       0       0       0       
      +0       0       0       0       0
 14828 ;;Total ram usage:        0 bytes
 14829 ;; Hardware stack levels used:    1
 14830 ;; Hardware stack levels required when called:    4
 14831 ;; This function calls:
 14832 ;;		Nothing
 14833 ;; This function is called by:
 14834 ;;		_main
 14835 ;; This function uses a non-reentrant model
 14836 ;;
 14837                           
 14838                           	psect	text32
 14839  00732C                     __ptext32:
 14840                           	opt stack 0
 14841  00732C                     _ConfigureIO:
 14842                           	opt stack 26
 14843                           
 14844                           ;mini-project-clock.c: 620: ADCON1 = 0x3F;
 14845                           
 14846                           ; BSR set to: 0
 14847                           ;incstack = 0
 14848  00732C  0E3F               	movlw	63
 14849  00732E  6EC1               	movwf	4033,c	;volatile
 14850                           
 14851                           ;mini-project-clock.c: 621: TRISF = 0x00;
 14852  007330  0E00               	movlw	0
 14853  007332  6E97               	movwf	3991,c	;volatile
 14854                           
 14855                           ;mini-project-clock.c: 622: TRISH = 0xFC;
 14856  007334  0EFC               	movlw	252
 14857  007336  6E99               	movwf	3993,c	;volatile
 14858                           
 14859                           ;mini-project-clock.c: 623: TRISA = 0xEF;
 14860  007338  0EEF               	movlw	239
 14861  00733A  6E92               	movwf	3986,c	;volatile
 14862                           
 14863                           ;mini-project-clock.c: 624: TRISB = 0xFF;
 14864  00733C  6893               	setf	3987,c	;volatile
 14865                           
 14866                           ;mini-project-clock.c: 625: TRISC = 0xFF;
 14867  00733E  6894               	setf	3988,c	;volatile
 14868                           
 14869                           ;mini-project-clock.c: 626: TRISJ = 0xBF;
 14870  007340  0EBF               	movlw	191
 14871  007342  6E9A               	movwf	3994,c	;volatile
 14872  007344  0012               	return		;funcret
 14873  007346                     __end_of_ConfigureIO:
 14874                           	opt stack 0
 14875                           tblptru	equ	0xFF8
 14876                           tblptrh	equ	0xFF7
 14877                           tblptrl	equ	0xFF6
 14878                           tablat	equ	0xFF5
 14879                           prodh	equ	0xFF4
 14880                           prodl	equ	0xFF3
 14881                           intcon	equ	0xFF2
 14882                           intcon2	equ	0xFF1
 14883                           postinc0	equ	0xFEE
 14884                           wreg	equ	0xFE8
 14885                           indf2	equ	0xFDF
 14886                           postinc2	equ	0xFDE
 14887                           postdec2	equ	0xFDD
 14888                           fsr2h	equ	0xFDA
 14889                           fsr2l	equ	0xFD9
 14890                           status	equ	0xFD8
 14891                           
 14892 ;; *************** function _CompareTimes *****************
 14893 ;; Defined at:
 14894 ;;		line 1374 in file "mini-project-clock.c"
 14895 ;; Parameters:    Size  Location     Type
 14896 ;;  mainTime        3    0[BANK0 ] volatile struct .
 14897 ;;  mainDate        2    3[BANK0 ] PTR volatile struct .
 14898 ;;		 -> MainDate(5), 
 14899 ;;  alarmTime       2    5[BANK0 ] PTR volatile struct .
 14900 ;;		 -> Alarm2Time(3), Alarm1Time(3), 
 14901 ;;  alarmDate       2    7[BANK0 ] PTR volatile struct .
 14902 ;;		 -> Alarm2Date(5), Alarm1Date(5), 
 14903 ;;  args            1    9[BANK0 ] unsigned char 
 14904 ;; Auto vars:     Size  Location     Type
 14905 ;;		None
 14906 ;; Return value:  Size  Location     Type
 14907 ;;                  1    wreg      unsigned char 
 14908 ;; Registers used:
 14909 ;;		wreg, fsr1l, fsr1h, fsr2l, fsr2h, status,2, status,0
 14910 ;; Tracked objects:
 14911 ;;		On entry : 0/0
 14912 ;;		On exit  : 0/0
 14913 ;;		Unchanged: 0/0
 14914 ;; Data sizes:     COMRAM   BANK0   BANK1   BANK2   BANK3   BANK4   BANK5   BANK6   BANK7   BANK8   BANK9  BANK10  BANK1
      +1  BANK12  BANK13  BANK14  BANK15
 14915 ;;      Params:         0      10       0       0       0       0       0       0       0       0       0       0       
      +0       0       0       0       0
 14916 ;;      Locals:         0       0       0       0       0       0       0       0       0       0       0       0       
      +0       0       0       0       0
 14917 ;;      Temps:          0       2       0       0       0       0       0       0       0       0       0       0       
      +0       0       0       0       0
 14918 ;;      Totals:         0      12       0       0       0       0       0       0       0       0       0       0       
      +0       0       0       0       0
 14919 ;;Total ram usage:       12 bytes
 14920 ;; Hardware stack levels used:    1
 14921 ;; Hardware stack levels required when called:    4
 14922 ;; This function calls:
 14923 ;;		Nothing
 14924 ;; This function is called by:
 14925 ;;		_main
 14926 ;; This function uses a non-reentrant model
 14927 ;;
 14928                           
 14929                           	psect	text33
 14930  0064A2                     __ptext33:
 14931                           	opt stack 0
 14932  0064A2                     _CompareTimes:
 14933                           	opt stack 26
 14934                           
 14935                           ;mini-project-clock.c: 1375: switch (args) {
 14936                           
 14937                           ;incstack = 0
 14938  0064A2  D07A               	goto	l13110
 14939  0064A4                     l13066:
 14940                           
 14941                           ;mini-project-clock.c: 1377: if ((mainTime.hrs == alarmTime->hrs) && (mainTime.mins == a
      +                          larmTime->mins) && (mainTime.secs == alarmTime->secs)) {
 14942  0064A4  C065  FFD9         	movff	CompareTimes@alarmTime,fsr2l
 14943  0064A8  C066  FFDA         	movff	CompareTimes@alarmTime+1,fsr2h
 14944  0064AC  0100               	movlb	0	; () banked
 14945  0064AE  5160               	movf	CompareTimes@mainTime& (0+255),w,b	;volatile
 14946  0064B0  18DE               	xorwf	postinc2,w,c
 14947  0064B2  A4D8               	btfss	status,2,c
 14948  0064B4  D01A               	goto	l13078
 14949                           
 14950                           ; BSR set to: 0
 14951  0064B6  0100               	movlb	0	; () banked
 14952  0064B8  EE20 F001          	lfsr	2,1
 14953  0064BC  5165               	movf	CompareTimes@alarmTime& (0+255),w,b
 14954  0064BE  26D9               	addwf	fsr2l,f,c
 14955  0064C0  5166               	movf	(CompareTimes@alarmTime+1)& (0+255),w,b
 14956  0064C2  22DA               	addwfc	fsr2h,f,c
 14957  0064C4  50DE               	movf	postinc2,w,c
 14958  0064C6  0100               	movlb	0	; () banked
 14959  0064C8  1961               	xorwf	(CompareTimes@mainTime+1)& (0+255),w,b	;volatile
 14960  0064CA  A4D8               	btfss	status,2,c
 14961  0064CC  D00E               	goto	l13078
 14962                           
 14963                           ; BSR set to: 0
 14964  0064CE  0100               	movlb	0	; () banked
 14965  0064D0  EE20 F002          	lfsr	2,2
 14966  0064D4  5165               	movf	CompareTimes@alarmTime& (0+255),w,b
 14967  0064D6  26D9               	addwf	fsr2l,f,c
 14968  0064D8  5166               	movf	(CompareTimes@alarmTime+1)& (0+255),w,b
 14969  0064DA  22DA               	addwfc	fsr2h,f,c
 14970  0064DC  50DE               	movf	postinc2,w,c
 14971  0064DE  0100               	movlb	0	; () banked
 14972  0064E0  1962               	xorwf	(CompareTimes@mainTime+2)& (0+255),w,b	;volatile
 14973  0064E2  A4D8               	btfss	status,2,c
 14974  0064E4  D002               	goto	l13078
 14975                           
 14976                           ; BSR set to: 0
 14977                           ;mini-project-clock.c: 1378: return (1);
 14978  0064E6  0E01               	movlw	1
 14979                           
 14980                           ; BSR set to: 0
 14981  0064E8  0012               	return	
 14982  0064EA                     l13078:
 14983                           
 14984                           ; BSR set to: 0
 14985                           ;mini-project-clock.c: 1380: return (0);
 14986  0064EA  0E00               	movlw	0
 14987                           
 14988                           ; BSR set to: 0
 14989  0064EC  0012               	return	
 14990  0064EE                     l13082:
 14991                           
 14992                           ; BSR set to: 0
 14993                           ;mini-project-clock.c: 1384: if((mainTime.hrs == alarmTime->hrs) && (mainTime.mins == al
      +                          armTime->mins) && (mainTime.secs == alarmTime->secs) && (mainDate->day == alarmDate->day
      +                          ) && (mainDate->month == alarmDate->month) && (mainDate->year_short == alarmDate->year_s
      +                          hort)) {
 14994  0064EE  C065  FFD9         	movff	CompareTimes@alarmTime,fsr2l
 14995  0064F2  C066  FFDA         	movff	CompareTimes@alarmTime+1,fsr2h
 14996  0064F6  0100               	movlb	0	; () banked
 14997  0064F8  5160               	movf	CompareTimes@mainTime& (0+255),w,b	;volatile
 14998  0064FA  18DE               	xorwf	postinc2,w,c
 14999  0064FC  A4D8               	btfss	status,2,c
 15000  0064FE  D04A               	goto	l13100
 15001                           
 15002                           ; BSR set to: 0
 15003  006500  0100               	movlb	0	; () banked
 15004  006502  EE20 F001          	lfsr	2,1
 15005  006506  5165               	movf	CompareTimes@alarmTime& (0+255),w,b
 15006  006508  26D9               	addwf	fsr2l,f,c
 15007  00650A  5166               	movf	(CompareTimes@alarmTime+1)& (0+255),w,b
 15008  00650C  22DA               	addwfc	fsr2h,f,c
 15009  00650E  50DE               	movf	postinc2,w,c
 15010  006510  0100               	movlb	0	; () banked
 15011  006512  1961               	xorwf	(CompareTimes@mainTime+1)& (0+255),w,b	;volatile
 15012  006514  A4D8               	btfss	status,2,c
 15013  006516  D03E               	goto	l13100
 15014                           
 15015                           ; BSR set to: 0
 15016  006518  0100               	movlb	0	; () banked
 15017  00651A  EE20 F002          	lfsr	2,2
 15018  00651E  5165               	movf	CompareTimes@alarmTime& (0+255),w,b
 15019  006520  26D9               	addwf	fsr2l,f,c
 15020  006522  5166               	movf	(CompareTimes@alarmTime+1)& (0+255),w,b
 15021  006524  22DA               	addwfc	fsr2h,f,c
 15022  006526  50DE               	movf	postinc2,w,c
 15023  006528  0100               	movlb	0	; () banked
 15024  00652A  1962               	xorwf	(CompareTimes@mainTime+2)& (0+255),w,b	;volatile
 15025  00652C  A4D8               	btfss	status,2,c
 15026  00652E  D032               	goto	l13100
 15027                           
 15028                           ; BSR set to: 0
 15029  006530  C067  FFD9         	movff	CompareTimes@alarmDate,fsr2l
 15030  006534  C068  FFDA         	movff	CompareTimes@alarmDate+1,fsr2h
 15031  006538  C063  FFE1         	movff	CompareTimes@mainDate,fsr1l
 15032  00653C  C064  FFE2         	movff	CompareTimes@mainDate+1,fsr1h
 15033  006540  50DE               	movf	postinc2,w,c
 15034  006542  18E6               	xorwf	postinc1,w,c
 15035  006544  A4D8               	btfss	status,2,c
 15036  006546  D026               	goto	l13100
 15037                           
 15038                           ; BSR set to: 0
 15039  006548  0100               	movlb	0	; () banked
 15040  00654A  EE20 F001          	lfsr	2,1
 15041  00654E  5167               	movf	CompareTimes@alarmDate& (0+255),w,b
 15042  006550  26D9               	addwf	fsr2l,f,c
 15043  006552  5168               	movf	(CompareTimes@alarmDate+1)& (0+255),w,b
 15044  006554  22DA               	addwfc	fsr2h,f,c
 15045  006556  0100               	movlb	0	; () banked
 15046  006558  EE10 F001          	lfsr	1,1
 15047  00655C  5163               	movf	CompareTimes@mainDate& (0+255),w,b
 15048  00655E  26E1               	addwf	fsr1l,f,c
 15049  006560  5164               	movf	(CompareTimes@mainDate+1)& (0+255),w,b
 15050  006562  22E2               	addwfc	fsr1h,f,c
 15051  006564  50DE               	movf	postinc2,w,c
 15052  006566  18E6               	xorwf	postinc1,w,c
 15053  006568  A4D8               	btfss	status,2,c
 15054  00656A  D014               	goto	l13100
 15055                           
 15056                           ; BSR set to: 0
 15057  00656C  0100               	movlb	0	; () banked
 15058  00656E  EE20 F002          	lfsr	2,2
 15059  006572  5167               	movf	CompareTimes@alarmDate& (0+255),w,b
 15060  006574  26D9               	addwf	fsr2l,f,c
 15061  006576  5168               	movf	(CompareTimes@alarmDate+1)& (0+255),w,b
 15062  006578  22DA               	addwfc	fsr2h,f,c
 15063  00657A  0100               	movlb	0	; () banked
 15064  00657C  EE10 F002          	lfsr	1,2
 15065  006580  5163               	movf	CompareTimes@mainDate& (0+255),w,b
 15066  006582  26E1               	addwf	fsr1l,f,c
 15067  006584  5164               	movf	(CompareTimes@mainDate+1)& (0+255),w,b
 15068  006586  22E2               	addwfc	fsr1h,f,c
 15069  006588  50DE               	movf	postinc2,w,c
 15070  00658A  18E6               	xorwf	postinc1,w,c
 15071  00658C  A4D8               	btfss	status,2,c
 15072  00658E  D002               	goto	l13100
 15073                           
 15074                           ; BSR set to: 0
 15075                           ;mini-project-clock.c: 1385: return(1);
 15076  006590  0E01               	movlw	1
 15077                           
 15078                           ; BSR set to: 0
 15079  006592  0012               	return	
 15080  006594                     l13100:
 15081                           
 15082                           ; BSR set to: 0
 15083                           ;mini-project-clock.c: 1387: else {
 15084                           ;mini-project-clock.c: 1388: return(0);
 15085  006594  0E00               	movlw	0
 15086                           
 15087                           ; BSR set to: 0
 15088  006596  0012               	return	
 15089  006598                     l13110:
 15090  006598  0100               	movlb	0	; () banked
 15091  00659A  5169               	movf	CompareTimes@args& (0+255),w,b
 15092                           
 15093                           ; Switch size 1, requested type "space"
 15094                           ; Number of cases is 2, Range of values is 1 to 2
 15095                           ; switch strategies available:
 15096                           ; Name         Instructions Cycles
 15097                           ; simple_byte            7     4 (average)
 15098                           ;	Chosen strategy is simple_byte
 15099  00659C  0A01               	xorlw	1	; case 1
 15100  00659E  B4D8               	btfsc	status,2,c
 15101  0065A0  D781               	goto	l13066
 15102  0065A2  0A03               	xorlw	3	; case 2
 15103  0065A4  B4D8               	btfsc	status,2,c
 15104  0065A6  D7A3               	goto	l13082
 15105  0065A8  D7A0               	goto	l13078
 15106  0065AA                     __end_of_CompareTimes:
 15107                           	opt stack 0
 15108                           tblptru	equ	0xFF8
 15109                           tblptrh	equ	0xFF7
 15110                           tblptrl	equ	0xFF6
 15111                           tablat	equ	0xFF5
 15112                           prodh	equ	0xFF4
 15113                           prodl	equ	0xFF3
 15114                           intcon	equ	0xFF2
 15115                           intcon2	equ	0xFF1
 15116                           postinc0	equ	0xFEE
 15117                           wreg	equ	0xFE8
 15118                           postinc1	equ	0xFE6
 15119                           fsr1h	equ	0xFE2
 15120                           fsr1l	equ	0xFE1
 15121                           indf2	equ	0xFDF
 15122                           postinc2	equ	0xFDE
 15123                           postdec2	equ	0xFDD
 15124                           fsr2h	equ	0xFDA
 15125                           fsr2l	equ	0xFD9
 15126                           status	equ	0xFD8
 15127                           
 15128 ;; *************** function _CalcTime *****************
 15129 ;; Defined at:
 15130 ;;		line 647 in file "mini-project-clock.c"
 15131 ;; Parameters:    Size  Location     Type
 15132 ;;		None
 15133 ;; Auto vars:     Size  Location     Type
 15134 ;;  mins_temp       1    0[BANK0 ] unsigned char 
 15135 ;; Return value:  Size  Location     Type
 15136 ;;                  1    wreg      void 
 15137 ;; Registers used:
 15138 ;;		wreg, status,2, status,0
 15139 ;; Tracked objects:
 15140 ;;		On entry : 0/0
 15141 ;;		On exit  : 0/0
 15142 ;;		Unchanged: 0/0
 15143 ;; Data sizes:     COMRAM   BANK0   BANK1   BANK2   BANK3   BANK4   BANK5   BANK6   BANK7   BANK8   BANK9  BANK10  BANK1
      +1  BANK12  BANK13  BANK14  BANK15
 15144 ;;      Params:         0       0       0       0       0       0       0       0       0       0       0       0       
      +0       0       0       0       0
 15145 ;;      Locals:         0       1       0       0       0       0       0       0       0       0       0       0       
      +0       0       0       0       0
 15146 ;;      Temps:          0       0       0       0       0       0       0       0       0       0       0       0       
      +0       0       0       0       0
 15147 ;;      Totals:         0       1       0       0       0       0       0       0       0       0       0       0       
      +0       0       0       0       0
 15148 ;;Total ram usage:        1 bytes
 15149 ;; Hardware stack levels used:    1
 15150 ;; Hardware stack levels required when called:    4
 15151 ;; This function calls:
 15152 ;;		Nothing
 15153 ;; This function is called by:
 15154 ;;		_main
 15155 ;; This function uses a non-reentrant model
 15156 ;;
 15157                           
 15158                           	psect	text34
 15159  00721A                     __ptext34:
 15160                           	opt stack 0
 15161  00721A                     _CalcTime:
 15162                           	opt stack 26
 15163                           
 15164                           ;mini-project-clock.c: 648: char mins_temp = 0;
 15165                           
 15166                           ; BSR set to: 0
 15167                           ;incstack = 0
 15168  00721A  0E00               	movlw	0
 15169  00721C  0100               	movlb	0	; () banked
 15170  00721E  6F60               	movwf	CalcTime@mins_temp& (0+255),b
 15171                           
 15172                           ; BSR set to: 0
 15173                           ;mini-project-clock.c: 649: mins_temp = MainTime.mins + mins_rollover;
 15174  007220  5047               	movf	_MainTime+1,w,c	;volatile
 15175  007222  2435               	addwf	_mins_rollover,w,c	;volatile
 15176  007224  0100               	movlb	0	; () banked
 15177  007226  6F60               	movwf	CalcTime@mins_temp& (0+255),b
 15178                           
 15179                           ; BSR set to: 0
 15180                           ;mini-project-clock.c: 650: if (mins_temp < 59) {
 15181  007228  0E3B               	movlw	59
 15182  00722A  0100               	movlb	0	; () banked
 15183  00722C  6160               	cpfslt	CalcTime@mins_temp& (0+255),b
 15184  00722E  D003               	goto	l12904
 15185                           
 15186                           ; BSR set to: 0
 15187                           ;mini-project-clock.c: 651: MainTime.mins = mins_temp;
 15188  007230  C060  F047         	movff	CalcTime@mins_temp,_MainTime+1	;volatile
 15189                           
 15190                           ;mini-project-clock.c: 652: }
 15191  007234  D00D               	goto	l333
 15192  007236                     l12904:
 15193                           
 15194                           ; BSR set to: 0
 15195                           ;mini-project-clock.c: 653: else {
 15196                           ;mini-project-clock.c: 654: MainTime.mins = mins_temp - 60;
 15197  007236  0100               	movlb	0	; () banked
 15198  007238  5160               	movf	CalcTime@mins_temp& (0+255),w,b
 15199  00723A  0FC4               	addlw	196
 15200  00723C  6E47               	movwf	_MainTime+1,c	;volatile
 15201                           
 15202                           ;mini-project-clock.c: 655: if (MainTime.hrs < 23) {
 15203  00723E  0E17               	movlw	23
 15204  007240  6046               	cpfslt	_MainTime,c	;volatile
 15205  007242  D002               	goto	l12908
 15206                           
 15207                           ; BSR set to: 0
 15208                           ;mini-project-clock.c: 656: MainTime.hrs++;
 15209  007244  2A46               	incf	_MainTime,f,c	;volatile
 15210                           
 15211                           ;mini-project-clock.c: 657: } else {
 15212  007246  D004               	goto	l333
 15213  007248                     l12908:
 15214                           
 15215                           ; BSR set to: 0
 15216                           ;mini-project-clock.c: 658: MainTime.hrs = 0;
 15217  007248  0E00               	movlw	0
 15218  00724A  6E46               	movwf	_MainTime,c	;volatile
 15219                           
 15220                           ;mini-project-clock.c: 659: day_rollover = 1;
 15221  00724C  0E01               	movlw	1
 15222  00724E  6E32               	movwf	_day_rollover,c	;volatile
 15223  007250                     l333:
 15224                           
 15225                           ; BSR set to: 0
 15226                           ;mini-project-clock.c: 660: }
 15227                           ;mini-project-clock.c: 661: }
 15228                           ;mini-project-clock.c: 662: mins_rollover = 0;
 15229  007250  0E00               	movlw	0
 15230  007252  6E35               	movwf	_mins_rollover,c	;volatile
 15231                           
 15232                           ; BSR set to: 0
 15233  007254  0012               	return		;funcret
 15234  007256                     __end_of_CalcTime:
 15235                           	opt stack 0
 15236                           tblptru	equ	0xFF8
 15237                           tblptrh	equ	0xFF7
 15238                           tblptrl	equ	0xFF6
 15239                           tablat	equ	0xFF5
 15240                           prodh	equ	0xFF4
 15241                           prodl	equ	0xFF3
 15242                           intcon	equ	0xFF2
 15243                           intcon2	equ	0xFF1
 15244                           postinc0	equ	0xFEE
 15245                           wreg	equ	0xFE8
 15246                           postinc1	equ	0xFE6
 15247                           fsr1h	equ	0xFE2
 15248                           fsr1l	equ	0xFE1
 15249                           indf2	equ	0xFDF
 15250                           postinc2	equ	0xFDE
 15251                           postdec2	equ	0xFDD
 15252                           fsr2h	equ	0xFDA
 15253                           fsr2l	equ	0xFD9
 15254                           status	equ	0xFD8
 15255                           
 15256 ;; *************** function _CalcDate *****************
 15257 ;; Defined at:
 15258 ;;		line 665 in file "mini-project-clock.c"
 15259 ;; Parameters:    Size  Location     Type
 15260 ;;		None
 15261 ;; Auto vars:     Size  Location     Type
 15262 ;;		None
 15263 ;; Return value:  Size  Location     Type
 15264 ;;                  1    wreg      void 
 15265 ;; Registers used:
 15266 ;;		wreg, status,2, status,0, tblptrl, tblptrh, tblptru, prodl, prodh, cstack
 15267 ;; Tracked objects:
 15268 ;;		On entry : 0/0
 15269 ;;		On exit  : 0/0
 15270 ;;		Unchanged: 0/0
 15271 ;; Data sizes:     COMRAM   BANK0   BANK1   BANK2   BANK3   BANK4   BANK5   BANK6   BANK7   BANK8   BANK9  BANK10  BANK1
      +1  BANK12  BANK13  BANK14  BANK15
 15272 ;;      Params:         0       0       0       0       0       0       0       0       0       0       0       0       
      +0       0       0       0       0
 15273 ;;      Locals:         0       0       0       0       0       0       0       0       0       0       0       0       
      +0       0       0       0       0
 15274 ;;      Temps:          0       0       0       0       0       0       0       0       0       0       0       0       
      +0       0       0       0       0
 15275 ;;      Totals:         0       0       0       0       0       0       0       0       0       0       0       0       
      +0       0       0       0       0
 15276 ;;Total ram usage:        0 bytes
 15277 ;; Hardware stack levels used:    1
 15278 ;; Hardware stack levels required when called:    6
 15279 ;; This function calls:
 15280 ;;		_CalcLeapYear
 15281 ;; This function is called by:
 15282 ;;		_main
 15283 ;; This function uses a non-reentrant model
 15284 ;;
 15285                           
 15286                           	psect	text35
 15287  006B4A                     __ptext35:
 15288                           	opt stack 0
 15289  006B4A                     _CalcDate:
 15290                           	opt stack 24
 15291                           
 15292                           ;mini-project-clock.c: 666: day_rollover = 0;
 15293                           
 15294                           ; BSR set to: 0
 15295                           ;incstack = 0
 15296  006B4A  0E00               	movlw	0
 15297  006B4C  6E32               	movwf	_day_rollover,c	;volatile
 15298                           
 15299                           ;mini-project-clock.c: 667: if(CalcLeapYear(MainDate.year_long) == 0) {
 15300  006B4E  C03E  F065         	movff	_MainDate+3,CalcLeapYear@year	;volatile
 15301  006B52  C03F  F066         	movff	_MainDate+4,CalcLeapYear@year+1	;volatile
 15302  006B56  ECC6  F036         	call	_CalcLeapYear	;wreg free
 15303  006B5A  0900               	iorlw	0
 15304  006B5C  A4D8               	btfss	status,2,c
 15305  006B5E  D02B               	goto	l12932
 15306                           
 15307                           ;mini-project-clock.c: 668: if(MainDate.day < DaysInMonth[MainDate.month]) {
 15308  006B60  503C               	movf	_MainDate+1,w,c	;volatile
 15309  006B62  0D01               	mullw	1
 15310  006B64  0E1A               	movlw	low _DaysInMonth
 15311  006B66  24F3               	addwf	prodl,w,c
 15312  006B68  6EF6               	movwf	tblptrl,c
 15313  006B6A  0E10               	movlw	high _DaysInMonth
 15314  006B6C  20F4               	addwfc	prodh,w,c
 15315  006B6E  6EF7               	movwf	tblptrh,c
 15316  006B70                     	if	1	;There are 3 active tblptr bytes
 15317  006B70  6AF8               	clrf	tblptru,c
 15318  006B72  0E00               	movlw	low (__mediumconst shr (0+16))
 15319  006B74  22F8               	addwfc	tblptru,f,c
 15320  006B76                     	endif
 15321  006B76  0008               	tblrd		*
 15322  006B78  50F5               	movf	tablat,w,c
 15323  006B7A  603B               	cpfslt	_MainDate,c	;volatile
 15324  006B7C  D002               	goto	l12918
 15325                           
 15326                           ;mini-project-clock.c: 669: MainDate.day++;
 15327  006B7E  2A3B               	incf	_MainDate,f,c	;volatile
 15328                           
 15329                           ;mini-project-clock.c: 670: }
 15330  006B80  0012               	return	
 15331  006B82                     l12918:
 15332                           
 15333                           ;mini-project-clock.c: 671: else {
 15334                           ;mini-project-clock.c: 672: MainDate.day = 1;
 15335  006B82  0E01               	movlw	1
 15336  006B84  6E3B               	movwf	_MainDate,c	;volatile
 15337                           
 15338                           ;mini-project-clock.c: 673: if(MainDate.month < 12) {
 15339  006B86  0E0C               	movlw	12
 15340  006B88  603C               	cpfslt	_MainDate+1,c	;volatile
 15341  006B8A  D002               	goto	l12924
 15342                           
 15343                           ;mini-project-clock.c: 674: MainDate.month++;
 15344  006B8C  2A3C               	incf	_MainDate+1,f,c	;volatile
 15345                           
 15346                           ;mini-project-clock.c: 675: }
 15347  006B8E  0012               	return	
 15348  006B90                     l12924:
 15349                           
 15350                           ;mini-project-clock.c: 676: else {
 15351                           ;mini-project-clock.c: 677: MainDate.month = 1;
 15352  006B90  0E01               	movlw	1
 15353  006B92  6E3C               	movwf	_MainDate+1,c	;volatile
 15354                           
 15355                           ;mini-project-clock.c: 678: if(MainDate.year_long < 99) {
 15356  006B94  503F               	movf	_MainDate+4,w,c	;volatile
 15357  006B96  E108               	bnz	l12930
 15358  006B98  0E63               	movlw	99
 15359  006B9A  5C3E               	subwf	_MainDate+3,w,c	;volatile
 15360  006B9C  B0D8               	btfsc	status,0,c
 15361  006B9E  D004               	goto	l12930
 15362                           
 15363                           ;mini-project-clock.c: 679: MainDate.year_long++;
 15364  006BA0  4A3E               	infsnz	_MainDate+3,f,c	;volatile
 15365  006BA2  2A3F               	incf	_MainDate+4,f,c	;volatile
 15366                           
 15367                           ;mini-project-clock.c: 680: MainDate.year_short++;
 15368  006BA4  2A3D               	incf	_MainDate+2,f,c	;volatile
 15369                           
 15370                           ;mini-project-clock.c: 681: }
 15371  006BA6  0012               	return	
 15372  006BA8                     l12930:
 15373                           
 15374                           ;mini-project-clock.c: 682: else {
 15375                           ;mini-project-clock.c: 683: MainDate.year_long = 2000;
 15376  006BA8  0E07               	movlw	7
 15377  006BAA  6E3F               	movwf	_MainDate+4,c	;volatile
 15378  006BAC  0ED0               	movlw	208
 15379  006BAE  6E3E               	movwf	_MainDate+3,c	;volatile
 15380                           
 15381                           ;mini-project-clock.c: 684: MainDate.year_short = 00;
 15382  006BB0  0E00               	movlw	0
 15383  006BB2  6E3D               	movwf	_MainDate+2,c	;volatile
 15384                           
 15385                           ;mini-project-clock.c: 685: }
 15386                           ;mini-project-clock.c: 687: }
 15387                           ;mini-project-clock.c: 688: }
 15388                           ;mini-project-clock.c: 689: }
 15389  006BB4  0012               	return	
 15390  006BB6                     l12932:
 15391                           
 15392                           ;mini-project-clock.c: 690: else {
 15393                           ;mini-project-clock.c: 691: if(MainDate.day < DaysInMonthLeap[MainDate.month]) {
 15394  006BB6  503C               	movf	_MainDate+1,w,c	;volatile
 15395  006BB8  0D01               	mullw	1
 15396  006BBA  0E27               	movlw	low _DaysInMonthLeap
 15397  006BBC  24F3               	addwf	prodl,w,c
 15398  006BBE  6EF6               	movwf	tblptrl,c
 15399  006BC0  0E10               	movlw	high _DaysInMonthLeap
 15400  006BC2  20F4               	addwfc	prodh,w,c
 15401  006BC4  6EF7               	movwf	tblptrh,c
 15402  006BC6                     	if	1	;There are 3 active tblptr bytes
 15403  006BC6  6AF8               	clrf	tblptru,c
 15404  006BC8  0E00               	movlw	low (__mediumconst shr (0+16))
 15405  006BCA  22F8               	addwfc	tblptru,f,c
 15406  006BCC                     	endif
 15407  006BCC  0008               	tblrd		*
 15408  006BCE  50F5               	movf	tablat,w,c
 15409  006BD0  603B               	cpfslt	_MainDate,c	;volatile
 15410  006BD2  D002               	goto	l12936
 15411                           
 15412                           ;mini-project-clock.c: 692: MainDate.day++;
 15413  006BD4  2A3B               	incf	_MainDate,f,c	;volatile
 15414                           
 15415                           ;mini-project-clock.c: 693: }
 15416  006BD6  0012               	return	
 15417  006BD8                     l12936:
 15418                           
 15419                           ;mini-project-clock.c: 694: else {
 15420                           ;mini-project-clock.c: 695: MainDate.day = 1;
 15421  006BD8  0E01               	movlw	1
 15422  006BDA  6E3B               	movwf	_MainDate,c	;volatile
 15423                           
 15424                           ;mini-project-clock.c: 696: if(MainDate.month < 12) {
 15425  006BDC  0E0C               	movlw	12
 15426  006BDE  603C               	cpfslt	_MainDate+1,c	;volatile
 15427  006BE0  D002               	goto	l12942
 15428                           
 15429                           ;mini-project-clock.c: 697: MainDate.month++;
 15430  006BE2  2A3C               	incf	_MainDate+1,f,c	;volatile
 15431                           
 15432                           ;mini-project-clock.c: 698: }
 15433  006BE4  0012               	return	
 15434  006BE6                     l12942:
 15435                           
 15436                           ;mini-project-clock.c: 699: else {
 15437                           ;mini-project-clock.c: 700: MainDate.month = 1;
 15438  006BE6  0E01               	movlw	1
 15439  006BE8  6E3C               	movwf	_MainDate+1,c	;volatile
 15440                           
 15441                           ;mini-project-clock.c: 701: MainDate.year_long++;
 15442  006BEA  4A3E               	infsnz	_MainDate+3,f,c	;volatile
 15443  006BEC  2A3F               	incf	_MainDate+4,f,c	;volatile
 15444                           
 15445                           ;mini-project-clock.c: 702: MainDate.year_short++;
 15446  006BEE  2A3D               	incf	_MainDate+2,f,c	;volatile
 15447  006BF0  0012               	return	
 15448  006BF2                     __end_of_CalcDate:
 15449                           	opt stack 0
 15450                           tblptru	equ	0xFF8
 15451                           tblptrh	equ	0xFF7
 15452                           tblptrl	equ	0xFF6
 15453                           tablat	equ	0xFF5
 15454                           prodh	equ	0xFF4
 15455                           prodl	equ	0xFF3
 15456                           intcon	equ	0xFF2
 15457                           intcon2	equ	0xFF1
 15458                           postinc0	equ	0xFEE
 15459                           wreg	equ	0xFE8
 15460                           postinc1	equ	0xFE6
 15461                           fsr1h	equ	0xFE2
 15462                           fsr1l	equ	0xFE1
 15463                           indf2	equ	0xFDF
 15464                           postinc2	equ	0xFDE
 15465                           postdec2	equ	0xFDD
 15466                           fsr2h	equ	0xFDA
 15467                           fsr2l	equ	0xFD9
 15468                           status	equ	0xFD8
 15469                           
 15470 ;; *************** function _CalcLeapYear *****************
 15471 ;; Defined at:
 15472 ;;		line 708 in file "mini-project-clock.c"
 15473 ;; Parameters:    Size  Location     Type
 15474 ;;  year            2    5[BANK0 ] unsigned int 
 15475 ;; Auto vars:     Size  Location     Type
 15476 ;;		None
 15477 ;; Return value:  Size  Location     Type
 15478 ;;                  1    wreg      unsigned char 
 15479 ;; Registers used:
 15480 ;;		wreg, status,2, status,0, cstack
 15481 ;; Tracked objects:
 15482 ;;		On entry : 0/0
 15483 ;;		On exit  : 0/0
 15484 ;;		Unchanged: 0/0
 15485 ;; Data sizes:     COMRAM   BANK0   BANK1   BANK2   BANK3   BANK4   BANK5   BANK6   BANK7   BANK8   BANK9  BANK10  BANK1
      +1  BANK12  BANK13  BANK14  BANK15
 15486 ;;      Params:         0       2       0       0       0       0       0       0       0       0       0       0       
      +0       0       0       0       0
 15487 ;;      Locals:         0       0       0       0       0       0       0       0       0       0       0       0       
      +0       0       0       0       0
 15488 ;;      Temps:          0       2       0       0       0       0       0       0       0       0       0       0       
      +0       0       0       0       0
 15489 ;;      Totals:         0       4       0       0       0       0       0       0       0       0       0       0       
      +0       0       0       0       0
 15490 ;;Total ram usage:        4 bytes
 15491 ;; Hardware stack levels used:    1
 15492 ;; Hardware stack levels required when called:    5
 15493 ;; This function calls:
 15494 ;;		___lwmod
 15495 ;; This function is called by:
 15496 ;;		_CalcDate
 15497 ;;		_SetDay
 15498 ;; This function uses a non-reentrant model
 15499 ;;
 15500                           
 15501                           	psect	text36
 15502  006D8C                     __ptext36:
 15503                           	opt stack 0
 15504  006D8C                     _CalcLeapYear:
 15505                           	opt stack 23
 15506                           
 15507                           ;mini-project-clock.c: 709: if((year % 4) == 0) {
 15508                           
 15509                           ;incstack = 0
 15510  006D8C  0E03               	movlw	3
 15511  006D8E  0100               	movlb	0	; () banked
 15512  006D90  1565               	andwf	CalcLeapYear@year& (0+255),w,b
 15513  006D92  0100               	movlb	0	; () banked
 15514  006D94  6F67               	movwf	??_CalcLeapYear& (0+255),b
 15515  006D96  0E00               	movlw	0
 15516  006D98  0100               	movlb	0	; () banked
 15517  006D9A  1566               	andwf	(CalcLeapYear@year+1)& (0+255),w,b
 15518  006D9C  0100               	movlb	0	; () banked
 15519  006D9E  6F68               	movwf	(??_CalcLeapYear+1)& (0+255),b
 15520  006DA0  0100               	movlb	0	; () banked
 15521  006DA2  5167               	movf	??_CalcLeapYear& (0+255),w,b
 15522  006DA4  0100               	movlb	0	; () banked
 15523  006DA6  1168               	iorwf	(??_CalcLeapYear+1)& (0+255),w,b
 15524  006DA8  A4D8               	btfss	status,2,c
 15525  006DAA  D028               	goto	l12128
 15526                           
 15527                           ; BSR set to: 0
 15528                           ;mini-project-clock.c: 710: if((year % 100) == 0) {
 15529  006DAC  C065  F060         	movff	CalcLeapYear@year,___lwmod@dividend
 15530  006DB0  C066  F061         	movff	CalcLeapYear@year+1,___lwmod@dividend+1
 15531  006DB4  0E00               	movlw	0
 15532  006DB6  0100               	movlb	0	; () banked
 15533  006DB8  6F63               	movwf	(___lwmod@divisor+1)& (0+255),b
 15534  006DBA  0E64               	movlw	100
 15535  006DBC  6F62               	movwf	___lwmod@divisor& (0+255),b
 15536  006DBE  EC8F  F038         	call	___lwmod	;wreg free
 15537  006DC2  0100               	movlb	0	; () banked
 15538  006DC4  5160               	movf	?___lwmod& (0+255),w,b
 15539  006DC6  0100               	movlb	0	; () banked
 15540  006DC8  1161               	iorwf	(?___lwmod+1)& (0+255),w,b
 15541  006DCA  A4D8               	btfss	status,2,c
 15542  006DCC  D015               	goto	l12124
 15543                           
 15544                           ; BSR set to: 0
 15545                           ;mini-project-clock.c: 711: if ((year % 400) == 0) {
 15546  006DCE  C065  F060         	movff	CalcLeapYear@year,___lwmod@dividend
 15547  006DD2  C066  F061         	movff	CalcLeapYear@year+1,___lwmod@dividend+1
 15548  006DD6  0E01               	movlw	1
 15549  006DD8  0100               	movlb	0	; () banked
 15550  006DDA  6F63               	movwf	(___lwmod@divisor+1)& (0+255),b
 15551  006DDC  0E90               	movlw	144
 15552  006DDE  6F62               	movwf	___lwmod@divisor& (0+255),b
 15553  006DE0  EC8F  F038         	call	___lwmod	;wreg free
 15554  006DE4  0100               	movlb	0	; () banked
 15555  006DE6  5160               	movf	?___lwmod& (0+255),w,b
 15556  006DE8  0100               	movlb	0	; () banked
 15557  006DEA  1161               	iorwf	(?___lwmod+1)& (0+255),w,b
 15558  006DEC  A4D8               	btfss	status,2,c
 15559  006DEE  D002               	goto	l12120
 15560                           
 15561                           ; BSR set to: 0
 15562                           ;mini-project-clock.c: 712: return(1);
 15563  006DF0  0E01               	movlw	1
 15564                           
 15565                           ; BSR set to: 0
 15566                           ;mini-project-clock.c: 713: }
 15567                           
 15568                           ; BSR set to: 0
 15569  006DF2  0012               	return	
 15570  006DF4                     l12120:
 15571                           
 15572                           ; BSR set to: 0
 15573                           ;mini-project-clock.c: 714: else {
 15574                           ;mini-project-clock.c: 715: return(0);
 15575  006DF4  0E00               	movlw	0
 15576                           
 15577                           ; BSR set to: 0
 15578                           ;mini-project-clock.c: 716: }
 15579                           ;mini-project-clock.c: 717: }
 15580                           
 15581                           ; BSR set to: 0
 15582  006DF6  0012               	return	
 15583  006DF8                     l12124:
 15584                           
 15585                           ; BSR set to: 0
 15586                           ;mini-project-clock.c: 718: else {
 15587                           ;mini-project-clock.c: 719: return(1);
 15588  006DF8  0E01               	movlw	1
 15589                           
 15590                           ; BSR set to: 0
 15591                           ;mini-project-clock.c: 720: }
 15592                           ;mini-project-clock.c: 721: }
 15593                           
 15594                           ; BSR set to: 0
 15595  006DFA  0012               	return	
 15596  006DFC                     l12128:
 15597                           
 15598                           ; BSR set to: 0
 15599                           ;mini-project-clock.c: 722: else {
 15600                           ;mini-project-clock.c: 723: return(0);
 15601  006DFC  0E00               	movlw	0
 15602                           
 15603                           ; BSR set to: 0
 15604  006DFE  0012               	return	
 15605  006E00                     __end_of_CalcLeapYear:
 15606                           	opt stack 0
 15607                           tblptru	equ	0xFF8
 15608                           tblptrh	equ	0xFF7
 15609                           tblptrl	equ	0xFF6
 15610                           tablat	equ	0xFF5
 15611                           prodh	equ	0xFF4
 15612                           prodl	equ	0xFF3
 15613                           intcon	equ	0xFF2
 15614                           intcon2	equ	0xFF1
 15615                           postinc0	equ	0xFEE
 15616                           wreg	equ	0xFE8
 15617                           postinc1	equ	0xFE6
 15618                           fsr1h	equ	0xFE2
 15619                           fsr1l	equ	0xFE1
 15620                           indf2	equ	0xFDF
 15621                           postinc2	equ	0xFDE
 15622                           postdec2	equ	0xFDD
 15623                           fsr2h	equ	0xFDA
 15624                           fsr2l	equ	0xFD9
 15625                           status	equ	0xFD8
 15626                           
 15627 ;; *************** function ___lwmod *****************
 15628 ;; Defined at:
 15629 ;;		line 8 in file "C:\Program Files (x86)\Microchip\xc8\v1.38\sources\common\lwmod.c"
 15630 ;; Parameters:    Size  Location     Type
 15631 ;;  dividend        2    0[BANK0 ] unsigned int 
 15632 ;;  divisor         2    2[BANK0 ] unsigned int 
 15633 ;; Auto vars:     Size  Location     Type
 15634 ;;  counter         1    4[BANK0 ] unsigned char 
 15635 ;; Return value:  Size  Location     Type
 15636 ;;                  2    0[BANK0 ] unsigned int 
 15637 ;; Registers used:
 15638 ;;		wreg, status,2, status,0
 15639 ;; Tracked objects:
 15640 ;;		On entry : 0/0
 15641 ;;		On exit  : 0/0
 15642 ;;		Unchanged: 0/0
 15643 ;; Data sizes:     COMRAM   BANK0   BANK1   BANK2   BANK3   BANK4   BANK5   BANK6   BANK7   BANK8   BANK9  BANK10  BANK1
      +1  BANK12  BANK13  BANK14  BANK15
 15644 ;;      Params:         0       4       0       0       0       0       0       0       0       0       0       0       
      +0       0       0       0       0
 15645 ;;      Locals:         0       1       0       0       0       0       0       0       0       0       0       0       
      +0       0       0       0       0
 15646 ;;      Temps:          0       0       0       0       0       0       0       0       0       0       0       0       
      +0       0       0       0       0
 15647 ;;      Totals:         0       5       0       0       0       0       0       0       0       0       0       0       
      +0       0       0       0       0
 15648 ;;Total ram usage:        5 bytes
 15649 ;; Hardware stack levels used:    1
 15650 ;; Hardware stack levels required when called:    4
 15651 ;; This function calls:
 15652 ;;		Nothing
 15653 ;; This function is called by:
 15654 ;;		_CalcLeapYear
 15655 ;; This function uses a non-reentrant model
 15656 ;;
 15657                           
 15658                           	psect	text37
 15659  00711E                     __ptext37:
 15660                           	opt stack 0
 15661  00711E                     ___lwmod:
 15662                           	opt stack 23
 15663                           
 15664                           ; BSR set to: 0
 15665                           ;incstack = 0
 15666  00711E  0100               	movlb	0	; () banked
 15667  007120  5162               	movf	___lwmod@divisor& (0+255),w,b
 15668  007122  0100               	movlb	0	; () banked
 15669  007124  1163               	iorwf	(___lwmod@divisor+1)& (0+255),w,b
 15670  007126  B4D8               	btfsc	status,2,c
 15671  007128  D026               	goto	l2773
 15672                           
 15673                           ; BSR set to: 0
 15674  00712A  0E01               	movlw	1
 15675  00712C  0100               	movlb	0	; () banked
 15676  00712E  6F64               	movwf	___lwmod@counter& (0+255),b
 15677  007130  D006               	goto	l12054
 15678  007132                     l12052:
 15679                           
 15680                           ; BSR set to: 0
 15681  007132  0100               	movlb	0	; () banked
 15682  007134  90D8               	bcf	status,0,c
 15683  007136  3762               	rlcf	___lwmod@divisor& (0+255),f,b
 15684  007138  3763               	rlcf	(___lwmod@divisor+1)& (0+255),f,b
 15685  00713A  0100               	movlb	0	; () banked
 15686  00713C  2B64               	incf	___lwmod@counter& (0+255),f,b
 15687  00713E                     l12054:
 15688                           
 15689                           ; BSR set to: 0
 15690  00713E  0100               	movlb	0	; () banked
 15691  007140  AF63               	btfss	(___lwmod@divisor+1)& (0+255),7,b
 15692  007142  D7F7               	goto	l12052
 15693  007144                     l12056:
 15694                           
 15695                           ; BSR set to: 0
 15696  007144  0100               	movlb	0	; () banked
 15697  007146  5162               	movf	___lwmod@divisor& (0+255),w,b
 15698  007148  0100               	movlb	0	; () banked
 15699  00714A  5D60               	subwf	___lwmod@dividend& (0+255),w,b
 15700  00714C  0100               	movlb	0	; () banked
 15701  00714E  5163               	movf	(___lwmod@divisor+1)& (0+255),w,b
 15702  007150  0100               	movlb	0	; () banked
 15703  007152  5961               	subwfb	(___lwmod@dividend+1)& (0+255),w,b
 15704  007154  A0D8               	btfss	status,0,c
 15705  007156  D008               	goto	l12060
 15706                           
 15707                           ; BSR set to: 0
 15708  007158  0100               	movlb	0	; () banked
 15709  00715A  5162               	movf	___lwmod@divisor& (0+255),w,b
 15710  00715C  0100               	movlb	0	; () banked
 15711  00715E  5F60               	subwf	___lwmod@dividend& (0+255),f,b
 15712  007160  0100               	movlb	0	; () banked
 15713  007162  5163               	movf	(___lwmod@divisor+1)& (0+255),w,b
 15714  007164  0100               	movlb	0	; () banked
 15715  007166  5B61               	subwfb	(___lwmod@dividend+1)& (0+255),f,b
 15716  007168                     l12060:
 15717                           
 15718                           ; BSR set to: 0
 15719  007168  0100               	movlb	0	; () banked
 15720  00716A  90D8               	bcf	status,0,c
 15721  00716C  3363               	rrcf	(___lwmod@divisor+1)& (0+255),f,b
 15722  00716E  3362               	rrcf	___lwmod@divisor& (0+255),f,b
 15723                           
 15724                           ; BSR set to: 0
 15725  007170  0100               	movlb	0	; () banked
 15726  007172  2F64               	decfsz	___lwmod@counter& (0+255),f,b
 15727  007174  D7E7               	goto	l12056
 15728  007176                     l2773:
 15729                           
 15730                           ; BSR set to: 0
 15731  007176  C060  F060         	movff	___lwmod@dividend,?___lwmod
 15732  00717A  C061  F061         	movff	___lwmod@dividend+1,?___lwmod+1
 15733                           
 15734                           ; BSR set to: 0
 15735  00717E  0012               	return		;funcret
 15736  007180                     __end_of___lwmod:
 15737                           	opt stack 0
 15738                           tblptru	equ	0xFF8
 15739                           tblptrh	equ	0xFF7
 15740                           tblptrl	equ	0xFF6
 15741                           tablat	equ	0xFF5
 15742                           prodh	equ	0xFF4
 15743                           prodl	equ	0xFF3
 15744                           intcon	equ	0xFF2
 15745                           intcon2	equ	0xFF1
 15746                           postinc0	equ	0xFEE
 15747                           wreg	equ	0xFE8
 15748                           postinc1	equ	0xFE6
 15749                           fsr1h	equ	0xFE2
 15750                           fsr1l	equ	0xFE1
 15751                           indf2	equ	0xFDF
 15752                           postinc2	equ	0xFDE
 15753                           postdec2	equ	0xFDD
 15754                           fsr2h	equ	0xFDA
 15755                           fsr2l	equ	0xFD9
 15756                           status	equ	0xFD8
 15757                           
 15758 ;; *************** function _BootTest *****************
 15759 ;; Defined at:
 15760 ;;		line 629 in file "mini-project-clock.c"
 15761 ;; Parameters:    Size  Location     Type
 15762 ;;		None
 15763 ;; Auto vars:     Size  Location     Type
 15764 ;;		None
 15765 ;; Return value:  Size  Location     Type
 15766 ;;                  1    wreg      void 
 15767 ;; Registers used:
 15768 ;;		wreg, status,2, status,0, cstack
 15769 ;; Tracked objects:
 15770 ;;		On entry : 0/0
 15771 ;;		On exit  : 0/0
 15772 ;;		Unchanged: 0/0
 15773 ;; Data sizes:     COMRAM   BANK0   BANK1   BANK2   BANK3   BANK4   BANK5   BANK6   BANK7   BANK8   BANK9  BANK10  BANK1
      +1  BANK12  BANK13  BANK14  BANK15
 15774 ;;      Params:         0       0       0       0       0       0       0       0       0       0       0       0       
      +0       0       0       0       0
 15775 ;;      Locals:         0       0       0       0       0       0       0       0       0       0       0       0       
      +0       0       0       0       0
 15776 ;;      Temps:          0       0       0       0       0       0       0       0       0       0       0       0       
      +0       0       0       0       0
 15777 ;;      Totals:         0       0       0       0       0       0       0       0       0       0       0       0       
      +0       0       0       0       0
 15778 ;;Total ram usage:        0 bytes
 15779 ;; Hardware stack levels used:    1
 15780 ;; Hardware stack levels required when called:    5
 15781 ;; This function calls:
 15782 ;;		_Delay10KTCYx
 15783 ;;		_Delay10TCYx
 15784 ;; This function is called by:
 15785 ;;		_main
 15786 ;; This function uses a non-reentrant model
 15787 ;;
 15788                           
 15789                           	psect	text38
 15790  0071D6                     __ptext38:
 15791                           	opt stack 0
 15792  0071D6                     _BootTest:
 15793                           	opt stack 25
 15794                           
 15795                           ;mini-project-clock.c: 630: disp_LEDS = 0xFF;
 15796                           
 15797                           ; BSR set to: 0
 15798                           ;incstack = 0
 15799  0071D6  684C               	setf	_disp_LEDS,c	;volatile
 15800                           
 15801                           ;mini-project-clock.c: 631: disp_U1 = 0x00;
 15802  0071D8  0E00               	movlw	0
 15803  0071DA  6E33               	movwf	_disp_U1,c	;volatile
 15804                           
 15805                           ;mini-project-clock.c: 632: disp_U2 = 0x00;
 15806  0071DC  0E00               	movlw	0
 15807  0071DE  6E34               	movwf	_disp_U2,c	;volatile
 15808                           
 15809                           ;mini-project-clock.c: 633: while (ms_count3 <= 800) {
 15810  0071E0  D00E               	goto	l12874
 15811  0071E2                     l327:
 15812                           
 15813                           ;mini-project-clock.c: 634: LATJbits.LATJ6 = 1;
 15814  0071E2  8C91               	bsf	3985,6,c	;volatile
 15815                           
 15816                           ;mini-project-clock.c: 635: Delay10TCYx(119);
 15817  0071E4  0E77               	movlw	119
 15818  0071E6  ECC4  F039         	call	_Delay10TCYx
 15819                           
 15820                           ;mini-project-clock.c: 636: Delay10TCYx(119);
 15821  0071EA  0E77               	movlw	119
 15822  0071EC  ECC4  F039         	call	_Delay10TCYx
 15823                           
 15824                           ;mini-project-clock.c: 637: LATJbits.LATJ6 = 0;
 15825  0071F0  9C91               	bcf	3985,6,c	;volatile
 15826                           
 15827                           ;mini-project-clock.c: 638: Delay10TCYx(119);
 15828  0071F2  0E77               	movlw	119
 15829  0071F4  ECC4  F039         	call	_Delay10TCYx
 15830                           
 15831                           ;mini-project-clock.c: 639: Delay10TCYx(119);
 15832  0071F8  0E77               	movlw	119
 15833  0071FA  ECC4  F039         	call	_Delay10TCYx
 15834  0071FE                     l12874:
 15835  0071FE  0E21               	movlw	33
 15836  007200  5C2E               	subwf	_ms_count3,w,c	;volatile
 15837  007202  0E03               	movlw	3
 15838  007204  582F               	subwfb	_ms_count3+1,w,c	;volatile
 15839  007206  A0D8               	btfss	status,0,c
 15840  007208  D7EC               	goto	l327
 15841                           
 15842                           ;mini-project-clock.c: 640: }
 15843                           ;mini-project-clock.c: 641: disp_LEDS = 0x00;
 15844  00720A  0E00               	movlw	0
 15845  00720C  6E4C               	movwf	_disp_LEDS,c	;volatile
 15846                           
 15847                           ;mini-project-clock.c: 642: disp_U1 = 0xFF;
 15848  00720E  6833               	setf	_disp_U1,c	;volatile
 15849                           
 15850                           ;mini-project-clock.c: 643: disp_U2 = 0xFF;
 15851  007210  6834               	setf	_disp_U2,c	;volatile
 15852                           
 15853                           ;mini-project-clock.c: 644: Delay10KTCYx(250);
 15854  007212  0EFA               	movlw	250
 15855  007214  EC88  F039         	call	_Delay10KTCYx
 15856  007218  0012               	return		;funcret
 15857  00721A                     __end_of_BootTest:
 15858                           	opt stack 0
 15859                           tblptru	equ	0xFF8
 15860                           tblptrh	equ	0xFF7
 15861                           tblptrl	equ	0xFF6
 15862                           tablat	equ	0xFF5
 15863                           prodh	equ	0xFF4
 15864                           prodl	equ	0xFF3
 15865                           intcon	equ	0xFF2
 15866                           intcon2	equ	0xFF1
 15867                           postinc0	equ	0xFEE
 15868                           wreg	equ	0xFE8
 15869                           postinc1	equ	0xFE6
 15870                           fsr1h	equ	0xFE2
 15871                           fsr1l	equ	0xFE1
 15872                           indf2	equ	0xFDF
 15873                           postinc2	equ	0xFDE
 15874                           postdec2	equ	0xFDD
 15875                           fsr2h	equ	0xFDA
 15876                           fsr2l	equ	0xFD9
 15877                           status	equ	0xFD8
 15878                           
 15879 ;; *************** function _Delay10TCYx *****************
 15880 ;; Defined at:
 15881 ;;		line 8 in file "C:\Program Files (x86)\Microchip\xc8\v1.38\sources\pic18\d10tcyx.c"
 15882 ;; Parameters:    Size  Location     Type
 15883 ;;  unit            1    wreg     unsigned char 
 15884 ;; Auto vars:     Size  Location     Type
 15885 ;;  unit            1    0[BANK0 ] unsigned char 
 15886 ;; Return value:  Size  Location     Type
 15887 ;;                  1    wreg      void 
 15888 ;; Registers used:
 15889 ;;		wreg
 15890 ;; Tracked objects:
 15891 ;;		On entry : 0/0
 15892 ;;		On exit  : 0/0
 15893 ;;		Unchanged: 0/0
 15894 ;; Data sizes:     COMRAM   BANK0   BANK1   BANK2   BANK3   BANK4   BANK5   BANK6   BANK7   BANK8   BANK9  BANK10  BANK1
      +1  BANK12  BANK13  BANK14  BANK15
 15895 ;;      Params:         0       0       0       0       0       0       0       0       0       0       0       0       
      +0       0       0       0       0
 15896 ;;      Locals:         0       1       0       0       0       0       0       0       0       0       0       0       
      +0       0       0       0       0
 15897 ;;      Temps:          0       0       0       0       0       0       0       0       0       0       0       0       
      +0       0       0       0       0
 15898 ;;      Totals:         0       1       0       0       0       0       0       0       0       0       0       0       
      +0       0       0       0       0
 15899 ;;Total ram usage:        1 bytes
 15900 ;; Hardware stack levels used:    1
 15901 ;; Hardware stack levels required when called:    4
 15902 ;; This function calls:
 15903 ;;		Nothing
 15904 ;; This function is called by:
 15905 ;;		_BootTest
 15906 ;;		_SoundAlarm1
 15907 ;;		_SoundAlarm2
 15908 ;; This function uses a non-reentrant model
 15909 ;;
 15910                           
 15911                           	psect	text39
 15912  007388                     __ptext39:
 15913                           	opt stack 0
 15914  007388                     _Delay10TCYx:
 15915                           	opt stack 25
 15916                           
 15917                           ;incstack = 0
 15918                           ;Delay10TCYx@unit stored from wreg
 15919  007388  0100               	movlb	0	; () banked
 15920  00738A  6F60               	movwf	Delay10TCYx@unit& (0+255),b
 15921  00738C  0E03               	movlw	3
 15922  00738E                     u37887:
 15923  00738E  2EE8               	decfsz	wreg,f,c
 15924  007390  D7FE               	goto	u37887
 15925  007392  F000               	nop	
 15926  007394  0100               	movlb	0	; () banked
 15927  007396  2F60               	decfsz	Delay10TCYx@unit& (0+255),f,b
 15928  007398  D7F9               	goto	l12842
 15929  00739A  0012               	return	
 15930  00739C                     __end_of_Delay10TCYx:
 15931                           	opt stack 0
 15932                           tblptru	equ	0xFF8
 15933                           tblptrh	equ	0xFF7
 15934                           tblptrl	equ	0xFF6
 15935                           tablat	equ	0xFF5
 15936                           prodh	equ	0xFF4
 15937                           prodl	equ	0xFF3
 15938                           intcon	equ	0xFF2
 15939                           intcon2	equ	0xFF1
 15940                           postinc0	equ	0xFEE
 15941                           wreg	equ	0xFE8
 15942                           postinc1	equ	0xFE6
 15943                           fsr1h	equ	0xFE2
 15944                           fsr1l	equ	0xFE1
 15945                           indf2	equ	0xFDF
 15946                           postinc2	equ	0xFDE
 15947                           postdec2	equ	0xFDD
 15948                           fsr2h	equ	0xFDA
 15949                           fsr2l	equ	0xFD9
 15950                           status	equ	0xFD8
 15951                           
 15952 ;; *************** function _Delay10KTCYx *****************
 15953 ;; Defined at:
 15954 ;;		line 8 in file "C:\Program Files (x86)\Microchip\xc8\v1.38\sources\pic18\d10ktcyx.c"
 15955 ;; Parameters:    Size  Location     Type
 15956 ;;  unit            1    wreg     unsigned char 
 15957 ;; Auto vars:     Size  Location     Type
 15958 ;;  unit            1    1[BANK0 ] unsigned char 
 15959 ;; Return value:  Size  Location     Type
 15960 ;;                  1    wreg      void 
 15961 ;; Registers used:
 15962 ;;		wreg
 15963 ;; Tracked objects:
 15964 ;;		On entry : 0/0
 15965 ;;		On exit  : 0/0
 15966 ;;		Unchanged: 0/0
 15967 ;; Data sizes:     COMRAM   BANK0   BANK1   BANK2   BANK3   BANK4   BANK5   BANK6   BANK7   BANK8   BANK9  BANK10  BANK1
      +1  BANK12  BANK13  BANK14  BANK15
 15968 ;;      Params:         0       0       0       0       0       0       0       0       0       0       0       0       
      +0       0       0       0       0
 15969 ;;      Locals:         0       1       0       0       0       0       0       0       0       0       0       0       
      +0       0       0       0       0
 15970 ;;      Temps:          0       1       0       0       0       0       0       0       0       0       0       0       
      +0       0       0       0       0
 15971 ;;      Totals:         0       2       0       0       0       0       0       0       0       0       0       0       
      +0       0       0       0       0
 15972 ;;Total ram usage:        2 bytes
 15973 ;; Hardware stack levels used:    1
 15974 ;; Hardware stack levels required when called:    4
 15975 ;; This function calls:
 15976 ;;		Nothing
 15977 ;; This function is called by:
 15978 ;;		_main
 15979 ;;		_BootTest
 15980 ;;		_SetSecs
 15981 ;;		_SetMins
 15982 ;;		_SetHrs
 15983 ;;		_SetDay
 15984 ;;		_SetMonth
 15985 ;;		_SetYear
 15986 ;;		_SecsFlash
 15987 ;;		_MinsFlash
 15988 ;;		_HrsFlash
 15989 ;;		_DayFlash
 15990 ;;		_MonthFlash
 15991 ;;		_YearFlash
 15992 ;;		_Alarm1Flash
 15993 ;;		_SetAlarm1
 15994 ;;		_SoundAlarm1
 15995 ;;		_Alarm2Flash
 15996 ;;		_SetAlarm2
 15997 ;;		_SoundAlarm2
 15998 ;; This function uses a non-reentrant model
 15999 ;;
 16000                           
 16001                           	psect	text40
 16002  007310                     __ptext40:
 16003                           	opt stack 0
 16004  007310                     _Delay10KTCYx:
 16005                           	opt stack 25
 16006                           
 16007                           ; BSR set to: 0
 16008                           ;incstack = 0
 16009                           ;Delay10KTCYx@unit stored from wreg
 16010  007310  0100               	movlb	0	; () banked
 16011  007312  6F61               	movwf	Delay10KTCYx@unit& (0+255),b
 16012  007314  0E0D               	movlw	13
 16013  007316  0100               	movlb	0	; () banked
 16014  007318  6F60               	movwf	??_Delay10KTCYx& (0+255),b
 16015  00731A  0EFC               	movlw	252
 16016  00731C                     u37897:
 16017  00731C  2EE8               	decfsz	wreg,f,c
 16018  00731E  D7FE               	goto	u37897
 16019  007320  2F60               	decfsz	??_Delay10KTCYx& (0+255),f,b
 16020  007322  D7FC               	goto	u37897
 16021  007324  0100               	movlb	0	; () banked
 16022  007326  2F61               	decfsz	Delay10KTCYx@unit& (0+255),f,b
 16023  007328  D7F5               	goto	l12084
 16024  00732A  0012               	return	
 16025  00732C                     __end_of_Delay10KTCYx:
 16026                           	opt stack 0
 16027                           tblptru	equ	0xFF8
 16028                           tblptrh	equ	0xFF7
 16029                           tblptrl	equ	0xFF6
 16030                           tablat	equ	0xFF5
 16031                           prodh	equ	0xFF4
 16032                           prodl	equ	0xFF3
 16033                           intcon	equ	0xFF2
 16034                           intcon2	equ	0xFF1
 16035                           postinc0	equ	0xFEE
 16036                           wreg	equ	0xFE8
 16037                           postinc1	equ	0xFE6
 16038                           fsr1h	equ	0xFE2
 16039                           fsr1l	equ	0xFE1
 16040                           indf2	equ	0xFDF
 16041                           postinc2	equ	0xFDE
 16042                           postdec2	equ	0xFDD
 16043                           fsr2h	equ	0xFDA
 16044                           fsr2l	equ	0xFD9
 16045                           status	equ	0xFD8
 16046                           
 16047 ;; *************** function _lp_isr *****************
 16048 ;; Defined at:
 16049 ;;		line 358 in file "mini-project-clock.c"
 16050 ;; Parameters:    Size  Location     Type
 16051 ;;		None
 16052 ;; Auto vars:     Size  Location     Type
 16053 ;;		None
 16054 ;; Return value:  Size  Location     Type
 16055 ;;                  1    wreg      void 
 16056 ;; Registers used:
 16057 ;;		wreg, status,2, status,0, cstack
 16058 ;; Tracked objects:
 16059 ;;		On entry : 0/0
 16060 ;;		On exit  : 0/0
 16061 ;;		Unchanged: 0/0
 16062 ;; Data sizes:     COMRAM   BANK0   BANK1   BANK2   BANK3   BANK4   BANK5   BANK6   BANK7   BANK8   BANK9  BANK10  BANK1
      +1  BANK12  BANK13  BANK14  BANK15
 16063 ;;      Params:         0       0       0       0       0       0       0       0       0       0       0       0       
      +0       0       0       0       0
 16064 ;;      Locals:         0       0       0       0       0       0       0       0       0       0       0       0       
      +0       0       0       0       0
 16065 ;;      Temps:         17       0       0       0       0       0       0       0       0       0       0       0       
      +0       0       0       0       0
 16066 ;;      Totals:        17       0       0       0       0       0       0       0       0       0       0       0       
      +0       0       0       0       0
 16067 ;;Total ram usage:       17 bytes
 16068 ;; Hardware stack levels used:    1
 16069 ;; Hardware stack levels required when called:    3
 16070 ;; This function calls:
 16071 ;;		_Timer0_isr
 16072 ;;		i1_WriteTimer0
 16073 ;; This function is called by:
 16074 ;;		Interrupt level 1
 16075 ;; This function uses a non-reentrant model
 16076 ;;
 16077                           
 16078                           	psect	intcodelo
 16079  000018                     __pintcodelo:
 16080                           	opt stack 0
 16081  000018                     _lp_isr:
 16082                           	opt stack 22
 16083                           
 16084                           ; BSR set to: 0
 16085                           ;incstack = 0
 16086  000018  804D               	bsf	btemp,0,c	;set compiler interrupt flag (level 1)
 16087  00001A  CFD8 F017          	movff	status,??_lp_isr
 16088  00001E  CFE8 F018          	movff	wreg,??_lp_isr+1
 16089  000022  CFE0 F019          	movff	bsr,??_lp_isr+2
 16090  000026  CFFA F01A          	movff	pclath,??_lp_isr+3
 16091  00002A  CFFB F01B          	movff	pclatu,??_lp_isr+4
 16092  00002E  CFE9 F01C          	movff	fsr0l,??_lp_isr+5
 16093  000032  CFEA F01D          	movff	fsr0h,??_lp_isr+6
 16094  000036  CFE1 F01E          	movff	fsr1l,??_lp_isr+7
 16095  00003A  CFE2 F01F          	movff	fsr1h,??_lp_isr+8
 16096  00003E  CFD9 F020          	movff	fsr2l,??_lp_isr+9
 16097  000042  CFDA F021          	movff	fsr2h,??_lp_isr+10
 16098  000046  CFF3 F022          	movff	prodl,??_lp_isr+11
 16099  00004A  CFF4 F023          	movff	prodh,??_lp_isr+12
 16100  00004E  CFF6 F024          	movff	tblptrl,??_lp_isr+13
 16101  000052  CFF7 F025          	movff	tblptrh,??_lp_isr+14
 16102  000056  CFF8 F026          	movff	tblptru,??_lp_isr+15
 16103  00005A  CFF5 F027          	movff	tablat,??_lp_isr+16
 16104                           
 16105                           ;mini-project-clock.c: 359: if(INTCONbits.TMR0IF == 1) {
 16106  00005E  A4F2               	btfss	intcon,2,c	;volatile
 16107  000060  D009               	goto	i1l213
 16108                           
 16109                           ;mini-project-clock.c: 360: INTCONbits.TMR0IF = 0;
 16110  000062  94F2               	bcf	intcon,2,c	;volatile
 16111                           
 16112                           ;mini-project-clock.c: 361: WriteTimer0(63036);
 16113  000064  0EF6               	movlw	246
 16114  000066  6E14               	movwf	i1WriteTimer0@timer0+1,c
 16115  000068  0E3C               	movlw	60
 16116  00006A  6E13               	movwf	i1WriteTimer0@timer0,c
 16117  00006C  ECE0  F039         	call	i1_WriteTimer0	;wreg free
 16118                           
 16119                           ;mini-project-clock.c: 362: Timer0_isr();
 16120  000070  ECC0  F038         	call	_Timer0_isr	;wreg free
 16121  000074                     i1l213:
 16122  000074  C027  FFF5         	movff	??_lp_isr+16,tablat
 16123  000078  C026  FFF8         	movff	??_lp_isr+15,tblptru
 16124  00007C  C025  FFF7         	movff	??_lp_isr+14,tblptrh
 16125  000080  C024  FFF6         	movff	??_lp_isr+13,tblptrl
 16126  000084  C023  FFF4         	movff	??_lp_isr+12,prodh
 16127  000088  C022  FFF3         	movff	??_lp_isr+11,prodl
 16128  00008C  C021  FFDA         	movff	??_lp_isr+10,fsr2h
 16129  000090  C020  FFD9         	movff	??_lp_isr+9,fsr2l
 16130  000094  C01F  FFE2         	movff	??_lp_isr+8,fsr1h
 16131  000098  C01E  FFE1         	movff	??_lp_isr+7,fsr1l
 16132  00009C  C01D  FFEA         	movff	??_lp_isr+6,fsr0h
 16133  0000A0  C01C  FFE9         	movff	??_lp_isr+5,fsr0l
 16134  0000A4  C01B  FFFB         	movff	??_lp_isr+4,pclatu
 16135  0000A8  C01A  FFFA         	movff	??_lp_isr+3,pclath
 16136  0000AC  C019  FFE0         	movff	??_lp_isr+2,bsr
 16137  0000B0  C018  FFE8         	movff	??_lp_isr+1,wreg
 16138  0000B4  C017  FFD8         	movff	??_lp_isr,status
 16139  0000B8  904D               	bcf	btemp,0,c	;clear compiler interrupt flag (level 1)
 16140  0000BA  0010               	retfie	
 16141  0000BC                     __end_of_lp_isr:
 16142                           	opt stack 0
 16143                           pclatu	equ	0xFFB
 16144                           pclath	equ	0xFFA
 16145                           tblptru	equ	0xFF8
 16146                           tblptrh	equ	0xFF7
 16147                           tblptrl	equ	0xFF6
 16148                           tablat	equ	0xFF5
 16149                           prodh	equ	0xFF4
 16150                           prodl	equ	0xFF3
 16151                           intcon	equ	0xFF2
 16152                           intcon2	equ	0xFF1
 16153                           postinc0	equ	0xFEE
 16154                           fsr0h	equ	0xFEA
 16155                           fsr0l	equ	0xFE9
 16156                           wreg	equ	0xFE8
 16157                           postinc1	equ	0xFE6
 16158                           fsr1h	equ	0xFE2
 16159                           fsr1l	equ	0xFE1
 16160                           bsr	equ	0xFE0
 16161                           indf2	equ	0xFDF
 16162                           postinc2	equ	0xFDE
 16163                           postdec2	equ	0xFDD
 16164                           fsr2h	equ	0xFDA
 16165                           fsr2l	equ	0xFD9
 16166                           status	equ	0xFD8
 16167                           
 16168 ;; *************** function i1_WriteTimer0 *****************
 16169 ;; Defined at:
 16170 ;;		line 16 in file "C:\Program Files (x86)\Microchip\xc8\v1.38\sources\pic18\plib\Timers\t0write.c"
 16171 ;; Parameters:    Size  Location     Type
 16172 ;;  timer0          2   18[COMRAM] unsigned int 
 16173 ;; Auto vars:     Size  Location     Type
 16174 ;;  WriteTimer0     2   20[COMRAM] struct Timers
 16175 ;; Return value:  Size  Location     Type
 16176 ;;                  1    wreg      void 
 16177 ;; Registers used:
 16178 ;;		None
 16179 ;; Tracked objects:
 16180 ;;		On entry : 0/0
 16181 ;;		On exit  : 0/0
 16182 ;;		Unchanged: 0/0
 16183 ;; Data sizes:     COMRAM   BANK0   BANK1   BANK2   BANK3   BANK4   BANK5   BANK6   BANK7   BANK8   BANK9  BANK10  BANK1
      +1  BANK12  BANK13  BANK14  BANK15
 16184 ;;      Params:         2       0       0       0       0       0       0       0       0       0       0       0       
      +0       0       0       0       0
 16185 ;;      Locals:         2       0       0       0       0       0       0       0       0       0       0       0       
      +0       0       0       0       0
 16186 ;;      Temps:          0       0       0       0       0       0       0       0       0       0       0       0       
      +0       0       0       0       0
 16187 ;;      Totals:         4       0       0       0       0       0       0       0       0       0       0       0       
      +0       0       0       0       0
 16188 ;;Total ram usage:        4 bytes
 16189 ;; Hardware stack levels used:    1
 16190 ;; Hardware stack levels required when called:    2
 16191 ;; This function calls:
 16192 ;;		Nothing
 16193 ;; This function is called by:
 16194 ;;		_lp_isr
 16195 ;; This function uses a non-reentrant model
 16196 ;;
 16197                           
 16198                           	psect	text42
 16199  0073C0                     __ptext42:
 16200                           	opt stack 0
 16201  0073C0                     i1_WriteTimer0:
 16202                           	opt stack 22
 16203                           
 16204                           ;incstack = 0
 16205  0073C0  C013  F015         	movff	i1WriteTimer0@timer0,i1WriteTimer0@timer
 16206  0073C4  C014  F016         	movff	i1WriteTimer0@timer0+1,i1WriteTimer0@timer+1
 16207  0073C8  C016  FFD7         	movff	i1WriteTimer0@timer+1,4055	;volatile
 16208  0073CC  C015  FFD6         	movff	i1WriteTimer0@timer,4054	;volatile
 16209  0073D0  0012               	return		;funcret
 16210  0073D2                     __end_ofi1_WriteTimer0:
 16211                           	opt stack 0
 16212                           pclatu	equ	0xFFB
 16213                           pclath	equ	0xFFA
 16214                           tblptru	equ	0xFF8
 16215                           tblptrh	equ	0xFF7
 16216                           tblptrl	equ	0xFF6
 16217                           tablat	equ	0xFF5
 16218                           prodh	equ	0xFF4
 16219                           prodl	equ	0xFF3
 16220                           intcon	equ	0xFF2
 16221                           intcon2	equ	0xFF1
 16222                           postinc0	equ	0xFEE
 16223                           fsr0h	equ	0xFEA
 16224                           fsr0l	equ	0xFE9
 16225                           wreg	equ	0xFE8
 16226                           postinc1	equ	0xFE6
 16227                           fsr1h	equ	0xFE2
 16228                           fsr1l	equ	0xFE1
 16229                           bsr	equ	0xFE0
 16230                           indf2	equ	0xFDF
 16231                           postinc2	equ	0xFDE
 16232                           postdec2	equ	0xFDD
 16233                           fsr2h	equ	0xFDA
 16234                           fsr2l	equ	0xFD9
 16235                           status	equ	0xFD8
 16236                           
 16237 ;; *************** function _Timer0_isr *****************
 16238 ;; Defined at:
 16239 ;;		line 376 in file "mini-project-clock.c"
 16240 ;; Parameters:    Size  Location     Type
 16241 ;;		None
 16242 ;; Auto vars:     Size  Location     Type
 16243 ;;		None
 16244 ;; Return value:  Size  Location     Type
 16245 ;;                  1    wreg      void 
 16246 ;; Registers used:
 16247 ;;		wreg, status,2, status,0
 16248 ;; Tracked objects:
 16249 ;;		On entry : 0/0
 16250 ;;		On exit  : 0/0
 16251 ;;		Unchanged: 0/0
 16252 ;; Data sizes:     COMRAM   BANK0   BANK1   BANK2   BANK3   BANK4   BANK5   BANK6   BANK7   BANK8   BANK9  BANK10  BANK1
      +1  BANK12  BANK13  BANK14  BANK15
 16253 ;;      Params:         0       0       0       0       0       0       0       0       0       0       0       0       
      +0       0       0       0       0
 16254 ;;      Locals:         0       0       0       0       0       0       0       0       0       0       0       0       
      +0       0       0       0       0
 16255 ;;      Temps:          0       0       0       0       0       0       0       0       0       0       0       0       
      +0       0       0       0       0
 16256 ;;      Totals:         0       0       0       0       0       0       0       0       0       0       0       0       
      +0       0       0       0       0
 16257 ;;Total ram usage:        0 bytes
 16258 ;; Hardware stack levels used:    1
 16259 ;; Hardware stack levels required when called:    2
 16260 ;; This function calls:
 16261 ;;		Nothing
 16262 ;; This function is called by:
 16263 ;;		_lp_isr
 16264 ;; This function uses a non-reentrant model
 16265 ;;
 16266                           
 16267                           	psect	text43
 16268  007180                     __ptext43:
 16269                           	opt stack 0
 16270  007180                     _Timer0_isr:
 16271                           	opt stack 22
 16272                           
 16273                           ;mini-project-clock.c: 377: switch(multiplex_index) {
 16274                           
 16275                           ;incstack = 0
 16276  007180  D015               	goto	i1l7418
 16277  007182                     i1l222:
 16278                           
 16279                           ;mini-project-clock.c: 379: LATHbits.LH0 = 1;
 16280  007182  8090               	bsf	3984,0,c	;volatile
 16281                           
 16282                           ;mini-project-clock.c: 380: LATHbits.LH1 = 1;
 16283  007184  8290               	bsf	3984,1,c	;volatile
 16284                           
 16285                           ;mini-project-clock.c: 381: LATAbits.LA4 = 1;
 16286  007186  8889               	bsf	3977,4,c	;volatile
 16287                           
 16288                           ;mini-project-clock.c: 382: LATF = disp_LEDS;
 16289  007188  C04C  FF8E         	movff	_disp_LEDS,3982	;volatile
 16290                           
 16291                           ;mini-project-clock.c: 383: break;
 16292  00718C  D01A               	goto	i1l7420
 16293  00718E                     i1l224:
 16294                           
 16295                           ;mini-project-clock.c: 385: LATHbits.LH0 = 0;
 16296  00718E  9090               	bcf	3984,0,c	;volatile
 16297                           
 16298                           ;mini-project-clock.c: 386: LATHbits.LH1 = 1;
 16299  007190  8290               	bsf	3984,1,c	;volatile
 16300                           
 16301                           ;mini-project-clock.c: 387: LATAbits.LA4 = 0;
 16302  007192  9889               	bcf	3977,4,c	;volatile
 16303                           
 16304                           ;mini-project-clock.c: 388: LATF = disp_U1 & dp_mask;
 16305  007194  5033               	movf	_disp_U1,w,c	;volatile
 16306  007196  144A               	andwf	_dp_mask,w,c	;volatile
 16307  007198  6E8E               	movwf	3982,c	;volatile
 16308                           
 16309                           ;mini-project-clock.c: 389: break;
 16310  00719A  D013               	goto	i1l7420
 16311  00719C                     i1l225:
 16312                           
 16313                           ;mini-project-clock.c: 391: LATHbits.LH0 = 1;
 16314  00719C  8090               	bsf	3984,0,c	;volatile
 16315                           
 16316                           ;mini-project-clock.c: 392: LATHbits.LH1 = 0;
 16317  00719E  9290               	bcf	3984,1,c	;volatile
 16318                           
 16319                           ;mini-project-clock.c: 393: LATAbits.LA4 = 0;
 16320  0071A0  9889               	bcf	3977,4,c	;volatile
 16321                           
 16322                           ;mini-project-clock.c: 394: LATF = disp_U2;
 16323  0071A2  C034  FF8E         	movff	_disp_U2,3982	;volatile
 16324  0071A6                     i1l7414:
 16325                           
 16326                           ;mini-project-clock.c: 398: multiplex_index = 0;
 16327  0071A6  0E00               	movlw	0
 16328  0071A8  6E4B               	movwf	_multiplex_index,c	;volatile
 16329                           
 16330                           ;mini-project-clock.c: 400: }
 16331                           
 16332                           ;mini-project-clock.c: 399: break;
 16333  0071AA  D00B               	goto	i1l7420
 16334  0071AC                     i1l7418:
 16335  0071AC  504B               	movf	_multiplex_index,w,c	;volatile
 16336                           
 16337                           ; Switch size 1, requested type "space"
 16338                           ; Number of cases is 3, Range of values is 1 to 3
 16339                           ; switch strategies available:
 16340                           ; Name         Instructions Cycles
 16341                           ; simple_byte           10     6 (average)
 16342                           ;	Chosen strategy is simple_byte
 16343  0071AE  0A01               	xorlw	1	; case 1
 16344  0071B0  B4D8               	btfsc	status,2,c
 16345  0071B2  D7E7               	goto	i1l222
 16346  0071B4  0A03               	xorlw	3	; case 2
 16347  0071B6  B4D8               	btfsc	status,2,c
 16348  0071B8  D7EA               	goto	i1l224
 16349  0071BA  0A01               	xorlw	1	; case 3
 16350  0071BC  B4D8               	btfsc	status,2,c
 16351  0071BE  D7EE               	goto	i1l225
 16352  0071C0  D7F2               	goto	i1l7414
 16353  0071C2                     i1l7420:
 16354                           
 16355                           ;mini-project-clock.c: 401: multiplex_index++;
 16356  0071C2  2A4B               	incf	_multiplex_index,f,c	;volatile
 16357                           
 16358                           ;mini-project-clock.c: 402: ms_count0++;
 16359  0071C4  4A28               	infsnz	_ms_count0,f,c	;volatile
 16360  0071C6  2A29               	incf	_ms_count0+1,f,c	;volatile
 16361                           
 16362                           ;mini-project-clock.c: 403: ms_count1++;
 16363  0071C8  4A2A               	infsnz	_ms_count1,f,c	;volatile
 16364  0071CA  2A2B               	incf	_ms_count1+1,f,c	;volatile
 16365                           
 16366                           ;mini-project-clock.c: 404: ms_count2++;
 16367  0071CC  4A2C               	infsnz	_ms_count2,f,c	;volatile
 16368  0071CE  2A2D               	incf	_ms_count2+1,f,c	;volatile
 16369                           
 16370                           ;mini-project-clock.c: 405: ms_count3++;
 16371  0071D0  4A2E               	infsnz	_ms_count3,f,c	;volatile
 16372  0071D2  2A2F               	incf	_ms_count3+1,f,c	;volatile
 16373  0071D4  0012               	return		;funcret
 16374  0071D6                     __end_of_Timer0_isr:
 16375                           	opt stack 0
 16376                           pclatu	equ	0xFFB
 16377                           pclath	equ	0xFFA
 16378                           tblptru	equ	0xFF8
 16379                           tblptrh	equ	0xFF7
 16380                           tblptrl	equ	0xFF6
 16381                           tablat	equ	0xFF5
 16382                           prodh	equ	0xFF4
 16383                           prodl	equ	0xFF3
 16384                           intcon	equ	0xFF2
 16385                           intcon2	equ	0xFF1
 16386                           postinc0	equ	0xFEE
 16387                           fsr0h	equ	0xFEA
 16388                           fsr0l	equ	0xFE9
 16389                           wreg	equ	0xFE8
 16390                           postinc1	equ	0xFE6
 16391                           fsr1h	equ	0xFE2
 16392                           fsr1l	equ	0xFE1
 16393                           bsr	equ	0xFE0
 16394                           indf2	equ	0xFDF
 16395                           postinc2	equ	0xFDE
 16396                           postdec2	equ	0xFDD
 16397                           fsr2h	equ	0xFDA
 16398                           fsr2l	equ	0xFD9
 16399                           status	equ	0xFD8
 16400                           
 16401 ;; *************** function _hp_secs_count_isr *****************
 16402 ;; Defined at:
 16403 ;;		line 350 in file "mini-project-clock.c"
 16404 ;; Parameters:    Size  Location     Type
 16405 ;;		None
 16406 ;; Auto vars:     Size  Location     Type
 16407 ;;		None
 16408 ;; Return value:  Size  Location     Type
 16409 ;;                  1    wreg      void 
 16410 ;; Registers used:
 16411 ;;		wreg, status,2, status,0, cstack
 16412 ;; Tracked objects:
 16413 ;;		On entry : 0/0
 16414 ;;		On exit  : 0/0
 16415 ;;		Unchanged: 0/0
 16416 ;; Data sizes:     COMRAM   BANK0   BANK1   BANK2   BANK3   BANK4   BANK5   BANK6   BANK7   BANK8   BANK9  BANK10  BANK1
      +1  BANK12  BANK13  BANK14  BANK15
 16417 ;;      Params:         0       0       0       0       0       0       0       0       0       0       0       0       
      +0       0       0       0       0
 16418 ;;      Locals:         0       0       0       0       0       0       0       0       0       0       0       0       
      +0       0       0       0       0
 16419 ;;      Temps:         14       0       0       0       0       0       0       0       0       0       0       0       
      +0       0       0       0       0
 16420 ;;      Totals:        14       0       0       0       0       0       0       0       0       0       0       0       
      +0       0       0       0       0
 16421 ;;Total ram usage:       14 bytes
 16422 ;; Hardware stack levels used:    1
 16423 ;; Hardware stack levels required when called:    1
 16424 ;; This function calls:
 16425 ;;		_Timer1_isr
 16426 ;;		i2_WriteTimer1
 16427 ;; This function is called by:
 16428 ;;		Interrupt level 2
 16429 ;; This function uses a non-reentrant model
 16430 ;;
 16431                           
 16432                           	psect	intcode
 16433  000008                     __pintcode:
 16434                           	opt stack 0
 16435  000008                     _hp_secs_count_isr:
 16436                           	opt stack 22
 16437                           
 16438                           ;incstack = 0
 16439  000008  824D               	bsf	btemp,1,c	;set compiler interrupt flag (level 2)
 16440  00000A  CFFA F005          	movff	pclath,??_hp_secs_count_isr
 16441  00000E  CFFB F006          	movff	pclatu,??_hp_secs_count_isr+1
 16442  000012  ED4A  F036         	call	int_func,f	;refresh shadow registers
 16443                           pclatu	equ	0xFFB
 16444                           pclath	equ	0xFFA
 16445                           tblptru	equ	0xFF8
 16446                           tblptrh	equ	0xFF7
 16447                           tblptrl	equ	0xFF6
 16448                           tablat	equ	0xFF5
 16449                           prodh	equ	0xFF4
 16450                           prodl	equ	0xFF3
 16451                           intcon	equ	0xFF2
 16452                           intcon2	equ	0xFF1
 16453                           postinc0	equ	0xFEE
 16454                           fsr0h	equ	0xFEA
 16455                           fsr0l	equ	0xFE9
 16456                           wreg	equ	0xFE8
 16457                           postinc1	equ	0xFE6
 16458                           fsr1h	equ	0xFE2
 16459                           fsr1l	equ	0xFE1
 16460                           bsr	equ	0xFE0
 16461                           indf2	equ	0xFDF
 16462                           postinc2	equ	0xFDE
 16463                           postdec2	equ	0xFDD
 16464                           fsr2h	equ	0xFDA
 16465                           fsr2l	equ	0xFD9
 16466                           status	equ	0xFD8
 16467                           
 16468                           	psect	intcode_body
 16469  006C94                     __pintcode_body:
 16470                           	opt stack 22
 16471  006C94                     int_func:
 16472                           	opt stack 22
 16473  006C94  0006               	pop		; remove dummy address from shadow register refresh
 16474  006C96  CFE9 F007          	movff	fsr0l,??_hp_secs_count_isr+2
 16475  006C9A  CFEA F008          	movff	fsr0h,??_hp_secs_count_isr+3
 16476  006C9E  CFE1 F009          	movff	fsr1l,??_hp_secs_count_isr+4
 16477  006CA2  CFE2 F00A          	movff	fsr1h,??_hp_secs_count_isr+5
 16478  006CA6  CFD9 F00B          	movff	fsr2l,??_hp_secs_count_isr+6
 16479  006CAA  CFDA F00C          	movff	fsr2h,??_hp_secs_count_isr+7
 16480  006CAE  CFF3 F00D          	movff	prodl,??_hp_secs_count_isr+8
 16481  006CB2  CFF4 F00E          	movff	prodh,??_hp_secs_count_isr+9
 16482  006CB6  CFF6 F00F          	movff	tblptrl,??_hp_secs_count_isr+10
 16483  006CBA  CFF7 F010          	movff	tblptrh,??_hp_secs_count_isr+11
 16484  006CBE  CFF8 F011          	movff	tblptru,??_hp_secs_count_isr+12
 16485  006CC2  CFF5 F012          	movff	tablat,??_hp_secs_count_isr+13
 16486                           
 16487                           ;mini-project-clock.c: 351: if (PIR1bits.TMR1IF == 1) {
 16488  006CC6  A09E               	btfss	3998,0,c	;volatile
 16489  006CC8  D009               	goto	i2l209
 16490                           
 16491                           ;mini-project-clock.c: 352: PIR1bits.TMR1IF = 0;
 16492  006CCA  909E               	bcf	3998,0,c	;volatile
 16493                           
 16494                           ;mini-project-clock.c: 353: WriteTimer1(32768);
 16495  006CCC  0E80               	movlw	128
 16496  006CCE  6E02               	movwf	i2WriteTimer1@timer1+1,c
 16497  006CD0  0E00               	movlw	0
 16498  006CD2  6E01               	movwf	i2WriteTimer1@timer1,c
 16499  006CD4  ECE9  F039         	call	i2_WriteTimer1	;wreg free
 16500                           
 16501                           ;mini-project-clock.c: 354: Timer1_isr();
 16502  006CD8  ECB9  F039         	call	_Timer1_isr	;wreg free
 16503  006CDC                     i2l209:
 16504  006CDC  C012  FFF5         	movff	??_hp_secs_count_isr+13,tablat
 16505  006CE0  C011  FFF8         	movff	??_hp_secs_count_isr+12,tblptru
 16506  006CE4  C010  FFF7         	movff	??_hp_secs_count_isr+11,tblptrh
 16507  006CE8  C00F  FFF6         	movff	??_hp_secs_count_isr+10,tblptrl
 16508  006CEC  C00E  FFF4         	movff	??_hp_secs_count_isr+9,prodh
 16509  006CF0  C00D  FFF3         	movff	??_hp_secs_count_isr+8,prodl
 16510  006CF4  C00C  FFDA         	movff	??_hp_secs_count_isr+7,fsr2h
 16511  006CF8  C00B  FFD9         	movff	??_hp_secs_count_isr+6,fsr2l
 16512  006CFC  C00A  FFE2         	movff	??_hp_secs_count_isr+5,fsr1h
 16513  006D00  C009  FFE1         	movff	??_hp_secs_count_isr+4,fsr1l
 16514  006D04  C008  FFEA         	movff	??_hp_secs_count_isr+3,fsr0h
 16515  006D08  C007  FFE9         	movff	??_hp_secs_count_isr+2,fsr0l
 16516  006D0C  C006  FFFB         	movff	??_hp_secs_count_isr+1,pclatu
 16517  006D10  C005  FFFA         	movff	??_hp_secs_count_isr,pclath
 16518  006D14  924D               	bcf	btemp,1,c	;clear compiler interrupt flag (level 2)
 16519  006D16  0011               	retfie		f
 16520  006D18                     __end_of_hp_secs_count_isr:
 16521                           	opt stack 0
 16522                           pclatu	equ	0xFFB
 16523                           pclath	equ	0xFFA
 16524                           tblptru	equ	0xFF8
 16525                           tblptrh	equ	0xFF7
 16526                           tblptrl	equ	0xFF6
 16527                           tablat	equ	0xFF5
 16528                           prodh	equ	0xFF4
 16529                           prodl	equ	0xFF3
 16530                           intcon	equ	0xFF2
 16531                           intcon2	equ	0xFF1
 16532                           postinc0	equ	0xFEE
 16533                           fsr0h	equ	0xFEA
 16534                           fsr0l	equ	0xFE9
 16535                           wreg	equ	0xFE8
 16536                           postinc1	equ	0xFE6
 16537                           fsr1h	equ	0xFE2
 16538                           fsr1l	equ	0xFE1
 16539                           bsr	equ	0xFE0
 16540                           indf2	equ	0xFDF
 16541                           postinc2	equ	0xFDE
 16542                           postdec2	equ	0xFDD
 16543                           fsr2h	equ	0xFDA
 16544                           fsr2l	equ	0xFD9
 16545                           status	equ	0xFD8
 16546                           
 16547 ;; *************** function i2_WriteTimer1 *****************
 16548 ;; Defined at:
 16549 ;;		line 14 in file "C:\Program Files (x86)\Microchip\xc8\v1.38\sources\pic18\plib\Timers\t1write.c"
 16550 ;; Parameters:    Size  Location     Type
 16551 ;;  timer1          2    0[COMRAM] unsigned int 
 16552 ;; Auto vars:     Size  Location     Type
 16553 ;;  WriteTimer1     2    2[COMRAM] struct Timers
 16554 ;; Return value:  Size  Location     Type
 16555 ;;                  1    wreg      void 
 16556 ;; Registers used:
 16557 ;;		None
 16558 ;; Tracked objects:
 16559 ;;		On entry : 0/0
 16560 ;;		On exit  : 0/0
 16561 ;;		Unchanged: 0/0
 16562 ;; Data sizes:     COMRAM   BANK0   BANK1   BANK2   BANK3   BANK4   BANK5   BANK6   BANK7   BANK8   BANK9  BANK10  BANK1
      +1  BANK12  BANK13  BANK14  BANK15
 16563 ;;      Params:         2       0       0       0       0       0       0       0       0       0       0       0       
      +0       0       0       0       0
 16564 ;;      Locals:         2       0       0       0       0       0       0       0       0       0       0       0       
      +0       0       0       0       0
 16565 ;;      Temps:          0       0       0       0       0       0       0       0       0       0       0       0       
      +0       0       0       0       0
 16566 ;;      Totals:         4       0       0       0       0       0       0       0       0       0       0       0       
      +0       0       0       0       0
 16567 ;;Total ram usage:        4 bytes
 16568 ;; Hardware stack levels used:    1
 16569 ;; This function calls:
 16570 ;;		Nothing
 16571 ;; This function is called by:
 16572 ;;		_hp_secs_count_isr
 16573 ;; This function uses a non-reentrant model
 16574 ;;
 16575                           
 16576                           	psect	text45
 16577  0073D2                     __ptext45:
 16578                           	opt stack 0
 16579  0073D2                     i2_WriteTimer1:
 16580                           	opt stack 22
 16581                           
 16582                           ;incstack = 0
 16583  0073D2  C001  F003         	movff	i2WriteTimer1@timer1,i2WriteTimer1@timer
 16584  0073D6  C002  F004         	movff	i2WriteTimer1@timer1+1,i2WriteTimer1@timer+1
 16585  0073DA  C004  FFCF         	movff	i2WriteTimer1@timer+1,4047	;volatile
 16586  0073DE  C003  FFCE         	movff	i2WriteTimer1@timer,4046	;volatile
 16587  0073E2  0012               	return		;funcret
 16588  0073E4                     __end_ofi2_WriteTimer1:
 16589                           	opt stack 0
 16590                           pclatu	equ	0xFFB
 16591                           pclath	equ	0xFFA
 16592                           tblptru	equ	0xFF8
 16593                           tblptrh	equ	0xFF7
 16594                           tblptrl	equ	0xFF6
 16595                           tablat	equ	0xFF5
 16596                           prodh	equ	0xFF4
 16597                           prodl	equ	0xFF3
 16598                           intcon	equ	0xFF2
 16599                           intcon2	equ	0xFF1
 16600                           postinc0	equ	0xFEE
 16601                           fsr0h	equ	0xFEA
 16602                           fsr0l	equ	0xFE9
 16603                           wreg	equ	0xFE8
 16604                           postinc1	equ	0xFE6
 16605                           fsr1h	equ	0xFE2
 16606                           fsr1l	equ	0xFE1
 16607                           bsr	equ	0xFE0
 16608                           indf2	equ	0xFDF
 16609                           postinc2	equ	0xFDE
 16610                           postdec2	equ	0xFDD
 16611                           fsr2h	equ	0xFDA
 16612                           fsr2l	equ	0xFD9
 16613                           status	equ	0xFD8
 16614                           
 16615 ;; *************** function _Timer1_isr *****************
 16616 ;; Defined at:
 16617 ;;		line 366 in file "mini-project-clock.c"
 16618 ;; Parameters:    Size  Location     Type
 16619 ;;		None
 16620 ;; Auto vars:     Size  Location     Type
 16621 ;;		None
 16622 ;; Return value:  Size  Location     Type
 16623 ;;                  1    wreg      void 
 16624 ;; Registers used:
 16625 ;;		wreg, status,2, status,0
 16626 ;; Tracked objects:
 16627 ;;		On entry : 0/0
 16628 ;;		On exit  : 0/0
 16629 ;;		Unchanged: 0/0
 16630 ;; Data sizes:     COMRAM   BANK0   BANK1   BANK2   BANK3   BANK4   BANK5   BANK6   BANK7   BANK8   BANK9  BANK10  BANK1
      +1  BANK12  BANK13  BANK14  BANK15
 16631 ;;      Params:         0       0       0       0       0       0       0       0       0       0       0       0       
      +0       0       0       0       0
 16632 ;;      Locals:         0       0       0       0       0       0       0       0       0       0       0       0       
      +0       0       0       0       0
 16633 ;;      Temps:          0       0       0       0       0       0       0       0       0       0       0       0       
      +0       0       0       0       0
 16634 ;;      Totals:         0       0       0       0       0       0       0       0       0       0       0       0       
      +0       0       0       0       0
 16635 ;;Total ram usage:        0 bytes
 16636 ;; Hardware stack levels used:    1
 16637 ;; This function calls:
 16638 ;;		Nothing
 16639 ;; This function is called by:
 16640 ;;		_hp_secs_count_isr
 16641 ;; This function uses a non-reentrant model
 16642 ;;
 16643                           
 16644                           	psect	text46
 16645  007372                     __ptext46:
 16646                           	opt stack 0
 16647  007372                     _Timer1_isr:
 16648                           	opt stack 22
 16649                           
 16650                           ;mini-project-clock.c: 367: if (MainTime.secs < 59)
 16651                           
 16652                           ;incstack = 0
 16653  007372  0E3B               	movlw	59
 16654  007374  6048               	cpfslt	_MainTime+2,c	;volatile
 16655  007376  D002               	goto	i2l7402
 16656                           
 16657                           ;mini-project-clock.c: 368: MainTime.secs++;
 16658  007378  2A48               	incf	_MainTime+2,f,c	;volatile
 16659  00737A  D003               	goto	i2l7406
 16660  00737C                     i2l7402:
 16661                           
 16662                           ;mini-project-clock.c: 369: else {
 16663                           ;mini-project-clock.c: 370: MainTime.secs = 0;
 16664  00737C  0E00               	movlw	0
 16665  00737E  6E48               	movwf	_MainTime+2,c	;volatile
 16666                           
 16667                           ;mini-project-clock.c: 371: mins_rollover++;
 16668  007380  2A35               	incf	_mins_rollover,f,c	;volatile
 16669  007382                     i2l7406:
 16670                           
 16671                           ;mini-project-clock.c: 372: }
 16672                           ;mini-project-clock.c: 373: dp_mask ^= (1 << 2);
 16673  007382  0E04               	movlw	4
 16674  007384  1A4A               	xorwf	_dp_mask,f,c	;volatile
 16675  007386  0012               	return		;funcret
 16676  007388                     __end_of_Timer1_isr:
 16677                           	opt stack 0
 16678                           pclatu	equ	0xFFB
 16679                           pclath	equ	0xFFA
 16680                           tblptru	equ	0xFF8
 16681                           tblptrh	equ	0xFF7
 16682                           tblptrl	equ	0xFF6
 16683                           tablat	equ	0xFF5
 16684                           prodh	equ	0xFF4
 16685                           prodl	equ	0xFF3
 16686                           intcon	equ	0xFF2
 16687                           intcon2	equ	0xFF1
 16688                           postinc0	equ	0xFEE
 16689                           fsr0h	equ	0xFEA
 16690                           fsr0l	equ	0xFE9
 16691                           wreg	equ	0xFE8
 16692                           postinc1	equ	0xFE6
 16693                           fsr1h	equ	0xFE2
 16694                           fsr1l	equ	0xFE1
 16695                           bsr	equ	0xFE0
 16696                           indf2	equ	0xFDF
 16697                           postinc2	equ	0xFDE
 16698                           postdec2	equ	0xFDD
 16699                           fsr2h	equ	0xFDA
 16700                           fsr2l	equ	0xFD9
 16701                           status	equ	0xFD8
 16702                           pclatu	equ	0xFFB
 16703                           pclath	equ	0xFFA
 16704                           tblptru	equ	0xFF8
 16705                           tblptrh	equ	0xFF7
 16706                           tblptrl	equ	0xFF6
 16707                           tablat	equ	0xFF5
 16708                           prodh	equ	0xFF4
 16709                           prodl	equ	0xFF3
 16710                           intcon	equ	0xFF2
 16711                           intcon2	equ	0xFF1
 16712                           postinc0	equ	0xFEE
 16713                           fsr0h	equ	0xFEA
 16714                           fsr0l	equ	0xFE9
 16715                           wreg	equ	0xFE8
 16716                           postinc1	equ	0xFE6
 16717                           fsr1h	equ	0xFE2
 16718                           fsr1l	equ	0xFE1
 16719                           bsr	equ	0xFE0
 16720                           indf2	equ	0xFDF
 16721                           postinc2	equ	0xFDE
 16722                           postdec2	equ	0xFDD
 16723                           fsr2h	equ	0xFDA
 16724                           fsr2l	equ	0xFD9
 16725                           status	equ	0xFD8
 16726                           
 16727                           	psect	rparam
 16728  0000                     pclatu	equ	0xFFB
 16729                           pclath	equ	0xFFA
 16730                           tblptru	equ	0xFF8
 16731                           tblptrh	equ	0xFF7
 16732                           tblptrl	equ	0xFF6
 16733                           tablat	equ	0xFF5
 16734                           prodh	equ	0xFF4
 16735                           prodl	equ	0xFF3
 16736                           intcon	equ	0xFF2
 16737                           intcon2	equ	0xFF1
 16738                           postinc0	equ	0xFEE
 16739                           fsr0h	equ	0xFEA
 16740                           fsr0l	equ	0xFE9
 16741                           wreg	equ	0xFE8
 16742                           postinc1	equ	0xFE6
 16743                           fsr1h	equ	0xFE2
 16744                           fsr1l	equ	0xFE1
 16745                           bsr	equ	0xFE0
 16746                           indf2	equ	0xFDF
 16747                           postinc2	equ	0xFDE
 16748                           postdec2	equ	0xFDD
 16749                           fsr2h	equ	0xFDA
 16750                           fsr2l	equ	0xFD9
 16751                           status	equ	0xFD8
 16752                           
 16753                           	psect	temp
 16754  00004D                     btemp:
 16755                           	opt stack 0
 16756  00004D                     	ds	1
 16757  0000                     int$flags	set	btemp
 16758                           pclatu	equ	0xFFB
 16759                           pclath	equ	0xFFA
 16760                           tblptru	equ	0xFF8
 16761                           tblptrh	equ	0xFF7
 16762                           tblptrl	equ	0xFF6
 16763                           tablat	equ	0xFF5
 16764                           prodh	equ	0xFF4
 16765                           prodl	equ	0xFF3
 16766                           intcon	equ	0xFF2
 16767                           intcon2	equ	0xFF1
 16768                           postinc0	equ	0xFEE
 16769                           fsr0h	equ	0xFEA
 16770                           fsr0l	equ	0xFE9
 16771                           wreg	equ	0xFE8
 16772                           postinc1	equ	0xFE6
 16773                           fsr1h	equ	0xFE2
 16774                           fsr1l	equ	0xFE1
 16775                           bsr	equ	0xFE0
 16776                           indf2	equ	0xFDF
 16777                           postinc2	equ	0xFDE
 16778                           postdec2	equ	0xFDD
 16779                           fsr2h	equ	0xFDA
 16780                           fsr2l	equ	0xFD9
 16781                           status	equ	0xFD8


Data Sizes:
    Strings     0
    Constant    61
    Data        2
    BSS         39
    Persistent  1
    Stack       0

Auto Spaces:
    Space          Size  Autos    Used
    COMRAM           94     39      76
    BANK0           160     15      20
    BANK1           256      0       0
    BANK2           256      0       0
    BANK3           256      0       0
    BANK4           256      0       0
    BANK5           256      0       0
    BANK6           256      0       0
    BANK7           256      0       0
    BANK8           256      0       0
    BANK9           256      0       0
    BANK10          256      0       0
    BANK11          256      0       0
    BANK12          256      0       0
    BANK13          256      0       0
    BANK14          256      0       0
    BANK15           96      0       0

Pointer List with Targets:

    CompareTimes@alarmDate	PTR volatile struct . size(2) Largest target is 5
		 -> Alarm2Date(COMRAM[5]), Alarm1Date(BANK0[5]), 

    CompareTimes@mainDate	PTR volatile struct . size(2) Largest target is 5
		 -> MainDate(COMRAM[5]), 

    CompareTimes@alarmTime	PTR volatile struct . size(2) Largest target is 3
		 -> Alarm2Time(COMRAM[3]), Alarm1Time(COMRAM[3]), 

    SetYear@dy	PTR volatile struct . size(2) Largest target is 5
		 -> Alarm2Date(COMRAM[5]), MainDate(COMRAM[5]), 

    SetMonth@dm	PTR volatile struct . size(2) Largest target is 5
		 -> Alarm2Date(COMRAM[5]), MainDate(COMRAM[5]), 

    SetDay@dd	PTR volatile struct . size(2) Largest target is 5
		 -> Alarm2Date(COMRAM[5]), MainDate(COMRAM[5]), 

    SetHrs@th	PTR volatile struct . size(2) Largest target is 3
		 -> Alarm2Time(COMRAM[3]), Alarm1Time(COMRAM[3]), MainTime(COMRAM[3]), 

    SetMins@tm	PTR volatile struct . size(2) Largest target is 3
		 -> Alarm2Time(COMRAM[3]), Alarm1Time(COMRAM[3]), MainTime(COMRAM[3]), 

    SetSecs@ts	PTR volatile struct . size(2) Largest target is 3
		 -> Alarm2Time(COMRAM[3]), Alarm1Time(COMRAM[3]), MainTime(COMRAM[3]), 

    CurrentDisplay@i	PTR unsigned char  size(2) Largest target is 1
		 -> disp_index(COMRAM[1]), 

    Num2Disp@time	PTR volatile unsigned char  size(2) Largest target is 5
		 -> Alarm2Date(COMRAM[5]), Alarm2Time(COMRAM[3]), Alarm1Time(COMRAM[3]), MainDate(COMRAM[5]), 
		 -> MainTime(COMRAM[3]), 


Critical Paths under _main in COMRAM

    None.

Critical Paths under _lp_isr in COMRAM

    _lp_isr->i1_WriteTimer0

Critical Paths under _hp_secs_count_isr in COMRAM

    _hp_secs_count_isr->i2_WriteTimer1

Critical Paths under _main in BANK0

    _main->_CurrentDisplay
    _main->_SetMenu
    _SoundAlarm2->_Delay10KTCYx
    _SoundAlarm1->_Delay10KTCYx
    _SetMenu->_Num2Disp
    _SetMenu->_SetDay
    _SetAlarm2->_Num2Disp
    _SetAlarm2->_SetDay
    _YearFlash->_Delay10KTCYx
    _SetYear->_Delay10KTCYx
    _SetMonth->_Delay10KTCYx
    _SetDay->_CalcLeapYear
    _MonthFlash->_Delay10KTCYx
    _DayFlash->_Delay10KTCYx
    _SetAlarm1->_Num2Disp
    _SetSecs->_Delay10KTCYx
    _SetMins->_Delay10KTCYx
    _SetHrs->_Delay10KTCYx
    _SecsFlash->_Delay10KTCYx
    _MinsFlash->_Delay10KTCYx
    _HrsFlash->_Delay10KTCYx
    _Alarm2Flash->_Delay10KTCYx
    _Alarm1Flash->_Delay10KTCYx
    _CurrentDisplay->_Num2Disp
    _Num2Disp->___awdiv
    _CalcDate->_CalcLeapYear
    _CalcLeapYear->___lwmod
    _BootTest->_Delay10KTCYx

Critical Paths under _lp_isr in BANK0

    None.

Critical Paths under _hp_secs_count_isr in BANK0

    None.

Critical Paths under _main in BANK1

    None.

Critical Paths under _lp_isr in BANK1

    None.

Critical Paths under _hp_secs_count_isr in BANK1

    None.

Critical Paths under _main in BANK2

    None.

Critical Paths under _lp_isr in BANK2

    None.

Critical Paths under _hp_secs_count_isr in BANK2

    None.

Critical Paths under _main in BANK3

    None.

Critical Paths under _lp_isr in BANK3

    None.

Critical Paths under _hp_secs_count_isr in BANK3

    None.

Critical Paths under _main in BANK4

    None.

Critical Paths under _lp_isr in BANK4

    None.

Critical Paths under _hp_secs_count_isr in BANK4

    None.

Critical Paths under _main in BANK5

    None.

Critical Paths under _lp_isr in BANK5

    None.

Critical Paths under _hp_secs_count_isr in BANK5

    None.

Critical Paths under _main in BANK6

    None.

Critical Paths under _lp_isr in BANK6

    None.

Critical Paths under _hp_secs_count_isr in BANK6

    None.

Critical Paths under _main in BANK7

    None.

Critical Paths under _lp_isr in BANK7

    None.

Critical Paths under _hp_secs_count_isr in BANK7

    None.

Critical Paths under _main in BANK8

    None.

Critical Paths under _lp_isr in BANK8

    None.

Critical Paths under _hp_secs_count_isr in BANK8

    None.

Critical Paths under _main in BANK9

    None.

Critical Paths under _lp_isr in BANK9

    None.

Critical Paths under _hp_secs_count_isr in BANK9

    None.

Critical Paths under _main in BANK10

    None.

Critical Paths under _lp_isr in BANK10

    None.

Critical Paths under _hp_secs_count_isr in BANK10

    None.

Critical Paths under _main in BANK11

    None.

Critical Paths under _lp_isr in BANK11

    None.

Critical Paths under _hp_secs_count_isr in BANK11

    None.

Critical Paths under _main in BANK12

    None.

Critical Paths under _lp_isr in BANK12

    None.

Critical Paths under _hp_secs_count_isr in BANK12

    None.

Critical Paths under _main in BANK13

    None.

Critical Paths under _lp_isr in BANK13

    None.

Critical Paths under _hp_secs_count_isr in BANK13

    None.

Critical Paths under _main in BANK14

    None.

Critical Paths under _lp_isr in BANK14

    None.

Critical Paths under _hp_secs_count_isr in BANK14

    None.

Critical Paths under _main in BANK15

    None.

Critical Paths under _lp_isr in BANK15

    None.

Critical Paths under _hp_secs_count_isr in BANK15

    None.

Call Graph Tables:

 ---------------------------------------------------------------------------------
 (Depth) Function   	        Calls       Base Space   Used Autos Params    Refs
 ---------------------------------------------------------------------------------
 (0) _main                                                 0     0      0   27577
                           _BootTest
                           _CalcDate
                           _CalcTime
                       _CompareTimes
                        _ConfigureIO
                     _CurrentDisplay
                       _Delay10KTCYx
                         _PB1pressed
                         _PB2pressed
                            _SetMenu
                        _SoundAlarm1
                        _SoundAlarm2
                        _StartTimer0
                        _StartTimer1
                           _Switches
                        _WriteTimer0
                        _WriteTimer1
              _enable_interrupts_all
 ---------------------------------------------------------------------------------
 (1) _enable_interrupts_all                                0     0      0       0
 ---------------------------------------------------------------------------------
 (1) _WriteTimer1                                          4     2      2     221
                                              0 BANK0      4     2      2
 ---------------------------------------------------------------------------------
 (1) _WriteTimer0                                          4     2      2     221
                                              0 BANK0      4     2      2
 ---------------------------------------------------------------------------------
 (1) _StartTimer1                                          0     0      0       0
 ---------------------------------------------------------------------------------
 (1) _StartTimer0                                          0     0      0       0
 ---------------------------------------------------------------------------------
 (1) _SoundAlarm2                                          0     0      0      62
                       _Delay10KTCYx
                        _Delay10TCYx
                         _PB1pressed
                         _PB2pressed
 ---------------------------------------------------------------------------------
 (1) _SoundAlarm1                                          0     0      0      62
                       _Delay10KTCYx
                        _Delay10TCYx
                         _PB1pressed
                         _PB2pressed
 ---------------------------------------------------------------------------------
 (1) _SetMenu                                              2     2      0   21016
                                             13 BANK0      2     2      0
                        _Alarm1Flash
                        _Alarm2Flash
                           _DayFlash
                           _HrsFlash
                          _MinsFlash
                         _MonthFlash
                           _Num2Disp
                          _SecsFlash
                          _SetAlarm1
                          _SetAlarm2
                             _SetDay
                             _SetHrs
                            _SetMins
                           _SetMonth
                            _SetSecs
                            _SetYear
                           _Switches
                          _YearFlash
 ---------------------------------------------------------------------------------
 (2) _SetAlarm2                                            0     0      0    7897
                           _DayFlash
                       _Delay10KTCYx
                           _HrsFlash
                          _MinsFlash
                         _MonthFlash
                           _Num2Disp
                         _PB1pressed
                         _PB2pressed
                          _SecsFlash
                             _SetDay
                             _SetHrs
                            _SetMins
                           _SetMonth
                            _SetSecs
                            _SetYear
                           _Switches
                          _YearFlash
 ---------------------------------------------------------------------------------
 (2) _YearFlash                                            0     0      0      31
                       _Delay10KTCYx
 ---------------------------------------------------------------------------------
 (2) _SetYear                                              4     2      2     557
                                              2 BANK0      4     2      2
                       _Delay10KTCYx
                         _PB1pressed
                         _PB2pressed
 ---------------------------------------------------------------------------------
 (2) _SetMonth                                             3     1      2     433
                                              2 BANK0      3     1      2
                       _Delay10KTCYx
                         _PB1pressed
                         _PB2pressed
 ---------------------------------------------------------------------------------
 (2) _SetDay                                               4     2      2    1623
                                              9 BANK0      4     2      2
                       _CalcLeapYear
                       _Delay10KTCYx
                         _PB1pressed
                         _PB2pressed
 ---------------------------------------------------------------------------------
 (3) _MonthFlash                                           0     0      0      31
                       _Delay10KTCYx
 ---------------------------------------------------------------------------------
 (3) _DayFlash                                             0     0      0      31
                       _Delay10KTCYx
 ---------------------------------------------------------------------------------
 (2) _SetAlarm1                                            0     0      0    5191
                       _Delay10KTCYx
                           _HrsFlash
                          _MinsFlash
                           _Num2Disp
                         _PB1pressed
                         _PB2pressed
                          _SecsFlash
                             _SetHrs
                            _SetMins
                            _SetSecs
                           _Switches
 ---------------------------------------------------------------------------------
 (1) _Switches                                             3     3      0     111
                                              0 BANK0      3     3      0
 ---------------------------------------------------------------------------------
 (2) _SetSecs                                              3     1      2     510
                                              2 BANK0      3     1      2
                       _Delay10KTCYx
                         _PB1pressed
                         _PB2pressed
 ---------------------------------------------------------------------------------
 (2) _SetMins                                              3     1      2     510
                                              2 BANK0      3     1      2
                       _Delay10KTCYx
                         _PB1pressed
                         _PB2pressed
 ---------------------------------------------------------------------------------
 (2) _SetHrs                                               3     1      2     510
                                              2 BANK0      3     1      2
                       _Delay10KTCYx
                         _PB1pressed
                         _PB2pressed
 ---------------------------------------------------------------------------------
 (2) _PB2pressed                                           0     0      0       0
 ---------------------------------------------------------------------------------
 (2) _PB1pressed                                           0     0      0       0
 ---------------------------------------------------------------------------------
 (3) _SecsFlash                                            0     0      0      31
                       _Delay10KTCYx
 ---------------------------------------------------------------------------------
 (3) _MinsFlash                                            0     0      0      31
                       _Delay10KTCYx
 ---------------------------------------------------------------------------------
 (3) _HrsFlash                                             0     0      0      31
                       _Delay10KTCYx
 ---------------------------------------------------------------------------------
 (2) _Alarm2Flash                                          0     0      0      31
                       _Delay10KTCYx
 ---------------------------------------------------------------------------------
 (2) _Alarm1Flash                                          0     0      0      31
                       _Delay10KTCYx
 ---------------------------------------------------------------------------------
 (1) _CurrentDisplay                                       2     0      2    3534
                                             13 BANK0      2     0      2
                           _Num2Disp
 ---------------------------------------------------------------------------------
 (3) _Num2Disp                                             5     3      2    3426
                                              8 BANK0      5     3      2
                            ___awdiv
                            ___awmod
 ---------------------------------------------------------------------------------
 (4) ___awmod                                              6     2      4     587
                                              0 BANK0      6     2      4
 ---------------------------------------------------------------------------------
 (4) ___awdiv                                              8     4      4     599
                                              0 BANK0      8     4      4
 ---------------------------------------------------------------------------------
 (1) _ConfigureIO                                          0     0      0       0
 ---------------------------------------------------------------------------------
 (1) _CompareTimes                                        12     2     10    1371
                                              0 BANK0     12     2     10
 ---------------------------------------------------------------------------------
 (1) _CalcTime                                             1     1      0      99
                                              0 BANK0      1     1      0
 ---------------------------------------------------------------------------------
 (1) _CalcDate                                             0     0      0     787
                       _CalcLeapYear
 ---------------------------------------------------------------------------------
 (3) _CalcLeapYear                                         4     2      2     787
                                              5 BANK0      4     2      2
                            ___lwmod
 ---------------------------------------------------------------------------------
 (4) ___lwmod                                              5     1      4     540
                                              0 BANK0      5     1      4
 ---------------------------------------------------------------------------------
 (1) _BootTest                                             0     0      0      62
                       _Delay10KTCYx
                        _Delay10TCYx
 ---------------------------------------------------------------------------------
 (2) _Delay10TCYx                                          1     1      0      31
                                              0 BANK0      1     1      0
 ---------------------------------------------------------------------------------
 (2) _Delay10KTCYx                                         2     2      0      31
                                              0 BANK0      2     2      0
 ---------------------------------------------------------------------------------
 Estimated maximum stack depth 4
 ---------------------------------------------------------------------------------
 (Depth) Function   	        Calls       Base Space   Used Autos Params    Refs
 ---------------------------------------------------------------------------------
 (6) _lp_isr                                              17    17      0     131
                                             22 COMRAM    17    17      0
                         _Timer0_isr
                      i1_WriteTimer0
 ---------------------------------------------------------------------------------
 (7) i1_WriteTimer0                                        4     2      2     131
                                             18 COMRAM     4     2      2
 ---------------------------------------------------------------------------------
 (7) _Timer0_isr                                           0     0      0       0
 ---------------------------------------------------------------------------------
 Estimated maximum stack depth 7
 ---------------------------------------------------------------------------------
 (Depth) Function   	        Calls       Base Space   Used Autos Params    Refs
 ---------------------------------------------------------------------------------
 (8) _hp_secs_count_isr                                   14    14      0     131
                                              4 COMRAM    14    14      0
                         _Timer1_isr
                      i2_WriteTimer1
 ---------------------------------------------------------------------------------
 (9) i2_WriteTimer1                                        4     2      2     131
                                              0 COMRAM     4     2      2
 ---------------------------------------------------------------------------------
 (9) _Timer1_isr                                           0     0      0       0
 ---------------------------------------------------------------------------------
 Estimated maximum stack depth 9
 ---------------------------------------------------------------------------------

 Call Graph Graphs:

 _main (ROOT)
   _BootTest
     _Delay10KTCYx
     _Delay10TCYx
   _CalcDate
     _CalcLeapYear
       ___lwmod
   _CalcTime
   _CompareTimes
   _ConfigureIO
   _CurrentDisplay
     _Num2Disp
       ___awdiv
       ___awmod
   _Delay10KTCYx
   _PB1pressed
   _PB2pressed
   _SetMenu
     _Alarm1Flash
       _Delay10KTCYx
     _Alarm2Flash
       _Delay10KTCYx
     _DayFlash
       _Delay10KTCYx
     _HrsFlash
       _Delay10KTCYx
     _MinsFlash
       _Delay10KTCYx
     _MonthFlash
       _Delay10KTCYx
     _Num2Disp
       ___awdiv
       ___awmod
     _SecsFlash
       _Delay10KTCYx
     _SetAlarm1
       _Delay10KTCYx
       _HrsFlash
         _Delay10KTCYx
       _MinsFlash
         _Delay10KTCYx
       _Num2Disp
         ___awdiv
         ___awmod
       _PB1pressed
       _PB2pressed
       _SecsFlash
         _Delay10KTCYx
       _SetHrs
         _Delay10KTCYx
         _PB1pressed
         _PB2pressed
       _SetMins
         _Delay10KTCYx
         _PB1pressed
         _PB2pressed
       _SetSecs
         _Delay10KTCYx
         _PB1pressed
         _PB2pressed
       _Switches
     _SetAlarm2
       _DayFlash
         _Delay10KTCYx
       _Delay10KTCYx
       _HrsFlash
         _Delay10KTCYx
       _MinsFlash
         _Delay10KTCYx
       _MonthFlash
         _Delay10KTCYx
       _Num2Disp
         ___awdiv
         ___awmod
       _PB1pressed
       _PB2pressed
       _SecsFlash
         _Delay10KTCYx
       _SetDay
         _CalcLeapYear
           ___lwmod
         _Delay10KTCYx
         _PB1pressed
         _PB2pressed
       _SetHrs
         _Delay10KTCYx
         _PB1pressed
         _PB2pressed
       _SetMins
         _Delay10KTCYx
         _PB1pressed
         _PB2pressed
       _SetMonth
         _Delay10KTCYx
         _PB1pressed
         _PB2pressed
       _SetSecs
         _Delay10KTCYx
         _PB1pressed
         _PB2pressed
       _SetYear
         _Delay10KTCYx
         _PB1pressed
         _PB2pressed
       _Switches
       _YearFlash
         _Delay10KTCYx
     _SetDay
       _CalcLeapYear
         ___lwmod
       _Delay10KTCYx
       _PB1pressed
       _PB2pressed
     _SetHrs
       _Delay10KTCYx
       _PB1pressed
       _PB2pressed
     _SetMins
       _Delay10KTCYx
       _PB1pressed
       _PB2pressed
     _SetMonth
       _Delay10KTCYx
       _PB1pressed
       _PB2pressed
     _SetSecs
       _Delay10KTCYx
       _PB1pressed
       _PB2pressed
     _SetYear
       _Delay10KTCYx
       _PB1pressed
       _PB2pressed
     _Switches
     _YearFlash
       _Delay10KTCYx
   _SoundAlarm1
     _Delay10KTCYx
     _Delay10TCYx
     _PB1pressed
     _PB2pressed
   _SoundAlarm2
     _Delay10KTCYx
     _Delay10TCYx
     _PB1pressed
     _PB2pressed
   _StartTimer0
   _StartTimer1
   _Switches
   _WriteTimer0
   _WriteTimer1
   _enable_interrupts_all

 _lp_isr (ROOT)
   _Timer0_isr
   i1_WriteTimer0

 _hp_secs_count_isr (ROOT)
   _Timer1_isr
   i2_WriteTimer1

 Address spaces:
Name               Size   Autos  Total    Cost      Usage
BIGRAM             F5F      0       0      37        0.0%
EEDATA             400      0       0       0        0.0%
BITBANK14          100      0       0      33        0.0%
BANK14             100      0       0      34        0.0%
BITBANK13          100      0       0      30        0.0%
BANK13             100      0       0      31        0.0%
BITBANK12          100      0       0      28        0.0%
BANK12             100      0       0      29        0.0%
BITBANK11          100      0       0      26        0.0%
BANK11             100      0       0      27        0.0%
BITBANK10          100      0       0      24        0.0%
BANK10             100      0       0      25        0.0%
BITBANK9           100      0       0      22        0.0%
BANK9              100      0       0      23        0.0%
BITBANK8           100      0       0      20        0.0%
BANK8              100      0       0      21        0.0%
BITBANK7           100      0       0      18        0.0%
BANK7              100      0       0      19        0.0%
BITBANK6           100      0       0      16        0.0%
BANK6              100      0       0      17        0.0%
BITBANK5           100      0       0      14        0.0%
BANK5              100      0       0      15        0.0%
BITBANK4           100      0       0      12        0.0%
BANK4              100      0       0      13        0.0%
BITBANK3           100      0       0      10        0.0%
BANK3              100      0       0      11        0.0%
BITBANK2           100      0       0       8        0.0%
BANK2              100      0       0       9        0.0%
BITBANK1           100      0       0       6        0.0%
BANK1              100      0       0       7        0.0%
BITBANK0            A0      0       0       4        0.0%
BANK0               A0      F      14       5       12.5%
BITBANK15           60      0       0      35        0.0%
BANK15              60      0       0      36        0.0%
BITCOMRAM           5E      0       0       0        0.0%
COMRAM              5E     27      4C       1       80.9%
BITSFR               0      0       0      40        0.0%
SFR                  0      0       0      40        0.0%
STACK                0      0       0       2        0.0%
NULL                 0      0       0       0        0.0%
ABS                  0      0      60      32        0.0%
DATA                 0      0      60       3        0.0%
CODE                 0      0       0       0        0.0%


Microchip Technology PIC18 Macro Assembler V1.38 build -256452561 
Symbol Table                                                                                   Mon Dec 12 13:07:05 2016

           __end_of_DaysInMonth 1027                    ___awdiv@sign 0065                              bsr 000FE0  
                   __CFG_BORV$0 000000                    __CFG_CP0$OFF 000000                    __CFG_CP1$OFF 000000  
                  __CFG_CP2$OFF 000000                    __CFG_CP3$OFF 000000                     __CFG_OSC$HS 000000  
                  __CFG_CP4$OFF 000000                    __CFG_CP5$OFF 000000                    __CFG_CP6$OFF 000000  
                  __CFG_CP7$OFF 000000                             l333 7250                             l501 1206  
                           l270 5BAE                             l327 71E2                             l408 64A0  
                           l265 5B6A                             l282 5C7A                             l274 5BF2  
                           l514 128C                             l540 1398                             l605 1636  
                           l461 1074                             l286 5CBE                             l278 5C36  
                           l527 1312                             l712 1A68                             l289 5D00  
                           l553 141E                             l626 1700                             l618 16BC  
                           l811 1E56                             l475 10FA                             l652 180C  
                           l725 1AEE                             l910 2244                             l566 14A4  
                           l751 1BFA                             l639 1786                             l824 1EDC  
                           l592 15B0                             l488 1180                             l665 1892  
                           l738 1B74                             l931 230E                             l691 199E  
                           l579 152A                             l772 1CC4                             l764 1C80  
                           l845 1FA6                             l837 1F62                             l918 2288  
                           l678 1918                             l871 20B2                             l944 2394  
                           l785 1D4A                             l970 24A0                             l858 202C  
                           l699 19E2                             l884 2138                             l957 241A  
                           l798 1DD0                             l983 2526                             l897 21BE  
                           l996 25AC                    __CFG_CPB$OFF 000000                    __CFG_CPD$OFF 000000  
          __size_of_WriteTimer0 0012            __size_of_WriteTimer1 0012                    ___awmod@sign 0065  
                           wreg 000FE8                      _Alarm1Date 006F                      _Alarm2Date 0036  
                  __CFG_MODE$MC 000000                     ?_PB1pressed 0001                      _Alarm1Time 0040  
                    _Alarm2Time 0043                     ?_PB2pressed 0001                    __CFG_LVP$OFF 000000  
                  __CFG_WDT$OFF 000000                            l1100 29DC                            l1022 26B8  
                          l1113 2A62                            l1009 2632                            l1035 273E  
                          l1204 2E0C                            l2020 4D02                            l1061 284A  
                          l1230 2F18                            l1126 2AE8                            l2111 50AC  
                          l2007 4C7C                            l1152 2BF4                            l1048 27C4  
                          l1321 32AE                            l1217 2E92                            l2033 4D88  
                          l1074 28D0                            l2202 543A                            l1243 2F9E  
                          l1139 2B6E                            l1412 363C                            l1308 322C  
                          l2124 512E                            l1165 2C7A                            l1334 3330  
                          l2150 5232                            l2046 4E0E                            l1191 2D86  
                          l1087 2956                            l2215 54BC                            l1360 3434  
                          l1256 3024                            l2072 4F1A                            l1512 3898  
                          l1425 36BE                            l2241 55C0                            l2137 51B0  
                          l1282 3128                            l1178 2D00                            l2306 584A  
                          l1451 37C2                            l1347 33B2                            l2163 52B4  
                          l2059 4E94                            l2228 553E                            l1604 3C42  
                          l1373 34B6                            l1269 30A6                            l2085 4FA0  
                          l1438 3740                            l2254 5642                            l1630 3D4E  
                          l1526 391E                            l1295 31AA                            l2280 5746  
                          l2176 5336                            l1552 3A2A                            l1721 40F8  
                          l1617 3CC8                            l1386 3538                            l2098 5026  
                          l2267 56C4                            l1643 3DD4                            l1539 39A4  
                          l1812 44A2                            l1708 4072                            l2293 57C8  
                          l2189 53B8                            l1565 3AB0                            l1734 417E  
                          l1399 35BA                            l1903 484C                            l1591 3BBC  
                          l1760 428A                            l1656 3E5A                            l1825 4528  
                          l1682 3F66                            l1578 3B36                            l1851 4634  
                          l1747 4204                            l1916 48D2                            l1773 4310  
                          l1669 3EE0                            l1942 49DE                            l1838 45AE  
                          l1695 3FEC                            l1864 46BA                            l1929 4958  
                          l1890 47C6                            l1786 4396                            l1955 4A64  
                          l2773 7176                            l1981 4B70                            l1877 4740  
                          l1799 441C                            l1968 4AEA                            l1994 4BF6  
                          _LATF 000F8E                    _CalcLeapYear 6D8C                            _main 5FEC  
                          fsr0h 000FEA                            fsr1h 000FE2                            fsr0l 000FE9  
                          fsr2h 000FDA                            fsr1l 000FE1                            indf2 000FDF  
                          fsr2l 000FD9                            btemp 004D                 _DaysInMonthLeap 1027  
        __size_ofi2_WriteTimer1 0012                            pclat 000FFA             i1WriteTimer0@timer0 0013  
                          prodh 000FF4                            prodl 000FF3                            start 00BC  
                 __CFG_IESO$OFF 000000                   __CFG_MCLRE$ON 000000                    ___param_bank 000010  
       __size_of_CurrentDisplay 00E0                     _Alarm1Flash 70AC                     _Alarm2Flash 703A  
                   _Delay10TCYx 7388             __end_of_ConfigureIO 7346                 __end_of_SetMenu 5DC2  
               __end_of_SetMins 6912                 __end_of_SetSecs 683A                 __end_of_SetYear 64A2  
                 __CFG_WAIT$OFF 000000                           l12100 72E0                           l12120 6DF4  
                         l12200 6C68                           l12104 72E4                           l13002 5BE6  
                         l12060 7168                           l12052 7132                           l12124 6DF8  
                         l13100 6594                           l12140 6A00                           l12204 6C76  
                         l13020 5C6E                           l13012 5C2A                           l12054 713E  
                         l13110 6598                           l13030 5CB2                           l12056 7144  
                         l12128 6DFC                           l12152 6A34                           l12208 6C8A  
                         l12232 694A                           l12080 730C                           l13040 5CF6  
                         l13008 5C0A                           l13200 1222                           l12154 6A40  
                         l12146 6A16                           l12410 6AF6                           l12402 6ACA  
                         l13050 5D2E                           l13042 5D04                           l13026 5C92  
                         l13018 5C4E                           l14010 23D0                           l13122 106A  
                         l12084 7314                           l12172 6A98                           l12164 6A76  
                         l12156 6A46                           l12076 7308                           l12068 72F4  
                         l12092 72CC                           l12340 686E                           l13052 5D32  
                         l13044 5D0A                           l13036 5CD6                           l13060 5D80  
                         l14100 25C8                           l14012 23D8                           l14004 23B0  
                         l13054 5D56                           l13046 5D0E                           l13062 5DB6  
                         l13310 1482                           l13302 145A                           l13230 12C8  
                         l13214 126A                           l13206 1242                           l13142 10D8  
                         l13134 10B0                           l12168 6A84                           l12192 6C32  
                         l12184 6C0E                           l13048 5D28                           l13400 167A  
                         l13320 14C0                           l13304 1462                           l13232 12D0  
                         l13224 12A8                           l13208 124A                           l13160 113E  
                         l13152 1116                           l13136 10B8                           l13128 1090  
                         l13082 64EE                           l13066 64A4                           l12194 6C3E  
                         l12418 6B1E                           l12514 5B24                           l12506 5AFC  
                         l14210 2828                           l14202 2800                           l14130 266E  
                         l14114 2610                           l14106 25E8                           l14042 247E  
                         l14034 2456                           l14018 23F8                           l15010 395A  
                         l12196 6C44                           l12188 6C1E                           l12356 68DA  
                         l12348 68A6                           l12700 6270                           l12620 63A8  
                         l14300 2A20                           l14220 2866                           l14204 2808  
                         l14132 2676                           l14124 264E                           l14108 25F0  
                         l14060 24E4                           l14052 24BC                           l14036 245E  
                         l14028 2436                           l13500 18AE                           l13412 16BE  
                         l15100 3B52                           l15012 3962                           l15004 393A  
                         l13078 64EA                           l12294 6802                           l12286 67CE  
                         l12278 6796                           l12710 62AE                           l12702 6276  
                         l13406 169A                           l13350 1566                           l13334 1508  
                         l13326 14E0                           l13262 1376                           l13254 134E  
                         l13238 12F0                           l13190 11E4                           l13182 11BC  
                         l13166 115E                           l13158 1136                           l13352 156E  
                         l13344 1546                           l13328 14E8                           l13280 13DC  
                         l13272 13B4                           l13256 1356                           l13248 132E  
                         l13184 11C4                           l13176 119C                           l12714 62BC  
                         l12722 6306                           l12730 633C                           l12482 59F6  
                         l12474 59CE                           l12466 596C                           l12490 5A3A  
                         l12810 5EF0                           l12802 5EB2                           l14402 2C58  
                         l14330 2AC6                           l14322 2A9E                           l14306 2A40  
                         l14250 290C                           l14234 28AE                           l14226 2886  
                         l14162 271C                           l14154 26F4                           l14138 2696  
                         l14090 258A                           l14082 2562                           l14066 2504  
                         l14058 24DC                           l13530 1954                           l13514 18F6  
                         l13506 18CE                           l13442 1764                           l13434 173C  
                         l13418 16DE                           l16002 4EF8                           l15210 3DB2  
                         l15202 3D8A                           l15130 3BF8                           l15114 3B9A  
                         l15106 3B72                           l15042 3A08                           l15034 39E0  
                         l15018 3982                           l12724 6312                           l12636 644A  
                         l12628 63FC                           l12820 5F2E                           l12812 5EF6  
                         l12804 5EBE                           l14420 2CBE                           l14412 2C96  
                         l14340 2B04                           l14324 2AA6                           l14316 2A7E  
                         l14252 2914                           l14244 28EC                           l14228 288E  
                         l14180 2782                           l14172 275A                           l14156 26FC  
                         l14148 26D4                           l14084 256A                           l14076 2542  
                         l13700 1D08                           l13532 195C                           l13524 1934  
                         l13508 18D6                           l13460 17CA                           l13452 17A2  
                         l13436 1744                           l13428 171C                           l16020 4F5E  
                         l16012 4F36                           l15300 3FAA                           l15220 3DF0  
                         l15204 3D92                           l15132 3C00                           l15124 3BD8  
                         l15108 3B7A                           l15060 3A6E                           l15052 3A46  
                         l15036 39E8                           l15028 39C0                           l12718 62DC  
                         l12574 672A                           l12566 66F6                           l12558 66BE  
                         l12806 5EC4                           l13622 1B52                           l13614 1B2A  
                         l13550 19C0                           l13382 1614                           l13374 15EC  
                         l13358 158E                           l13286 13FC                           l13278 13D4  
                         l12904 7236                           l12824 5F3C                           l12832 5F86  
                         l12808 5EE4                           l12840 5FBC                           l13640 1BB8  
                         l13632 1B90                           l13616 1B32                           l13608 1B0A  
                         l13560 19FE                           l13544 19A0                           l13392 1652  
                         l13376 15F4                           l13368 15CC                           l13296 143A  
                         l12842 738C                           l12930 6BA8                           l12690 6232  
                         l12682 6200                           l12498 5A9A                           l12834 5F92  
                         l12770 5DEA                           l14610 30E2                           l14522 2EF6  
                         l14514 2ECE                           l14450 2D64                           l14442 2D3C  
                         l14426 2CDE                           l14418 2CB6                           l14370 2BAA  
                         l14354 2B4C                           l14346 2B24                           l14282 29BA  
                         l14274 2992                           l14258 2934                           l14186 27A2  
                         l14178 277A                           l13802 1F40                           l13730 1DAE  
                         l13722 1D86                           l13706 1D28                           l13538 197C  
                         l13490 1870                           l13482 1848                           l13466 17EA  
                         l13458 17C2                           l16210 5372                           l16122 5192  
                         l16114 516A                           l16050 5004                           l16042 4FDC  
                         l16026 4F7E                           l16018 4F56                           l15402 41E2  
                         l15330 4050                           l15322 4028                           l15306 3FCA  
                         l15250 3E96                           l15234 3E38                           l15226 3E10  
                         l15162 3CA6                           l15154 3C7E                           l15138 3C20  
                         l15090 3B14                           l15082 3AEC                           l15066 3A8E  
                         l15058 3A66                           l12924 6B90                           l12932 6BB6  
                         l12908 7248                           l12692 623E                           l12684 620C  
                         l12676 61DA                           l12828 5F5C                           l12780 5E28  
                         l12772 5DF6                           l12764 5DC4                           l14700 32CA  
                         l14612 30EA                           l14604 30C2                           l14540 2F5C  
                         l14532 2F34                           l14516 2ED6                           l14508 2EAE  
                         l14460 2DA2                           l14444 2D44                           l14436 2D1C  
                         l14372 2BB2                           l14364 2B8A                           l14348 2B2C  
                         l14292 29F8                           l14276 299A                           l14268 2972  
                         l14196 27E0                           l13740 1DEC                           l13724 1D8E  
                         l13716 1D66                           l13484 1850                           l13476 1828  
                         l16300 555A                           l16212 537A                           l16204 5352  
                         l16140 51F4                           l16132 51CC                           l16116 5172  
                         l16108 514A                           l16060 5042                           l16044 4FE4  
                         l16036 4FBC                           l15420 4248                           l15412 4220  
                         l15340 408E                           l15324 4030                           l15316 4008  
                         l15252 3E9E                           l15244 3E76                           l15228 3E18  
                         l15180 3D0C                           l15172 3CE4                           l15156 3C86  
                         l15148 3C5E                           l15084 3AF4                           l15076 3ACC  
                         l12942 6BE6                           l12918 6B82                           l12950 65AC  
                         l12694 6244                           l12686 6212                           l12678 61E0  
                         l12790 5E60                           l12782 5E2E                           l12774 5DFC  
                         l12766 5DCA                           l13910 219C                           l13902 2174  
                         l13830 1FE2                           l13814 1F84                           l13670 1C5E  
                         l13662 1C36                           l13646 1BD8                           l13638 1BB0  
                         l13590 1AA4                           l13574 1A46                           l13566 1A1E  
                         l13398 1672                           l12936 6BD8                           l13920 21DA  
                         l13904 217C                           l13832 1FEA                           l13824 1FC2  
                         l13808 1F64                           l13664 1C3E                           l13656 1C16  
                         l13592 1AAC                           l13584 1A84                           l13568 1A26  
                         l12874 71FE                           l12970 661A                           l12962 65EE  
                         l12954 65C2                           l12698 6264                           l12794 5E80  
                         l12786 5E4E                           l12778 5E1C                           l14810 351A  
                         l14802 34F2                           l14730 336C                           l14714 3312  
                         l14706 32EA                           l14642 318C                           l14634 3164  
                         l14618 310A                           l14570 3002                           l14562 2FDA  
                         l14546 2F7C                           l14538 2F54                           l14490 2E48  
                         l14474 2DEA                           l14466 2DC2                           l14394 2C30  
                         l14378 2BD2                           l14298 2A18                           l13770 1E92  
                         l13754 1E34                           l13746 1E0C                           l13682 1CA2  
                         l16410 57AA                           l16402 5782                           l16330 55FC  
                         l16314 55A2                           l16306 557A                           l16242 541C  
                         l16234 53F4                           l16218 539A                           l16170 5296  
                         l16162 526E                           l16146 5214                           l16138 51EC  
                         l16090 50E8                           l16074 508A                           l16066 5062  
                         l15610 4670                           l15522 4480                           l15514 4458  
                         l15450 42EE                           l15442 42C6                           l15426 4268  
                         l15418 4240                           l15370 4134                           l15354 40D6  
                         l15346 40AE                           l15282 3F44                           l15274 3F1C  
                         l15258 3EBE                           l15186 3D2C                           l15178 3D04  
                         l12980 665A                           l12796 5E8C                           l12788 5E5A  
                         l14900 3702                           l14820 3554                           l14804 34FA  
                         l14732 3374                           l14724 334C                           l14708 32F2  
                         l14660 31EE                           l14652 31C6                           l14636 316C  
                         l14628 3144                           l14580 3040                           l14564 2FE2  
                         l14556 2FBA                           l14492 2E50                           l14484 2E28  
                         l14468 2DCA                           l14396 2C38                           l14388 2C10  
                         l13940 2246                           l13772 1E9A                           l13764 1E72  
                         l13748 1E14                           l13692 1CE0                           l13676 1C82  
                         l16420 57E4                           l16404 578A                           l16332 5604  
                         l16324 55DC                           l16308 5582                           l16260 547E  
                         l16252 5456                           l16236 53FC                           l16228 53D4  
                         l16180 52D0                           l16164 5276                           l16156 524E  
                         l16092 50F0                           l16084 50C8                           l16068 506A  
                         l15700 4868                           l15612 4678                           l15604 4650  
                         l15540 44E6                           l15532 44BE                           l15516 4460  
                         l15508 4438                           l15460 432C                           l15444 42CE  
                         l15436 42A6                           l15372 413C                           l15364 4114  
                         l15348 40B6                           l15292 3F82                           l15276 3F24  
                         l15268 3EFC                           l15196 3D6A                           l12974 6630  
                         l12966 6604                           l12958 65D8                           l12798 5E92  
                         l13934 2222                           l13926 21FA                           l13862 2090  
                         l13854 2068                           l13838 200A                           l13598 1ACC  
                         l12992 5BA2                           l13928 2202                           l13880 20F6  
                         l13872 20CE                           l13856 2070                           l13848 2048  
                         l16520 60E2                           l14930 37A4                           l14922 377C  
                         l14906 3722                           l14850 35F6                           l14834 359C  
                         l14826 3574                           l14762 3416                           l14754 33EE  
                         l14738 3394                           l14690 3290                           l14682 3268  
                         l14666 320E                           l14658 31E6                           l14594 3088  
                         l14586 3060                           l14498 2E70                           l13970 22EC  
                         l13962 22C4                           l13946 2266                           l13794 1F18  
                         l13778 1EBA                           l13698 1D00                           l16450 5886  
                         l16434 582C                           l16426 5804                           l16362 56A6  
                         l16354 567E                           l16338 5624                           l16290 5520  
                         l16282 54F8                           l16266 549E                           l16258 5476  
                         l16194 5318                           l16186 52F0                           l16098 5110  
                         l15810 4AC8                           l15802 4AA0                           l15730 490E  
                         l15714 48B0                           l15706 4888                           l15642 471E  
                         l15634 46F6                           l15618 4698                           l15570 458C  
                         l15562 4564                           l15546 4506                           l15538 44DE  
                         l15490 43D2                           l15474 4374                           l15466 434C  
                         l15394 41BA                           l15378 415C                           l15298 3FA2  
                         l16522 60E6                           l16506 60B2                           l12988 5B82  
                         l14940 37DE                           l14924 3784                           l14916 375C  
                         l14852 35FE                           l14844 35D6                           l14828 357C  
                         l14780 3478                           l14772 3450                           l14756 33F6  
                         l14748 33CE                           l14684 3270                           l14676 3248  
                         l14588 3068                           l13980 232A                           l13964 22CC  
                         l13956 22A4                           l13796 1F20                           l13788 1EF8  
                         l16452 588E                           l16444 5866                           l16428 580C  
                         l16380 5708                           l16372 56E0                           l16356 5686  
                         l16348 565E                           l16284 5500                           l16276 54D8  
                         l16188 52F8                           l15900 4CC0                           l15820 4B06  
                         l15804 4AA8                           l15732 4916                           l15724 48EE  
                         l15708 4890                           l15660 4784                           l15652 475C  
                         l15636 46FE                           l15628 46D6                           l15580 45CA  
                         l15564 456C                           l15556 4544                           l15492 43DA  
                         l15484 43B2                           l15468 4354                           l15396 41C2  
                         l15388 419A                           l16532 6112                           l16508 60B6  
                         l12998 5BC6                           l13886 2116                           l13878 20EE  
                         l16470 58E6                           l16534 6116                           l13896 2154  
                         l14954 3826                           l14946 37FE                           l14882 36A0  
                         l14874 3678                           l14858 361E                           l14786 3498  
                         l14778 3470                           l13994 2372                           l13986 234A  
                         l14962 3848                           l16458 58AE                           l16386 5728  
                         l16378 5700                           l15930 4D66                           l15922 4D3E  
                         l15906 4CE0                           l15850 4BAC                           l15834 4B4E  
                         l15826 4B26                           l15762 49BC                           l15754 4994  
                         l15738 4936                           l15690 482A                           l15682 4802  
                         l15666 47A4                           l15658 477C                           l15594 4612  
                         l15586 45EA                           l15498 43FA                           l16466 58D0  
                         l16554 61CE                           l16490 6084                           l14948 3806  
                         l14892 36DA                           l14876 3680                           l14868 3658  
                         l14796 34D2                           l13988 2352                           l16396 5762  
                         l15940 4DA4                           l15924 4D46                           l15916 4D1E  
                         l15852 4BB4                           l15844 4B8C                           l15828 4B2E  
                         l15780 4A22                           l15772 49FA                           l15756 499C  
                         l15748 4974                           l15684 480A                           l15676 47E2  
                         l15588 45F2                           l14980 38B4                           l16548 6186  
                         l14966 385E                           l14974 388E                           l14898 36FA  
                         l15970 4E4A                           l15954 4DEC                           l15946 4DC4  
                         l15882 4C5A                           l15874 4C32                           l15858 4BD4  
                         l15786 4A42                           l15778 4A1A                           l14994 38FC  
                         l14986 38D4                           l15972 4E52                           l15964 4E2A  
                         l15948 4DCC                           l15892 4C98                           l15876 4C3A  
                         l15868 4C12                           l15796 4A80                           l14988 38DC  
                         l15994 4ED0                           l15978 4E72                           l15898 4CB8  
                         l15996 4ED8                           l15988 4EB0                           ?_main 0001  
                 i1_WriteTimer0 73C0                 __end_of___awdiv 6AA2                 __end_of___awmod 6C94  
                         _T0CON 000FD5                 ___awdiv@divisor 0062                           _T1CON 000FCD  
                         u25300 7300                           u25330 72D8                           u26415 5D40  
                         i1l213 0074                           i1l222 7182                           i1l224 718E  
                         i1l225 719C                 __end_of___lwmod 7180                           u37810 613E  
                         i2l209 6CDC                           u37887 738E                           u37897 731C  
               ___awdiv@counter 0064                           _TMR0H 000FD7                           _TMR1H 000FCF  
                         _TMR0L 000FD6                           _TMR1L 000FCE                           _PORTC 000F82  
                         _PORTH 000F87                           _TRISA 000F92                           _TRISB 000F93  
                         _TRISC 000F94                           _TRISF 000F97                           _TRISH 000F99  
                         _TRISJ 000F9A           __size_of_Delay10KTCYx 001C                   __CFG_PWRT$OFF 000000  
                 __CFG_WRT0$OFF 000000                   __CFG_WRT1$OFF 000000                   __CFG_WRT2$OFF 000000  
                 __CFG_WRT3$OFF 000000                   __CFG_WRT4$OFF 000000                   __CFG_WRT5$OFF 000000  
                 __CFG_WRT6$OFF 000000                   __CFG_WRT7$OFF 000000                  __CFG_EBTR0$OFF 000000  
                __CFG_FCMEN$OFF 000000                  __CFG_EBTR1$OFF 000000                  __CFG_EBTR2$OFF 000000  
                __CFG_EBTR3$OFF 000000                  __CFG_EBTR4$OFF 000000                  __CFG_EBTR5$OFF 000000  
                __CFG_EBTR6$OFF 000000                  __CFG_EBTR7$OFF 000000                   __CFG_WRTB$OFF 000000  
                 __CFG_WRTC$OFF 000000                   __CFG_WRTD$OFF 000000                  __CFG_EBTRB$OFF 000000  
              __end_of_CalcDate 6BF2                  __CFG_BOREN$OFF 000000                           tablat 000FF5  
              __end_of_CalcTime 7256                __end_of_DayFlash 6EE4                           status 000FD8  
                   _DaysInMonth 101A                __end_of_DispNums 103E                 __initialization 7256  
              __end_of_BootTest 721A                CompareTimes@args 0069                    __end_of_main 61D8  
           __size_of_PB1pressed 0028                __end_of_HrsFlash 703A             __size_of_PB2pressed 0028  
                  _Delay10KTCYx 7310                      SetMonth@dm 0062                __end_of_Num2Disp 69E4  
               CurrentDisplay@i 006D                  ?i1_WriteTimer0 0013                          ??_main 006F  
                 i2_WriteTimer1 73D2                __end_of_SetMonth 6762                   __activetblptr 000003  
          __end_of_CompareTimes 65AA                          _ADCON1 000FC1         __end_of_DaysInMonthLeap 1034  
              ___awdiv@dividend 0060                __end_of_Switches 72C0            CompareTimes@mainDate 0063  
               __CFG_BBSIZ$BB2K 000000                          i1l7420 71C2                          i1l7414 71A6  
                        i1l7418 71AC                          i2l7402 737C                          i2l7406 7382  
          CompareTimes@mainTime 0060                      _MonthFlash 6D18              __size_of_MinsFlash 0072  
                   _ConfigureIO 732C                       ??_SetMenu 006D                       ??_SetMins 0064  
                     ??_SetSecs 0064                          _SetDay 58EC                  __CFG_XINST$OFF 000000  
                     ??_SetYear 0064                          _SetHrs 6AA2              __size_of_SecsFlash 0072  
            __size_of_SetAlarm1 0182              __size_of_SetAlarm2 022A                      _Timer0_isr 7180  
                    _Timer1_isr 7372                       ??___awdiv 0064                       ??___awmod 0064  
                     ??___lwmod 0064                          _lp_isr 0018                          clear_0 7280  
              ___awdiv@quotient 0066                 ___awmod@divisor 0062                  ?i2_WriteTimer1 0001  
               ___awmod@counter 0064              __size_of_YearFlash 0072                    __pdataCOMRAM 004A  
                  __mediumconst 0000                          tblptrh 000FF7                          tblptrl 000FF6  
                        tblptru 000FF8                    Num2Disp@tens 006B                    Num2Disp@time 0068  
                    __accesstop 0060         __end_of__initialization 7286         ??_enable_interrupts_all 0060  
                 ___rparam_used 000001                    Switches@temp 0060               __end_of_DispChars 101A  
                _CurrentDisplay 65AA                  __pcstackCOMRAM 0001                   ??_StartTimer0 0060  
                 ??_StartTimer1 0060                 ??i1_WriteTimer0 0015                   ??_SoundAlarm1 0062  
                 ??_SoundAlarm2 0062                       ?_CalcDate 0001                       ?_CalcTime 0001  
                     ?_DayFlash 0001               __end_of_MinsFlash 6FC8               __end_of_SecsFlash 6F56  
             __end_of_SetAlarm1 635A               __end_of_SetAlarm2 5FEC                    ??_PB1pressed 0060  
                  ??_PB2pressed 0060                       ?_BootTest 0001                      __pbssBANK0 006F  
                     ?_HrsFlash 0001               _hp_secs_count_isr 0008                       ?_Num2Disp 0068  
                   ?_MonthFlash 0001                      __pnvCOMRAM 004C              ?_hp_secs_count_isr 0001  
             __end_of_YearFlash 6E72          __end_of_CurrentDisplay 668A                       ?_SetMonth 0062  
         CompareTimes@alarmDate 0067                         ?_SetDay 0069                         ?_SetHrs 0062  
         CompareTimes@alarmTime 0065                     ?_Timer0_isr 0001                     ?_Timer1_isr 0001  
                  ?_Alarm1Flash 0001                    ?_Alarm2Flash 0001                    ?_Delay10TCYx 0001  
           ??_hp_secs_count_isr 0005                 ??i2_WriteTimer1 0003              __end_of_PB1pressed 7310  
              WriteTimer0@timer 0062              __end_of_PB2pressed 72E8                WriteTimer1@timer 0062  
                 ??_WriteTimer0 0062                   ??_WriteTimer1 0062                         ?_lp_isr 0001  
                     ?_Switches 0001                      ??_CalcDate 0069                      ??_CalcTime 0060  
         __size_of_CompareTimes 0108                      ??_DayFlash 0062             __end_of_StartTimer0 7372  
           __end_of_StartTimer1 735C                    _day_rollover 0032             __end_of_SoundAlarm1 3864  
           __end_of_SoundAlarm2 58EC                      _disp_index 0049                      ??_BootTest 0062  
     __end_of_hp_secs_count_isr 6D18                      ??_HrsFlash 0062                      ??_Num2Disp 006A  
               ?_CurrentDisplay 006D             i2WriteTimer1@timer1 0001                      ??_SetMonth 0064  
                       __Hparam 0000                         _SetMenu 5B68                         _SetMins 683A  
                       _SetSecs 6762                         _SetYear 635A                         __Lparam 0000  
               __size_of_SetDay 027C                 __size_of_SetHrs 00A8                    _CompareTimes 64A2  
                       ___awdiv 69E4                         ___awmod 6BF2                         ___lwmod 711E  
                  __psmallconst 1000                 __CFG_STVREN$OFF 000000                         __pcinit 7256  
                    ??_Switches 0060                 __size_of_lp_isr 00A4                 Delay10TCYx@unit 0060  
                       __ramtop 1000                         __ptext0 5FEC                         __ptext1 73E4  
                       __ptext2 739C                         __ptext3 73AE                         __ptext4 7346  
                       __ptext5 735C                         __ptext6 3864                         __ptext7 1040  
                       _disp_U1 0033                         __ptext8 5B68                         _disp_U2 0034  
                       __ptext9 5DC2                         _dp_mask 004A                       _T0CONbits 000FD5  
                     _T1CONbits 000FCD             __size_of_MonthFlash 0074                ___awmod@dividend 0060  
           __end_of_WriteTimer0 73C0             __end_of_WriteTimer1 73AE             __size_of_Timer0_isr 0056  
           __size_of_Timer1_isr 0016                  __pintcode_body 6C94            end_of_initialization 7286  
                       int_func 6C94                    ?_ConfigureIO 0001                         postdec2 000FDD  
                       postinc0 000FEE                         postinc1 000FE6                         postinc2 000FDE  
                   _StartTimer0 735C                     _StartTimer1 7346                     _SoundAlarm1 1040  
                   _SoundAlarm2 3864                       _PORTBbits 000F81                       _PORTJbits 000F88  
                 Num2Disp@units 006C      __size_of_hp_secs_count_isr 6D10                   _mins_rollover 0035  
                 Switches@temp1 0062                   Switches@temp2 0061  __size_of_enable_interrupts_all 0008  
            i1WriteTimer0@timer 0015   __end_of_enable_interrupts_all 73EC                  __end_of_SetDay 5B68  
                __end_of_SetHrs 6B4A                       _DispChars 1001            __size_of_Alarm1Flash 0072  
          __size_of_Alarm2Flash 0072            __size_of_Delay10TCYx 0014                   __pidataCOMRAM 73EC  
                   _WriteTimer0 73AE                     _WriteTimer1 739C                  __end_of_lp_isr 00BC  
             __size_of_CalcDate 00A8             start_initialization 7256               __size_of_CalcTime 003C  
                     SetMins@tm 0062               __size_of_DayFlash 0072                       SetSecs@ts 0062  
                     SetYear@dy 0062                       _MinsFlash 6F56                       _SecsFlash 6EE4  
                 ?_CalcLeapYear 0065                       _SetAlarm1 61D8                       _SetAlarm2 5DC2  
             __size_of_BootTest 0044                    ??_MonthFlash 0062               __size_of_HrsFlash 0072  
             __size_of_Num2Disp 00D2                        ??_SetDay 006B                        ??_SetHrs 0064  
                  ??_Timer0_isr 0013                    ??_Timer1_isr 0001                       _YearFlash 6E00  
             __size_of_SetMonth 00D8                __CFG_LPT1OSC$OFF 000000                        ??_lp_isr 0017  
         __end_ofi1_WriteTimer0 73D2               __size_of_Switches 0030              __end_of_MonthFlash 6D8C  
                   __pbssCOMRAM 0028                   __pcstackBANK0 0060              __end_of_Timer0_isr 71D6  
                    ?_MinsFlash 0001              __end_of_Timer1_isr 7388                  ??_CalcLeapYear 0067  
              ??_CurrentDisplay 006F                      ?_SecsFlash 0001                      ?_SetAlarm1 0001  
                    ?_SetAlarm2 0001                        ?_SetMenu 0001                        ?_SetMins 0062  
                      ?_SetSecs 0062                        ?_SetYear 0062               __CFG_CCP2MX$PORTC 000000  
                     __pintcode 0008                      ?_YearFlash 0001            __size_of_ConfigureIO 001A  
                      ?___awdiv 0060                        ?___awmod 0060                       _disp_LEDS 004C  
                 ?_Delay10KTCYx 0001                        ?___lwmod 0060                     __pintcodelo 0018  
         __end_ofi2_WriteTimer1 73E4                     __smallconst 1000               WriteTimer0@timer0 0060  
             WriteTimer1@timer1 0060                 _multiplex_index 004B              i2WriteTimer1@timer 0003  
                     _ms_count0 0028                       _ms_count1 002A                       _ms_count2 002C  
                     _ms_count3 002E                        _LATAbits 000F89                        _LATHbits 000F90  
                      _LATJbits 000F91                        _IPR1bits 000F9F                        _PIE1bits 000F9D  
                      _PIR1bits 000F9E           __CFG_DATABW$DATA16BIT 000000                        _RCONbits 000FD0  
              __CFG_WDTPS$32768 000000                  ??_Delay10KTCYx 0060                CalcLeapYear@year 0065  
                  ?_StartTimer0 0001                    ?_StartTimer1 0001                    ?_SoundAlarm1 0001  
                  ?_SoundAlarm2 0001               __CFG_ECCPMX$PORTE 000000                        _CalcDate 6B4A  
                      _CalcTime 721A                        _DayFlash 6E72                        _Alarm1On 0030  
                      _Alarm2On 0031                Delay10KTCYx@unit 0061                        _DispNums 1034  
                      _BootTest 71D6                     _INTCON2bits 000FF1                        _MainDate 003B  
                   ??_MinsFlash 0062                        SetDay@dd 0069                        _MainTime 0046  
                   ??_SecsFlash 0062                     ??_SetAlarm1 006D                     ??_SetAlarm2 006D  
                      _HrsFlash 6FC8                        SetHrs@th 0062                        _Num2Disp 6912  
                      _SetMonth 668A                        __Hrparam 0000                        __Lrparam 0000  
              __size_of_SetMenu 025A                __size_of_SetMins 00D8                __size_of_SetSecs 00D8  
              __size_of_SetYear 0148                     ??_YearFlash 0062                __size_of___awdiv 00BE  
              __size_of___awmod 00A2            __end_of_CalcLeapYear 6E00                __size_of___lwmod 0062  
                  ?_WriteTimer0 0060                    ?_WriteTimer1 0060                        _Switches 7290  
                      __ptext10 6E00                        __ptext11 635A                        __ptext20 6AA2  
                      __ptext12 668A                        __ptext21 72C0                        __ptext13 58EC  
                      __ptext30 6BF2                        __ptext22 72E8                        __ptext14 6D18  
                      __ptext31 69E4                        __ptext23 6EE4                        __ptext15 6E72  
                      __ptext40 7310                        __ptext32 732C                        __ptext24 6F56  
                      __ptext16 61D8                        __ptext33 64A2                        __ptext25 6FC8  
                      __ptext17 7290                        __ptext42 73C0                        __ptext34 721A  
                      __ptext26 703A                        __ptext18 6762                        __ptext43 7180  
                      __ptext35 6B4A                        __ptext27 70AC                        __ptext19 683A  
                      __ptext36 6D8C                        __ptext28 65AA                        __ptext45 73D2  
                      __ptext37 711E                        __ptext29 6912                        __ptext46 7372  
                      __ptext38 71D6                        __ptext39 7388                   __size_of_main 01EC  
                 ??_Alarm1Flash 0062                   ??_Alarm2Flash 0062                   ??_Delay10TCYx 0060  
         _enable_interrupts_all 73E4                        int$flags 004D           __CFG_ADDRBW$ADDR20BIT 000000  
                    _INTCONbits 000FF2                      _PB1pressed 72E8                      _PB2pressed 72C0  
          __end_of_Delay10KTCYx 732C                        intlevel1 0000                        intlevel2 0000  
             CalcTime@mins_temp 0060                ___lwmod@dividend 0060                   ?_CompareTimes 0060  
           __end_of_Alarm1Flash 711E            __size_of_StartTimer0 0016            __size_of_StartTimer1 0016  
           __end_of_Alarm2Flash 70AC             __end_of_Delay10TCYx 739C            __size_of_SoundAlarm1 2824  
          __size_of_SoundAlarm2 2088                 ___lwmod@divisor 0062                 ___lwmod@counter 0064  
        __size_ofi1_WriteTimer0 0012                   ??_ConfigureIO 0060           __size_of_CalcLeapYear 0074  
        ?_enable_interrupts_all 0001                  ??_CompareTimes 006A  
